---
triple:          'x86_64-apple-darwin'
binary-path:     '/tmp/llama-xc/llama.cpp/build-macos/framework/llama.framework/Versions/A/llama'
relocations:
  - { offset: 0x23083, size: 0x8, addend: 0x0, symName: __ZNSt3__127__tree_balance_after_insertB8ne190102IPNS_16__tree_node_baseIPvEEEEvT_S5_, symObjAddr: 0x2D10, symBinAddr: 0x39E0, symSize: 0x180 }
  - { offset: 0x24937, size: 0x8, addend: 0x0, symName: __ZNSt3__120__throw_length_errorB8ne190102EPKc, symObjAddr: 0x2EA0, symBinAddr: 0x3B70, symSize: 0x50 }
  - { offset: 0x24A65, size: 0x8, addend: 0x0, symName: __ZNSt3__120__throw_out_of_rangeB8ne190102EPKc, symObjAddr: 0x3150, symBinAddr: 0x3E20, symSize: 0x50 }
  - { offset: 0x25D7F, size: 0x8, addend: 0x0, symName: __ZSt28__throw_bad_array_new_lengthB8ne190102v, symObjAddr: 0x2CD0, symBinAddr: 0x39A0, symSize: 0x40 }
  - { offset: 0x2C898, size: 0x8, addend: 0x0, symName: __ZNK18llama_adapter_cvec10tensor_forEi, symObjAddr: 0x0, symBinAddr: 0xCD0, symSize: 0x30 }
  - { offset: 0x2C900, size: 0x8, addend: 0x0, symName: __ZNK18llama_adapter_cvec8apply_toEP12ggml_contextP11ggml_tensori, symObjAddr: 0x30, symBinAddr: 0xD00, symSize: 0x50 }
  - { offset: 0x2D028, size: 0x8, addend: 0x0, symName: __ZN18llama_adapter_cvec4initERK11llama_model, symObjAddr: 0x80, symBinAddr: 0xD50, symSize: 0x810 }
  - { offset: 0x30139, size: 0x8, addend: 0x0, symName: __ZNSt3__16__treeINS_12__value_typeIP24ggml_backend_buffer_typeP12ggml_contextEENS_19__map_value_compareIS3_S6_NS_4lessIS3_EELb1EEENS_9allocatorIS6_EEE7destroyEPNS_11__tree_nodeIS6_PvEE, symObjAddr: 0x4410, symBinAddr: 0x50E0, symSize: 0x40 }
  - { offset: 0x30274, size: 0x8, addend: 0x0, symName: __ZNKSt3__16vectorINS_10unique_ptrI19ggml_backend_buffer27ggml_backend_buffer_deleterEENS_9allocatorIS4_EEE20__throw_length_errorB8ne190102Ev, symObjAddr: 0x4280, symBinAddr: 0x4F50, symSize: 0x10 }
  - { offset: 0x3029E, size: 0x8, addend: 0x0, symName: __ZNKSt3__16vectorIhNS_9allocatorIhEEE20__throw_length_errorB8ne190102Ev, symObjAddr: 0x4290, symBinAddr: 0x4F60, symSize: 0x10 }
  - { offset: 0x302A9, size: 0x8, addend: 0x0, symName: __ZNKSt3__16vectorIP11ggml_tensorNS_9allocatorIS2_EEE20__throw_length_errorB8ne190102Ev, symObjAddr: 0x4450, symBinAddr: 0x5120, symSize: 0x10 }
  - { offset: 0x302D3, size: 0x8, addend: 0x0, symName: __ZNSt3__112__hash_tableINS_17__hash_value_typeINS_12basic_stringIcNS_11char_traitsIcEENS_9allocatorIcEEEE25llama_adapter_lora_weightEENS_22__unordered_map_hasherIS7_S9_NS_4hashIS7_EENS_8equal_toIS7_EELb1EEENS_21__unordered_map_equalIS7_S9_SE_SC_Lb1EEENS5_IS9_EEE4findIS7_EENS_15__hash_iteratorIPNS_11__hash_nodeIS9_PvEEEERKT_, symObjAddr: 0x4460, symBinAddr: 0x5130, symSize: 0x289 }
  - { offset: 0x302DE, size: 0x8, addend: 0x0, symName: __ZNKSt3__16vectorINS_10unique_ptrI12ggml_context20ggml_context_deleterEENS_9allocatorIS4_EEE20__throw_length_errorB8ne190102Ev, symObjAddr: 0x2E90, symBinAddr: 0x3B60, symSize: 0x10 }
  - { offset: 0x30308, size: 0x8, addend: 0x0, symName: __ZNSt3__120__throw_length_errorB8ne190102EPKc, symObjAddr: 0x2EA0, symBinAddr: 0x3B70, symSize: 0x50 }
  - { offset: 0x30351, size: 0x8, addend: 0x0, symName: __ZN18llama_adapter_cvec5applyERK11llama_modelPKfmiii, symObjAddr: 0x890, symBinAddr: 0x1560, symSize: 0x130 }
  - { offset: 0x308EB, size: 0x8, addend: 0x0, symName: __ZN18llama_adapter_lora10get_weightEP11ggml_tensor, symObjAddr: 0x9C0, symBinAddr: 0x1690, symSize: 0xF0 }
  - { offset: 0x30EF7, size: 0x8, addend: 0x0, symName: __ZNSt3__112__hash_tableINS_17__hash_value_typeINS_12basic_stringIcNS_11char_traitsIcEENS_9allocatorIcEEEE25llama_adapter_lora_weightEENS_22__unordered_map_hasherIS7_S9_NS_4hashIS7_EENS_8equal_toIS7_EELb1EEENS_21__unordered_map_equalIS7_S9_SE_SC_Lb1EEENS5_IS9_EEE4findIS7_EENS_15__hash_iteratorIPNS_11__hash_nodeIS9_PvEEEERKT_, symObjAddr: 0x4460, symBinAddr: 0x5130, symSize: 0x289 }
  - { offset: 0x311F5, size: 0x8, addend: 0x0, symName: __ZNKSt3__112basic_stringIcNS_11char_traitsIcEENS_9allocatorIcEEE20__throw_length_errorB8ne190102Ev, symObjAddr: 0x3570, symBinAddr: 0x4240, symSize: 0x10 }
  - { offset: 0x3121F, size: 0x8, addend: 0x0, symName: __ZNKSt3__16vectorIP24ggml_backend_buffer_typeNS_9allocatorIS2_EEE20__throw_length_errorB8ne190102Ev, symObjAddr: 0x3580, symBinAddr: 0x4250, symSize: 0x10 }
  - { offset: 0x3122A, size: 0x8, addend: 0x0, symName: __ZNSt3__112basic_stringIcNS_11char_traitsIcEENS_9allocatorIcEEEC1B8ne190102ILi0EEEPKc, symObjAddr: 0xAB0, symBinAddr: 0x1780, symSize: 0x90 }
  - { offset: 0x32E7A, size: 0x8, addend: 0x0, symName: _llama_adapter_lora_init, symObjAddr: 0xB40, symBinAddr: 0x1810, symSize: 0x2150 }
  - { offset: 0x3A7E0, size: 0x8, addend: 0x0, symName: __ZNSt3__16__treeINS_12__value_typeINS_12basic_stringIcNS_11char_traitsIcEENS_9allocatorIcEEEE25llama_adapter_lora_weightEENS_19__map_value_compareIS7_S9_NS_4lessIS7_EELb1EEENS5_IS9_EEE4findIS7_EENS_15__tree_iteratorIS9_PNS_11__tree_nodeIS9_PvEElEERKT_, symObjAddr: 0x31D0, symBinAddr: 0x3EA0, symSize: 0x110 }
  - { offset: 0x3AB44, size: 0x8, addend: 0x0, symName: __ZNSt3__16__treeINS_12__value_typeINS_12basic_stringIcNS_11char_traitsIcEENS_9allocatorIcEEEE25llama_adapter_lora_weightEENS_19__map_value_compareIS7_S9_NS_4lessIS7_EELb1EEENS5_IS9_EEE25__emplace_unique_key_argsIS7_JRKNS_21piecewise_construct_tENS_5tupleIJRKS7_EEENSK_IJEEEEEENS_4pairINS_15__tree_iteratorIS9_PNS_11__tree_nodeIS9_PvEElEEbEERKT_DpOT0_, symObjAddr: 0x32E0, symBinAddr: 0x3FB0, symSize: 0x1C0 }
  - { offset: 0x3B384, size: 0x8, addend: 0x0, symName: __ZNSt3__112__hash_tableINS_17__hash_value_typeINS_12basic_stringIcNS_11char_traitsIcEENS_9allocatorIcEEEE25llama_adapter_lora_weightEENS_22__unordered_map_hasherIS7_S9_NS_4hashIS7_EENS_8equal_toIS7_EELb1EEENS_21__unordered_map_equalIS7_S9_SE_SC_Lb1EEENS5_IS9_EEE25__emplace_unique_key_argsIS7_JRKNS_21piecewise_construct_tENS_5tupleIJRKS7_EEENSO_IJEEEEEENS_4pairINS_15__hash_iteratorIPNS_11__hash_nodeIS9_PvEEEEbEERKT_DpOT0_, symObjAddr: 0x3590, symBinAddr: 0x4260, symSize: 0x5C0 }
  - { offset: 0x3BE00, size: 0x8, addend: 0x0, symName: '__ZZL28llama_adapter_lora_init_implR11llama_modelPKcR18llama_adapter_loraENK3$_4clEP11ggml_tensorS7_', symObjAddr: 0x2F80, symBinAddr: 0x3C50, symSize: 0x190 }
  - { offset: 0x3C40F, size: 0x8, addend: 0x0, symName: __ZNSt3__16__treeINS_12__value_typeINS_12basic_stringIcNS_11char_traitsIcEENS_9allocatorIcEEEE25llama_adapter_lora_weightEENS_19__map_value_compareIS7_S9_NS_4lessIS7_EELb1EEENS5_IS9_EEE7destroyEPNS_11__tree_nodeIS9_PvEE, symObjAddr: 0x42A0, symBinAddr: 0x4F70, symSize: 0x50 }
  - { offset: 0x3C701, size: 0x8, addend: 0x0, symName: __ZNKSt3__112basic_stringIcNS_11char_traitsIcEENS_9allocatorIcEEE20__throw_out_of_rangeB8ne190102Ev, symObjAddr: 0x3140, symBinAddr: 0x3E10, symSize: 0x10 }
  - { offset: 0x3C72B, size: 0x8, addend: 0x0, symName: __ZNSt3__120__throw_out_of_rangeB8ne190102EPKc, symObjAddr: 0x3150, symBinAddr: 0x3E20, symSize: 0x50 }
  - { offset: 0x3C74C, size: 0x8, addend: 0x0, symName: __ZNKSt3__16vectorIP24ggml_backend_buffer_typeNS_9allocatorIS2_EEE20__throw_length_errorB8ne190102Ev, symObjAddr: 0x3580, symBinAddr: 0x4250, symSize: 0x10 }
  - { offset: 0x3C776, size: 0x8, addend: 0x0, symName: __ZNSt3__112__hash_tableINS_17__hash_value_typeINS_12basic_stringIcNS_11char_traitsIcEENS_9allocatorIcEEEE25llama_adapter_lora_weightEENS_22__unordered_map_hasherIS7_S9_NS_4hashIS7_EENS_8equal_toIS7_EELb1EEENS_21__unordered_map_equalIS7_S9_SE_SC_Lb1EEENS5_IS9_EEE25__emplace_unique_key_argsIS7_JRKNS_21piecewise_construct_tENS_5tupleIJRKS7_EEENSO_IJEEEEEENS_4pairINS_15__hash_iteratorIPNS_11__hash_nodeIS9_PvEEEEbEERKT_DpOT0_, symObjAddr: 0x3590, symBinAddr: 0x4260, symSize: 0x5C0 }
  - { offset: 0x3C781, size: 0x8, addend: 0x0, symName: __ZNSt3__110unique_ptrI19ggml_backend_buffer27ggml_backend_buffer_deleterED1B8ne190102Ev, symObjAddr: 0x2F50, symBinAddr: 0x3C20, symSize: 0x30 }
  - { offset: 0x3C80E, size: 0x8, addend: 0x0, symName: __ZNSt3__110unique_ptrI12ggml_context20ggml_context_deleterED1B8ne190102Ev, symObjAddr: 0x2F20, symBinAddr: 0x3BF0, symSize: 0x30 }
  - { offset: 0x3C89B, size: 0x8, addend: 0x0, symName: __ZNSt3__110unique_ptrI12gguf_context20gguf_context_deleterED1B8ne190102Ev, symObjAddr: 0x3110, symBinAddr: 0x3DE0, symSize: 0x30 }
  - { offset: 0x3C928, size: 0x8, addend: 0x0, symName: __ZN18llama_adapter_loraD2Ev, symObjAddr: 0x42F0, symBinAddr: 0x4FC0, symSize: 0x120 }
  - { offset: 0x3D0DC, size: 0x8, addend: 0x0, symName: _llama_adapter_lora_free, symObjAddr: 0x2CA0, symBinAddr: 0x3970, symSize: 0x30 }
  - { offset: 0x3D16C, size: 0x8, addend: 0x0, symName: __ZNSt12length_errorC1B8ne190102EPKc, symObjAddr: 0x2EF0, symBinAddr: 0x3BC0, symSize: 0x30 }
  - { offset: 0x3D69C, size: 0x8, addend: 0x0, symName: __ZNKSt3__16vectorIhNS_9allocatorIhEEE20__throw_length_errorB8ne190102Ev, symObjAddr: 0x4290, symBinAddr: 0x4F60, symSize: 0x10 }
  - { offset: 0x3D6C6, size: 0x8, addend: 0x0, symName: __ZNSt3__16__treeINS_12__value_typeINS_12basic_stringIcNS_11char_traitsIcEENS_9allocatorIcEEEE25llama_adapter_lora_weightEENS_19__map_value_compareIS7_S9_NS_4lessIS7_EELb1EEENS5_IS9_EEE7destroyEPNS_11__tree_nodeIS9_PvEE, symObjAddr: 0x42A0, symBinAddr: 0x4F70, symSize: 0x50 }
  - { offset: 0x3D6D1, size: 0x8, addend: 0x0, symName: __ZNSt12out_of_rangeC1B8ne190102EPKc, symObjAddr: 0x31A0, symBinAddr: 0x3E70, symSize: 0x30 }
  - { offset: 0x3DE2C, size: 0x8, addend: 0x0, symName: __ZNSt3__112basic_stringIcNS_11char_traitsIcEENS_9allocatorIcEEE25__init_copy_ctor_externalEPKcm, symObjAddr: 0x34F0, symBinAddr: 0x41C0, symSize: 0x80 }
  - { offset: 0x3E066, size: 0x8, addend: 0x0, symName: __ZNSt3__110unique_ptrINS_11__tree_nodeINS_12__value_typeINS_12basic_stringIcNS_11char_traitsIcEENS_9allocatorIcEEEE25llama_adapter_lora_weightEEPvEENS_22__tree_node_destructorINS6_ISC_EEEEED1B8ne190102Ev, symObjAddr: 0x34A0, symBinAddr: 0x4170, symSize: 0x50 }
  - { offset: 0x3E9FD, size: 0x8, addend: 0x0, symName: __ZNKSt3__121__murmur2_or_cityhashImLm64EEclB8ne190102EPKvm, symObjAddr: 0x3BA0, symBinAddr: 0x4870, symSize: 0x4B0 }
  - { offset: 0x3F527, size: 0x8, addend: 0x0, symName: __ZNSt3__112__hash_tableINS_17__hash_value_typeINS_12basic_stringIcNS_11char_traitsIcEENS_9allocatorIcEEEE25llama_adapter_lora_weightEENS_22__unordered_map_hasherIS7_S9_NS_4hashIS7_EENS_8equal_toIS7_EELb1EEENS_21__unordered_map_equalIS7_S9_SE_SC_Lb1EEENS5_IS9_EEE11__do_rehashILb1EEEvm, symObjAddr: 0x4050, symBinAddr: 0x4D20, symSize: 0x230 }
  - { offset: 0x3F999, size: 0x8, addend: 0x0, symName: __ZNSt3__110unique_ptrINS_11__hash_nodeINS_17__hash_value_typeINS_12basic_stringIcNS_11char_traitsIcEENS_9allocatorIcEEEE25llama_adapter_lora_weightEEPvEENS_22__hash_node_destructorINS6_ISC_EEEEED1B8ne190102Ev, symObjAddr: 0x3B50, symBinAddr: 0x4820, symSize: 0x50 }
  - { offset: 0x42806, size: 0x8, addend: 0x0, symName: __ZL14LLM_ARCH_NAMES, symObjAddr: 0xC2498, symBinAddr: 0x309300, symSize: 0x0 }
  - { offset: 0x541AF, size: 0x8, addend: 0x0, symName: __ZL12LLM_KV_NAMES, symObjAddr: 0xC24B0, symBinAddr: 0x309318, symSize: 0x0 }
  - { offset: 0x54616, size: 0x8, addend: 0x0, symName: __ZL16LLM_TENSOR_NAMES, symObjAddr: 0xC24C8, symBinAddr: 0x309330, symSize: 0x0 }
  - { offset: 0x552F3, size: 0x8, addend: 0x0, symName: __ZL16LLM_TENSOR_INFOS, symObjAddr: 0xC24E0, symBinAddr: 0x309348, symSize: 0x0 }
  - { offset: 0x558E0, size: 0x8, addend: 0x0, symName: __ZNSt3__13mapI8llm_archPKcNS_4lessIS1_EENS_9allocatorINS_4pairIKS1_S3_EEEEED1B8ne190102Ev, symObjAddr: 0x0, symBinAddr: 0x53C0, symSize: 0x10 }
  - { offset: 0x55993, size: 0x8, addend: 0x0, symName: __ZNSt3__16__treeINS_12__value_typeI8llm_archPKcEENS_19__map_value_compareIS2_S5_NS_4lessIS2_EELb1EEENS_9allocatorIS5_EEE7destroyEPNS_11__tree_nodeIS5_PvEE, symObjAddr: 0xAC0, symBinAddr: 0x5CF0, symSize: 0x40 }
  - { offset: 0x55B40, size: 0x8, addend: 0x0, symName: __ZNSt3__13mapI6llm_kvPKcNS_4lessIS1_EENS_9allocatorINS_4pairIKS1_S3_EEEEED1B8ne190102Ev, symObjAddr: 0x10, symBinAddr: 0x53D0, symSize: 0x10 }
  - { offset: 0x55BF3, size: 0x8, addend: 0x0, symName: __ZNSt3__16__treeINS_12__value_typeI6llm_kvPKcEENS_19__map_value_compareIS2_S5_NS_4lessIS2_EELb1EEENS_9allocatorIS5_EEE7destroyEPNS_11__tree_nodeIS5_PvEE, symObjAddr: 0xC70, symBinAddr: 0x5EA0, symSize: 0x40 }
  - { offset: 0x563B1, size: 0x8, addend: 0x0, symName: ___cxx_global_var_init.220, symObjAddr: 0x13B0, symBinAddr: 0x64E0, symSize: 0x4770 }
  - { offset: 0x6ED37, size: 0x8, addend: 0x0, symName: __ZNSt3__13mapI10llm_tensorPKcNS_4lessIS1_EENS_9allocatorINS_4pairIKS1_S3_EEEEEC2B8ne190102ESt16initializer_listIS9_ERKS5_, symObjAddr: 0xCB0, symBinAddr: 0x5EE0, symSize: 0x170 }
  - { offset: 0x6F28D, size: 0x8, addend: 0x0, symName: __ZNSt3__13mapI10llm_tensorPKcNS_4lessIS1_EENS_9allocatorINS_4pairIKS1_S3_EEEEE6insertB8ne190102INS_20__map_const_iteratorINS_21__tree_const_iteratorINS_12__value_typeIS1_S3_EEPNS_11__tree_nodeISG_PvEElEEEEEEvT_SN_, symObjAddr: 0x510, symBinAddr: 0x58D0, symSize: 0x110 }
  - { offset: 0x6F2D3, size: 0x8, addend: 0x0, symName: __ZNSt3__13mapI10llm_tensorPKcNS_4lessIS1_EENS_9allocatorINS_4pairIKS1_S3_EEEEE6insertB8ne190102INS_20__map_const_iteratorINS_21__tree_const_iteratorINS_12__value_typeIS1_S3_EEPNS_11__tree_nodeISG_PvEElEEEEEEvT_SN_, symObjAddr: 0x510, symBinAddr: 0x58D0, symSize: 0x110 }
  - { offset: 0x6F612, size: 0x8, addend: 0x0, symName: __ZNSt3__16__treeINS_12__value_typeI8llm_archNS_3mapI10llm_tensorPKcNS_4lessIS4_EENS_9allocatorINS_4pairIKS4_S6_EEEEEEEENS_19__map_value_compareIS2_SF_NS7_IS2_EELb1EEENS9_ISF_EEE30__emplace_hint_unique_key_argsIS2_JRKNSA_IKS2_SE_EEEEENSA_INS_15__tree_iteratorISF_PNS_11__tree_nodeISF_PvEElEEbEENS_21__tree_const_iteratorISF_SU_lEERKT_DpOT0_, symObjAddr: 0xE20, symBinAddr: 0x6050, symSize: 0xF0 }
  - { offset: 0x6FBBF, size: 0x8, addend: 0x0, symName: __ZNSt3__16__treeINS_12__value_typeI10llm_tensorPKcEENS_19__map_value_compareIS2_S5_NS_4lessIS2_EELb1EEENS_9allocatorIS5_EEE7destroyEPNS_11__tree_nodeIS5_PvEE, symObjAddr: 0x910, symBinAddr: 0x5B40, symSize: 0x40 }
  - { offset: 0x6FCFA, size: 0x8, addend: 0x0, symName: __ZNSt3__16__treeINS_12__value_typeI8llm_archNS_3mapI10llm_tensorPKcNS_4lessIS4_EENS_9allocatorINS_4pairIKS4_S6_EEEEEEEENS_19__map_value_compareIS2_SF_NS7_IS2_EELb1EEENS9_ISF_EEE7destroyEPNS_11__tree_nodeISF_PvEE, symObjAddr: 0x10B0, symBinAddr: 0x62E0, symSize: 0x50 }
  - { offset: 0x6FF6B, size: 0x8, addend: 0x0, symName: __ZNSt3__13mapI8llm_archNS0_I10llm_tensorPKcNS_4lessIS2_EENS_9allocatorINS_4pairIKS2_S4_EEEEEENS5_IS1_EENS7_INS8_IKS1_SC_EEEEED1B8ne190102Ev, symObjAddr: 0x20, symBinAddr: 0x53E0, symSize: 0x10 }
  - { offset: 0x70090, size: 0x8, addend: 0x0, symName: __ZNSt3__13mapI10llm_tensor15llm_tensor_infoNS_4lessIS1_EENS_9allocatorINS_4pairIKS1_S2_EEEEED1B8ne190102Ev, symObjAddr: 0x30, symBinAddr: 0x53F0, symSize: 0x10 }
  - { offset: 0x70143, size: 0x8, addend: 0x0, symName: __ZNSt3__16__treeINS_12__value_typeI10llm_tensor15llm_tensor_infoEENS_19__map_value_compareIS2_S4_NS_4lessIS2_EELb1EEENS_9allocatorIS4_EEE7destroyEPNS_11__tree_nodeIS4_PvEE, symObjAddr: 0x1270, symBinAddr: 0x64A0, symSize: 0x40 }
  - { offset: 0x70283, size: 0x8, addend: 0x0, symName: __ZN6LLM_KVC2E8llm_archPKc, symObjAddr: 0x40, symBinAddr: 0x5400, symSize: 0x10 }
  - { offset: 0x702EB, size: 0x8, addend: 0x0, symName: __ZN6LLM_KVC1E8llm_archPKc, symObjAddr: 0x50, symBinAddr: 0x5410, symSize: 0x10 }
  - { offset: 0x706A8, size: 0x8, addend: 0x0, symName: __ZNK6LLM_KVclE6llm_kv, symObjAddr: 0x60, symBinAddr: 0x5420, symSize: 0xD0 }
  - { offset: 0x70E6B, size: 0x8, addend: 0x0, symName: __ZNK11LLM_TN_IMPL3strEv, symObjAddr: 0x130, symBinAddr: 0x54F0, symSize: 0x1A0 }
  - { offset: 0x71727, size: 0x8, addend: 0x0, symName: __Z13llm_arch_name8llm_arch, symObjAddr: 0x2D0, symBinAddr: 0x5690, symSize: 0x50 }
  - { offset: 0x71768, size: 0x8, addend: 0x0, symName: __Z13llm_arch_name8llm_arch, symObjAddr: 0x2D0, symBinAddr: 0x5690, symSize: 0x50 }
  - { offset: 0x7177D, size: 0x8, addend: 0x0, symName: __Z13llm_arch_name8llm_arch, symObjAddr: 0x2D0, symBinAddr: 0x5690, symSize: 0x50 }
  - { offset: 0x7179B, size: 0x8, addend: 0x0, symName: __Z13llm_arch_name8llm_arch, symObjAddr: 0x2D0, symBinAddr: 0x5690, symSize: 0x50 }
  - { offset: 0x7198C, size: 0x8, addend: 0x0, symName: __Z20llm_arch_from_stringRKNSt3__112basic_stringIcNS_11char_traitsIcEENS_9allocatorIcEEEE, symObjAddr: 0x320, symBinAddr: 0x56E0, symSize: 0x140 }
  - { offset: 0x71D3E, size: 0x8, addend: 0x0, symName: __Z19llm_tensor_info_for10llm_tensor, symObjAddr: 0x460, symBinAddr: 0x5820, symSize: 0x50 }
  - { offset: 0x71E23, size: 0x8, addend: 0x0, symName: __Z21llm_arch_is_recurrentRK8llm_arch, symObjAddr: 0x4B0, symBinAddr: 0x5870, symSize: 0x20 }
  - { offset: 0x71E52, size: 0x8, addend: 0x0, symName: __Z18llm_arch_is_hybridRK8llm_arch, symObjAddr: 0x4D0, symBinAddr: 0x5890, symSize: 0x20 }
  - { offset: 0x71E81, size: 0x8, addend: 0x0, symName: __Z21llm_arch_is_diffusionRK8llm_arch, symObjAddr: 0x4F0, symBinAddr: 0x58B0, symSize: 0x20 }
  - { offset: 0x7215D, size: 0x8, addend: 0x0, symName: __ZNSt3__16__treeINS_12__value_typeI10llm_tensorPKcEENS_19__map_value_compareIS2_S5_NS_4lessIS2_EELb1EEENS_9allocatorIS5_EEE12__find_equalIS2_EERPNS_16__tree_node_baseIPvEENS_21__tree_const_iteratorIS5_PNS_11__tree_nodeIS5_SF_EElEERPNS_15__tree_end_nodeISH_EESI_RKT_, symObjAddr: 0x620, symBinAddr: 0x59E0, symSize: 0x160 }
  - { offset: 0x729D3, size: 0x8, addend: 0x0, symName: __ZNSt3__13mapI8llm_archPKcNS_4lessIS1_EENS_9allocatorINS_4pairIKS1_S3_EEEEEC2B8ne190102ESt16initializer_listIS9_ERKS5_, symObjAddr: 0x950, symBinAddr: 0x5B80, symSize: 0x170 }
  - { offset: 0x73394, size: 0x8, addend: 0x0, symName: __ZNSt3__13mapI6llm_kvPKcNS_4lessIS1_EENS_9allocatorINS_4pairIKS1_S3_EEEEEC2B8ne190102ESt16initializer_listIS9_ERKS5_, symObjAddr: 0xB00, symBinAddr: 0x5D30, symSize: 0x170 }
  - { offset: 0x73DDA, size: 0x8, addend: 0x0, symName: __ZNSt3__16__treeINS_12__value_typeI8llm_archNS_3mapI10llm_tensorPKcNS_4lessIS4_EENS_9allocatorINS_4pairIKS4_S6_EEEEEEEENS_19__map_value_compareIS2_SF_NS7_IS2_EELb1EEENS9_ISF_EEE12__find_equalIS2_EERPNS_16__tree_node_baseIPvEENS_21__tree_const_iteratorISF_PNS_11__tree_nodeISF_SN_EElEERPNS_15__tree_end_nodeISP_EESQ_RKT_, symObjAddr: 0xF10, symBinAddr: 0x6140, symSize: 0x160 }
  - { offset: 0x741D7, size: 0x8, addend: 0x0, symName: __ZNSt3__110unique_ptrINS_11__tree_nodeINS_12__value_typeI8llm_archNS_3mapI10llm_tensorPKcNS_4lessIS5_EENS_9allocatorINS_4pairIKS5_S7_EEEEEEEEPvEENS_22__tree_node_destructorINSA_ISI_EEEEED1B8ne190102Ev, symObjAddr: 0x1070, symBinAddr: 0x62A0, symSize: 0x40 }
  - { offset: 0x749F0, size: 0x8, addend: 0x0, symName: __ZNSt3__13mapI10llm_tensor15llm_tensor_infoNS_4lessIS1_EENS_9allocatorINS_4pairIKS1_S2_EEEEEC2B8ne190102ESt16initializer_listIS8_ERKS4_, symObjAddr: 0x1100, symBinAddr: 0x6330, symSize: 0x170 }
  - { offset: 0x750AD, size: 0x8, addend: 0x0, symName: __GLOBAL__sub_I_llama_arch.cpp, symObjAddr: 0x5B20, symBinAddr: 0xAC50, symSize: 0x127 }
  - { offset: 0x87B78, size: 0x8, addend: 0x0, symName: __ZNSt3__124__put_character_sequenceB8ne190102IcNS_11char_traitsIcEEEERNS_13basic_ostreamIT_T0_EES7_PKS4_m, symObjAddr: 0x66F0, symBinAddr: 0x11320, symSize: 0x150 }
  - { offset: 0x8F45E, size: 0x8, addend: 0x0, symName: __ZNSt3__116__pad_and_outputB8ne190102IcNS_11char_traitsIcEEEENS_19ostreambuf_iteratorIT_T0_EES6_PKS4_S8_S8_RNS_8ios_baseES4_, symObjAddr: 0x6840, symBinAddr: 0x11470, symSize: 0x160 }
  - { offset: 0x93C08, size: 0x8, addend: 0x0, symName: __ZN18llama_batch_allocrC2Ej, symObjAddr: 0x0, symBinAddr: 0xAD80, symSize: 0x370 }
  - { offset: 0x94BF0, size: 0x8, addend: 0x0, symName: __ZNSt3__16vectorINS_3setIiNS_4lessIiEENS_9allocatorIiEEEENS4_IS6_EEE8__appendEm, symObjAddr: 0x5390, symBinAddr: 0x10100, symSize: 0x220 }
  - { offset: 0x95373, size: 0x8, addend: 0x0, symName: __ZNSt3__16vectorINS0_IbNS_9allocatorIbEEEENS1_IS3_EEE8__appendEm, symObjAddr: 0x5680, symBinAddr: 0x10330, symSize: 0x270 }
  - { offset: 0x95A51, size: 0x8, addend: 0x0, symName: __ZNSt3__16vectorIbNS_9allocatorIbEEE6resizeEmb, symObjAddr: 0x370, symBinAddr: 0xB0F0, symSize: 0x2A0 }
  - { offset: 0x962C3, size: 0x8, addend: 0x0, symName: __ZNSt3__16vectorIiNS_9allocatorIiEEE8__appendEmRKi, symObjAddr: 0x5A40, symBinAddr: 0x106F0, symSize: 0x200 }
  - { offset: 0x96767, size: 0x8, addend: 0x0, symName: __ZNSt3__113unordered_mapINS_6bitsetILm64EEENS_6vectorIiNS_9allocatorIiEEEENS_4hashIS2_EENS_8equal_toIS2_EENS4_INS_4pairIKS2_S6_EEEEED1B8ne190102Ev, symObjAddr: 0x610, symBinAddr: 0xB390, symSize: 0x70 }
  - { offset: 0x96BC0, size: 0x8, addend: 0x0, symName: __ZNSt3__16vectorINS0_IbNS_9allocatorIbEEEENS1_IS3_EEED1B8ne190102Ev, symObjAddr: 0x680, symBinAddr: 0xB400, symSize: 0x70 }
  - { offset: 0x96E29, size: 0x8, addend: 0x0, symName: __ZNSt3__16vectorINS_3setIiNS_4lessIiEENS_9allocatorIiEEEENS4_IS6_EEED1B8ne190102Ev, symObjAddr: 0x6F0, symBinAddr: 0xB470, symSize: 0x70 }
  - { offset: 0x97245, size: 0x8, addend: 0x0, symName: __ZNSt3__16vectorIbNS_9allocatorIbEEE7reserveEm, symObjAddr: 0x5900, symBinAddr: 0x105B0, symSize: 0x130 }
  - { offset: 0x9763F, size: 0x8, addend: 0x0, symName: __ZNKSt3__16vectorIbNS_9allocatorIbEEE20__throw_length_errorB8ne190102Ev, symObjAddr: 0x5A30, symBinAddr: 0x106E0, symSize: 0x10 }
  - { offset: 0x97669, size: 0x8, addend: 0x0, symName: __ZNSt3__16vectorIiNS_9allocatorIiEEE8__appendEmRKi, symObjAddr: 0x5A40, symBinAddr: 0x106F0, symSize: 0x200 }
  - { offset: 0x97B0F, size: 0x8, addend: 0x0, symName: __ZNSt3__16__treeIiNS_4lessIiEENS_9allocatorIiEEE7destroyEPNS_11__tree_nodeIiPvEE, symObjAddr: 0x5350, symBinAddr: 0x100C0, symSize: 0x40 }
  - { offset: 0x97C48, size: 0x8, addend: 0x0, symName: __ZN18llama_batch_allocrC1Ej, symObjAddr: 0x760, symBinAddr: 0xB4E0, symSize: 0x10 }
  - { offset: 0x992A8, size: 0x8, addend: 0x0, symName: __ZN18llama_batch_allocr4initERK11llama_batchRK11llama_vocabPK14llama_memory_ijjb, symObjAddr: 0x770, symBinAddr: 0xB4F0, symSize: 0x1B10 }
  - { offset: 0x9CA91, size: 0x8, addend: 0x0, symName: __ZN18llama_batch_allocr5clearEv, symObjAddr: 0x2280, symBinAddr: 0xD000, symSize: 0x250 }
  - { offset: 0x9D581, size: 0x8, addend: 0x0, symName: __ZNSt3__16vectorIiNS_9allocatorIiEEE8__appendEm, symObjAddr: 0x5C50, symBinAddr: 0x10900, symSize: 0x150 }
  - { offset: 0x9D9BE, size: 0x8, addend: 0x0, symName: __ZNSt3__16vectorIPiNS_9allocatorIS1_EEE8__appendEm, symObjAddr: 0x5DA0, symBinAddr: 0x10A50, symSize: 0x150 }
  - { offset: 0x9DDFB, size: 0x8, addend: 0x0, symName: __ZN18llama_batch_allocr12ubatch_printERK12llama_ubatchi, symObjAddr: 0x24D0, symBinAddr: 0xD250, symSize: 0xCA0 }
  - { offset: 0x9F490, size: 0x8, addend: 0x0, symName: __ZNSt3__118basic_stringstreamIcNS_11char_traitsIcEENS_9allocatorIcEEEC1B8ne190102Ev, symObjAddr: 0x3170, symBinAddr: 0xDEF0, symSize: 0x140 }
  - { offset: 0x9F602, size: 0x8, addend: 0x0, symName: __ZNSt3__112__hash_tableINS_17__hash_value_typeINS_6bitsetILm64EEENS_6vectorIiNS_9allocatorIiEEEEEENS_22__unordered_map_hasherIS3_S8_NS_4hashIS3_EENS_8equal_toIS3_EELb1EEENS_21__unordered_map_equalIS3_S8_SD_SB_Lb1EEENS5_IS8_EEE25__emplace_unique_key_argsIS3_JRKNS_21piecewise_construct_tENS_5tupleIJRKS3_EEENSN_IJEEEEEENS_4pairINS_15__hash_iteratorIPNS_11__hash_nodeIS8_PvEEEEbEERKT_DpOT0_, symObjAddr: 0x5FA0, symBinAddr: 0x10BD0, symSize: 0x4D0 }
  - { offset: 0x9FE62, size: 0x8, addend: 0x0, symName: __ZNKSt3__16vectorIiNS_9allocatorIiEEE20__throw_length_errorB8ne190102Ev, symObjAddr: 0x5C40, symBinAddr: 0x108F0, symSize: 0x10 }
  - { offset: 0x9FE8C, size: 0x8, addend: 0x0, symName: __ZNSt3__16vectorIiNS_9allocatorIiEEE8__appendEm, symObjAddr: 0x5C50, symBinAddr: 0x10900, symSize: 0x150 }
  - { offset: 0x9FE97, size: 0x8, addend: 0x0, symName: __ZNKSt3__16vectorINS_6bitsetILm64EEENS_9allocatorIS2_EEE20__throw_length_errorB8ne190102Ev, symObjAddr: 0x5F90, symBinAddr: 0x10BC0, symSize: 0x10 }
  - { offset: 0x9FEC1, size: 0x8, addend: 0x0, symName: __ZNSt3__112__hash_tableINS_17__hash_value_typeINS_6bitsetILm64EEENS_6vectorIiNS_9allocatorIiEEEEEENS_22__unordered_map_hasherIS3_S8_NS_4hashIS3_EENS_8equal_toIS3_EELb1EEENS_21__unordered_map_equalIS3_S8_SD_SB_Lb1EEENS5_IS8_EEE25__emplace_unique_key_argsIS3_JRKNS_21piecewise_construct_tENS_5tupleIJRKS3_EEENSN_IJEEEEEENS_4pairINS_15__hash_iteratorIPNS_11__hash_nodeIS8_PvEEEEbEERKT_DpOT0_, symObjAddr: 0x5FA0, symBinAddr: 0x10BD0, symSize: 0x4D0 }
  - { offset: 0x9FEE6, size: 0x8, addend: 0x0, symName: __ZNKSt3__16vectorIaNS_9allocatorIaEEE20__throw_length_errorB8ne190102Ev, symObjAddr: 0x5F00, symBinAddr: 0x10BB0, symSize: 0x10 }
  - { offset: 0x9FF20, size: 0x8, addend: 0x0, symName: __ZN12llama_ubatchD1Ev, symObjAddr: 0x33D0, symBinAddr: 0xE150, symSize: 0x40 }
  - { offset: 0x9FFEE, size: 0x8, addend: 0x0, symName: __ZNSt3__118basic_stringstreamIcNS_11char_traitsIcEENS_9allocatorIcEEED1Ev, symObjAddr: 0x3350, symBinAddr: 0xE0D0, symSize: 0x80 }
  - { offset: 0xA0633, size: 0x8, addend: 0x0, symName: __ZNK18llama_batch_allocr11seq_pos_minEi, symObjAddr: 0x32B0, symBinAddr: 0xE030, symSize: 0x30 }
  - { offset: 0xA06D0, size: 0x8, addend: 0x0, symName: __ZNK18llama_batch_allocr11seq_pos_maxEi, symObjAddr: 0x32E0, symBinAddr: 0xE060, symSize: 0x70 }
  - { offset: 0xA083C, size: 0x8, addend: 0x0, symName: __ZN18llama_batch_allocr11split_resetEv, symObjAddr: 0x3410, symBinAddr: 0xE190, symSize: 0x40 }
  - { offset: 0xA0D8B, size: 0x8, addend: 0x0, symName: __ZN18llama_batch_allocr14ubatch_reserveEjj, symObjAddr: 0x3450, symBinAddr: 0xE1D0, symSize: 0x510 }
  - { offset: 0xA1F48, size: 0x8, addend: 0x0, symName: __ZNSt3__110shared_ptrIN12llama_ubatch6data_tEED1B8ne190102Ev, symObjAddr: 0x3960, symBinAddr: 0xE6E0, symSize: 0x40 }
  - { offset: 0xA1FDF, size: 0x8, addend: 0x0, symName: __ZNK18llama_batch_allocr9get_batchEv, symObjAddr: 0x39A0, symBinAddr: 0xE720, symSize: 0x10 }
  - { offset: 0xA2009, size: 0x8, addend: 0x0, symName: __ZNK18llama_batch_allocr12get_n_tokensEv, symObjAddr: 0x39B0, symBinAddr: 0xE730, symSize: 0x10 }
  - { offset: 0xA2029, size: 0x8, addend: 0x0, symName: __ZNK18llama_batch_allocr13get_n_outputsEv, symObjAddr: 0x39C0, symBinAddr: 0xE740, symSize: 0x10 }
  - { offset: 0xA2051, size: 0x8, addend: 0x0, symName: __ZNK18llama_batch_allocr10get_n_usedEv, symObjAddr: 0x39D0, symBinAddr: 0xE750, symSize: 0x10 }
  - { offset: 0xA2079, size: 0x8, addend: 0x0, symName: __ZN18llama_batch_allocr11get_out_idsEv, symObjAddr: 0x39E0, symBinAddr: 0xE760, symSize: 0x10 }
  - { offset: 0xA20A1, size: 0x8, addend: 0x0, symName: __ZN18llama_batch_allocr12split_simpleEj, symObjAddr: 0x39F0, symBinAddr: 0xE770, symSize: 0x290 }
  - { offset: 0xA285D, size: 0x8, addend: 0x0, symName: __ZN18llama_batch_allocr10ubatch_addERKNSt3__16vectorIiNS0_9allocatorIiEEEEjb, symObjAddr: 0x3C80, symBinAddr: 0xEA00, symSize: 0x990 }
  - { offset: 0xA4153, size: 0x8, addend: 0x0, symName: __ZNSt3__16vectorIfNS_9allocatorIfEEE8__appendEm, symObjAddr: 0x6E10, symBinAddr: 0x11A40, symSize: 0x150 }
  - { offset: 0xA4ADE, size: 0x8, addend: 0x0, symName: __ZN18llama_batch_allocr11split_equalEjb, symObjAddr: 0x4610, symBinAddr: 0xF390, symSize: 0x860 }
  - { offset: 0xA66A9, size: 0x8, addend: 0x0, symName: __ZNSt3__16vectorIiNS_9allocatorIiEEE18__insert_with_sizeB8ne190102INS_11__wrap_iterIPiEES7_EES7_NS5_IPKiEET_T0_l, symObjAddr: 0x6B40, symBinAddr: 0x11770, symSize: 0x2D0 }
  - { offset: 0xA70C6, size: 0x8, addend: 0x0, symName: __ZNSt3__128__exception_guard_exceptionsINS_6vectorINS1_IiNS_9allocatorIiEEEENS2_IS4_EEE16__destroy_vectorEED1B8ne190102Ev, symObjAddr: 0x6AD0, symBinAddr: 0x11700, symSize: 0x70 }
  - { offset: 0xA7367, size: 0x8, addend: 0x0, symName: __ZNSt3__16vectorINS0_IiNS_9allocatorIiEEEENS1_IS3_EEED1B8ne190102Ev, symObjAddr: 0x4E70, symBinAddr: 0xFBF0, symSize: 0x70 }
  - { offset: 0xA7650, size: 0x8, addend: 0x0, symName: __ZN18llama_batch_allocr9split_seqEj, symObjAddr: 0x4EE0, symBinAddr: 0xFC60, symSize: 0x2B0 }
  - { offset: 0xA7FD4, size: 0x8, addend: 0x0, symName: _llama_batch_get_one, symObjAddr: 0x5190, symBinAddr: 0xFF10, symSize: 0x30 }
  - { offset: 0xA800E, size: 0x8, addend: 0x0, symName: _llama_batch_init, symObjAddr: 0x51C0, symBinAddr: 0xFF40, symSize: 0xE0 }
  - { offset: 0xA8113, size: 0x8, addend: 0x0, symName: _llama_batch_free, symObjAddr: 0x52A0, symBinAddr: 0x10020, symSize: 0xA0 }
  - { offset: 0xA878F, size: 0x8, addend: 0x0, symName: __ZNKSt3__16vectorINS_3setIiNS_4lessIiEENS_9allocatorIiEEEENS4_IS6_EEE20__throw_length_errorB8ne190102Ev, symObjAddr: 0x55B0, symBinAddr: 0x10320, symSize: 0x10 }
  - { offset: 0xA8BA3, size: 0x8, addend: 0x0, symName: __ZNKSt3__16vectorINS0_IbNS_9allocatorIbEEEENS1_IS3_EEE20__throw_length_errorB8ne190102Ev, symObjAddr: 0x58F0, symBinAddr: 0x105A0, symSize: 0x10 }
  - { offset: 0xA8BCD, size: 0x8, addend: 0x0, symName: __ZNSt3__16vectorIbNS_9allocatorIbEEE7reserveEm, symObjAddr: 0x5900, symBinAddr: 0x105B0, symSize: 0x130 }
  - { offset: 0xA91B9, size: 0x8, addend: 0x0, symName: __ZNKSt3__16vectorIPiNS_9allocatorIS1_EEE20__throw_length_errorB8ne190102Ev, symObjAddr: 0x5EF0, symBinAddr: 0x10BA0, symSize: 0x10 }
  - { offset: 0xA91E3, size: 0x8, addend: 0x0, symName: __ZNKSt3__16vectorIaNS_9allocatorIaEEE20__throw_length_errorB8ne190102Ev, symObjAddr: 0x5F00, symBinAddr: 0x10BB0, symSize: 0x10 }
  - { offset: 0xA985E, size: 0x8, addend: 0x0, symName: __ZNSt3__112__hash_tableINS_17__hash_value_typeINS_6bitsetILm64EEENS_6vectorIiNS_9allocatorIiEEEEEENS_22__unordered_map_hasherIS3_S8_NS_4hashIS3_EENS_8equal_toIS3_EELb1EEENS_21__unordered_map_equalIS3_S8_SD_SB_Lb1EEENS5_IS8_EEE11__do_rehashILb1EEEvm, symObjAddr: 0x64C0, symBinAddr: 0x110F0, symSize: 0x230 }
  - { offset: 0xA9CD0, size: 0x8, addend: 0x0, symName: __ZNSt3__110unique_ptrINS_11__hash_nodeINS_17__hash_value_typeINS_6bitsetILm64EEENS_6vectorIiNS_9allocatorIiEEEEEEPvEENS_22__hash_node_destructorINS6_ISB_EEEEED1B8ne190102Ev, symObjAddr: 0x6470, symBinAddr: 0x110A0, symSize: 0x50 }
  - { offset: 0xAA565, size: 0x8, addend: 0x0, symName: __ZNSt3__120__shared_ptr_emplaceIN12llama_ubatch6data_tENS_9allocatorIS2_EEED1Ev, symObjAddr: 0x69A0, symBinAddr: 0x115D0, symSize: 0x20 }
  - { offset: 0xAA5BD, size: 0x8, addend: 0x0, symName: __ZNSt3__120__shared_ptr_emplaceIN12llama_ubatch6data_tENS_9allocatorIS2_EEED0Ev, symObjAddr: 0x69C0, symBinAddr: 0x115F0, symSize: 0x30 }
  - { offset: 0xAA6CB, size: 0x8, addend: 0x0, symName: __ZNSt3__120__shared_ptr_emplaceIN12llama_ubatch6data_tENS_9allocatorIS2_EEE16__on_zero_sharedEv, symObjAddr: 0x69F0, symBinAddr: 0x11620, symSize: 0x10 }
  - { offset: 0xAA792, size: 0x8, addend: 0x0, symName: __ZN12llama_ubatch6data_tD2Ev, symObjAddr: 0x6A10, symBinAddr: 0x11640, symSize: 0xC0 }
  - { offset: 0xAB243, size: 0x8, addend: 0x0, symName: __ZNSt3__120__shared_ptr_emplaceIN12llama_ubatch6data_tENS_9allocatorIS2_EEE21__on_zero_shared_weakEv, symObjAddr: 0x6A00, symBinAddr: 0x11630, symSize: 0x10 }
  - { offset: 0xAB992, size: 0x8, addend: 0x0, symName: __ZNKSt3__16vectorIfNS_9allocatorIfEEE20__throw_length_errorB8ne190102Ev, symObjAddr: 0x6F60, symBinAddr: 0x11B90, symSize: 0x10 }
  - { offset: 0xAD8A1, size: 0x8, addend: 0x0, symName: __ZL18LLM_CHAT_TEMPLATES, symObjAddr: 0x856B8, symBinAddr: 0x309360, symSize: 0x0 }
  - { offset: 0xB5DE1, size: 0x8, addend: 0x0, symName: __ZNSt3__1eqB8ne190102IcNS_11char_traitsIcEENS_9allocatorIcEEEEbRKNS_12basic_stringIT_T0_T1_EEPKS6_, symObjAddr: 0x5040, symBinAddr: 0x16A10, symSize: 0x70 }
  - { offset: 0xB5FBD, size: 0x8, addend: 0x0, symName: __ZNSt3__1lsB8ne190102IcNS_11char_traitsIcEENS_9allocatorIcEEEERNS_13basic_ostreamIT_T0_EES9_RKNS_12basic_stringIS6_S7_T1_EE, symObjAddr: 0x50B0, symBinAddr: 0x16A80, symSize: 0x30 }
  - { offset: 0xB80A5, size: 0x8, addend: 0x0, symName: __ZNSt3__13mapINS_12basic_stringIcNS_11char_traitsIcEENS_9allocatorIcEEEE17llm_chat_templateNS_4lessIS6_EENS4_INS_4pairIKS6_S7_EEEEED1B8ne190102Ev, symObjAddr: 0x0, symBinAddr: 0x11BA0, symSize: 0x10 }
  - { offset: 0xB8158, size: 0x8, addend: 0x0, symName: __ZNSt3__16__treeINS_12__value_typeINS_12basic_stringIcNS_11char_traitsIcEENS_9allocatorIcEEEE17llm_chat_templateEENS_19__map_value_compareIS7_S9_NS_4lessIS7_EELb1EEENS5_IS9_EEE7destroyEPNS_11__tree_nodeIS9_PvEE, symObjAddr: 0x5C00, symBinAddr: 0x172A0, symSize: 0x50 }
  - { offset: 0xB842F, size: 0x8, addend: 0x0, symName: __Z26llm_chat_template_from_strRKNSt3__112basic_stringIcNS_11char_traitsIcEENS_9allocatorIcEEEE, symObjAddr: 0x10, symBinAddr: 0x11BB0, symSize: 0x20 }
  - { offset: 0xB8462, size: 0x8, addend: 0x0, symName: __ZNKSt3__13mapINS_12basic_stringIcNS_11char_traitsIcEENS_9allocatorIcEEEE17llm_chat_templateNS_4lessIS6_EENS4_INS_4pairIKS6_S7_EEEEE2atERSB_, symObjAddr: 0x30, symBinAddr: 0x11BD0, symSize: 0x110 }
  - { offset: 0xB8A17, size: 0x8, addend: 0x0, symName: __Z24llm_chat_detect_templateRKNSt3__112basic_stringIcNS_11char_traitsIcEENS_9allocatorIcEEEE, symObjAddr: 0x140, symBinAddr: 0x11CE0, symSize: 0x6A0 }
  - { offset: 0xB9006, size: 0x8, addend: 0x0, symName: '__ZZ24llm_chat_detect_templateRKNSt3__112basic_stringIcNS_11char_traitsIcEENS_9allocatorIcEEEEENK3$_0clEPKc', symObjAddr: 0x7E0, symBinAddr: 0x12380, symSize: 0xD0 }
  - { offset: 0xB92B7, size: 0x8, addend: 0x0, symName: __ZNKSt3__112basic_stringIcNS_11char_traitsIcEENS_9allocatorIcEEE4findB8ne190102EPKcm, symObjAddr: 0x8B0, symBinAddr: 0x12450, symSize: 0xE0 }
  - { offset: 0xB9D8E, size: 0x8, addend: 0x0, symName: __Z23llm_chat_apply_template17llm_chat_templateRKNSt3__16vectorIPK18llama_chat_messageNS0_9allocatorIS4_EEEERNS0_12basic_stringIcNS0_11char_traitsIcEENS5_IcEEEEb, symObjAddr: 0x990, symBinAddr: 0x12530, symSize: 0x44E0 }
  - { offset: 0xC94B2, size: 0x8, addend: 0x0, symName: __ZL4trimRKNSt3__112basic_stringIcNS_11char_traitsIcEENS_9allocatorIcEEEE, symObjAddr: 0x50E0, symBinAddr: 0x16AB0, symSize: 0x1C0 }
  - { offset: 0xCA20B, size: 0x8, addend: 0x0, symName: _llama_chat_builtin_templates, symObjAddr: 0x5320, symBinAddr: 0x16C70, symSize: 0xA0 }
  - { offset: 0xCA7B5, size: 0x8, addend: 0x0, symName: __ZNSt3__16__treeINS_12__value_typeINS_12basic_stringIcNS_11char_traitsIcEENS_9allocatorIcEEEE17llm_chat_templateEENS_19__map_value_compareIS7_S9_NS_4lessIS7_EELb1EEENS5_IS9_EEE30__emplace_hint_unique_key_argsIS7_JRKNS_4pairIKS7_S8_EEEEENSH_INS_15__tree_iteratorIS9_PNS_11__tree_nodeIS9_PvEElEEbEENS_21__tree_const_iteratorIS9_SQ_lEERKT_DpOT0_, symObjAddr: 0x54F0, symBinAddr: 0x16D10, symSize: 0xF0 }
  - { offset: 0xCABCA, size: 0x8, addend: 0x0, symName: __ZNSt3__16__treeINS_12__value_typeINS_12basic_stringIcNS_11char_traitsIcEENS_9allocatorIcEEEE17llm_chat_templateEENS_19__map_value_compareIS7_S9_NS_4lessIS7_EELb1EEENS5_IS9_EEE12__find_equalIS7_EERPNS_16__tree_node_baseIPvEENS_21__tree_const_iteratorIS9_PNS_11__tree_nodeIS9_SI_EElEERPNS_15__tree_end_nodeISK_EESL_RKT_, symObjAddr: 0x55E0, symBinAddr: 0x16E00, symSize: 0x450 }
  - { offset: 0xCB8CC, size: 0x8, addend: 0x0, symName: __ZNSt3__110unique_ptrINS_11__tree_nodeINS_12__value_typeINS_12basic_stringIcNS_11char_traitsIcEENS_9allocatorIcEEEE17llm_chat_templateEEPvEENS_22__tree_node_destructorINS6_ISC_EEEEED1B8ne190102Ev, symObjAddr: 0x5A30, symBinAddr: 0x17250, symSize: 0x50 }
  - { offset: 0xCCA7D, size: 0x8, addend: 0x0, symName: __GLOBAL__sub_I_llama_chat.cpp, symObjAddr: 0x65C0, symBinAddr: 0x172F0, symSize: 0xCB0 }
  - { offset: 0xCF9BD, size: 0x8, addend: 0x0, symName: __GLOBAL__sub_I_llama_chat.cpp.cold.1, symObjAddr: 0x7270, symBinAddr: 0x2312F0, symSize: 0x2B }
  - { offset: 0xFD8D6, size: 0x8, addend: 0x0, symName: __ZNK13llama_context12graph_get_cbEv, symObjAddr: 0x65A0, symBinAddr: 0x1E4C0, symSize: 0x20 }
  - { offset: 0xFFC4A, size: 0x8, addend: 0x0, symName: __ZN13llama_contextC2ERK11llama_model20llama_context_params, symObjAddr: 0x0, symBinAddr: 0x17FA0, symSize: 0x1B50 }
  - { offset: 0x103E87, size: 0x8, addend: 0x0, symName: __ZN13llama_context14output_reserveEi, symObjAddr: 0x1C00, symBinAddr: 0x19BA0, symSize: 0x220 }
  - { offset: 0x10435C, size: 0x8, addend: 0x0, symName: __ZN13llama_context13graph_reserveEjjjPK22llama_memory_context_i, symObjAddr: 0x1E40, symBinAddr: 0x19DE0, symSize: 0x3C0 }
  - { offset: 0x104BAF, size: 0x8, addend: 0x0, symName: __ZNKSt3__16vectorINS_10unique_ptrI12ggml_backend20ggml_backend_deleterEENS_9allocatorIS4_EEE20__throw_length_errorB8ne190102Ev, symObjAddr: 0xAA60, symBinAddr: 0x22870, symSize: 0x10 }
  - { offset: 0x104BD9, size: 0x8, addend: 0x0, symName: __ZNKSt3__16vectorINS_4pairIP12ggml_backendPFvS3_iEEENS_9allocatorIS6_EEE20__throw_length_errorB8ne190102Ev, symObjAddr: 0xAA70, symBinAddr: 0x22880, symSize: 0x10 }
  - { offset: 0x104BFC, size: 0x8, addend: 0x0, symName: __ZNKSt3__16vectorIP12ggml_backendNS_9allocatorIS2_EEE20__throw_length_errorB8ne190102Ev, symObjAddr: 0xAA90, symBinAddr: 0x22890, symSize: 0x10 }
  - { offset: 0x104C07, size: 0x8, addend: 0x0, symName: __ZNKSt3__16vectorIP12ggml_backendNS_9allocatorIS2_EEE20__throw_length_errorB8ne190102Ev, symObjAddr: 0xAA90, symBinAddr: 0x22890, symSize: 0x10 }
  - { offset: 0x104C31, size: 0x8, addend: 0x0, symName: __ZNSt3__112__hash_tableINS_17__hash_value_typeIP18llama_adapter_lorafEENS_22__unordered_map_hasherIS3_S4_NS_4hashIS3_EENS_8equal_toIS3_EELb1EEENS_21__unordered_map_equalIS3_S4_S9_S7_Lb1EEENS_9allocatorIS4_EEE25__emplace_unique_key_argsIS3_JRKNS_21piecewise_construct_tENS_5tupleIJRKS3_EEENSK_IJEEEEEENS_4pairINS_15__hash_iteratorIPNS_11__hash_nodeIS4_PvEEEEbEERKT_DpOT0_, symObjAddr: 0xAAA0, symBinAddr: 0x228A0, symSize: 0x460 }
  - { offset: 0x104C3C, size: 0x8, addend: 0x0, symName: __ZNKSt3__16vectorINS_4pairIP12ggml_backendPFvS3_iEEENS_9allocatorIS6_EEE20__throw_length_errorB8ne190102Ev, symObjAddr: 0xAA70, symBinAddr: 0x22880, symSize: 0x10 }
  - { offset: 0x104CCF, size: 0x8, addend: 0x0, symName: __ZNSt3__16vectorINS_10unique_ptrI12ggml_backend20ggml_backend_deleterEENS_9allocatorIS4_EEED1B8ne190102Ev, symObjAddr: 0x2230, symBinAddr: 0x1A1A0, symSize: 0x80 }
  - { offset: 0x104E8A, size: 0x8, addend: 0x0, symName: __ZNSt3__110unique_ptrI18ggml_backend_sched26ggml_backend_sched_deleterED1B8ne190102Ev, symObjAddr: 0x22B0, symBinAddr: 0x1A220, symSize: 0x30 }
  - { offset: 0x104F17, size: 0x8, addend: 0x0, symName: __ZNSt3__110unique_ptrI18llama_batch_allocrNS_14default_deleteIS1_EEED1B8ne190102Ev, symObjAddr: 0x22E0, symBinAddr: 0x1A250, symSize: 0x40 }
  - { offset: 0x104FD6, size: 0x8, addend: 0x0, symName: __ZNSt3__16__treeINS_12__value_typeIiNS_6vectorIfNS_9allocatorIfEEEEEENS_19__map_value_compareIiS6_NS_4lessIiEELb1EEENS3_IS6_EEE7destroyEPNS_11__tree_nodeIS6_PvEE, symObjAddr: 0xAA10, symBinAddr: 0x22820, symSize: 0x50 }
  - { offset: 0x1052D3, size: 0x8, addend: 0x0, symName: __ZN11llama_crossD1Ev, symObjAddr: 0x2320, symBinAddr: 0x1A290, symSize: 0x80 }
  - { offset: 0x105630, size: 0x8, addend: 0x0, symName: __ZNSt3__113unordered_mapIP18llama_adapter_lorafNS_4hashIS2_EENS_8equal_toIS2_EENS_9allocatorINS_4pairIKS2_fEEEEED1B8ne190102Ev, symObjAddr: 0x23A0, symBinAddr: 0x1A310, symSize: 0x50 }
  - { offset: 0x1058F5, size: 0x8, addend: 0x0, symName: __ZN18llama_adapter_cvecD2Ev, symObjAddr: 0xA100, symBinAddr: 0x21FE0, symSize: 0xF0 }
  - { offset: 0x105DC5, size: 0x8, addend: 0x0, symName: _llama_set_abort_callback, symObjAddr: 0x1B50, symBinAddr: 0x19AF0, symSize: 0xB0 }
  - { offset: 0x106377, size: 0x8, addend: 0x0, symName: __ZNK13llama_context15graph_max_nodesEv, symObjAddr: 0x1E20, symBinAddr: 0x19DC0, symSize: 0x20 }
  - { offset: 0x1069A4, size: 0x8, addend: 0x0, symName: __ZN18llama_batch_allocrD2Ev, symObjAddr: 0xA1F0, symBinAddr: 0x220D0, symSize: 0x1F0 }
  - { offset: 0x107DCD, size: 0x8, addend: 0x0, symName: __ZN16llm_graph_paramsD1Ev, symObjAddr: 0x46B0, symBinAddr: 0x1C610, symSize: 0x80 }
  - { offset: 0x1086F1, size: 0x8, addend: 0x0, symName: __ZN13llama_contextC1ERK11llama_model20llama_context_params, symObjAddr: 0x23F0, symBinAddr: 0x1A360, symSize: 0x10 }
  - { offset: 0x1087DB, size: 0x8, addend: 0x0, symName: __ZN13llama_contextD2Ev, symObjAddr: 0x2400, symBinAddr: 0x1A370, symSize: 0x2A0 }
  - { offset: 0x109B52, size: 0x8, addend: 0x0, symName: __ZN13llama_contextD1Ev, symObjAddr: 0x26B0, symBinAddr: 0x1A610, symSize: 0x10 }
  - { offset: 0x109B88, size: 0x8, addend: 0x0, symName: __ZN13llama_context11synchronizeEv, symObjAddr: 0x26C0, symBinAddr: 0x1A620, symSize: 0xC0 }
  - { offset: 0x109C25, size: 0x8, addend: 0x0, symName: __ZNK13llama_context9get_modelEv, symObjAddr: 0x2780, symBinAddr: 0x1A6E0, symSize: 0x10 }
  - { offset: 0x109C45, size: 0x8, addend: 0x0, symName: __ZNK13llama_context11get_cparamsEv, symObjAddr: 0x2790, symBinAddr: 0x1A6F0, symSize: 0x10 }
  - { offset: 0x109C6D, size: 0x8, addend: 0x0, symName: __ZNK13llama_context9get_schedEv, symObjAddr: 0x27A0, symBinAddr: 0x1A700, symSize: 0x10 }
  - { offset: 0x109CB5, size: 0x8, addend: 0x0, symName: __ZNK13llama_context5n_ctxEv, symObjAddr: 0x27B0, symBinAddr: 0x1A710, symSize: 0x10 }
  - { offset: 0x109CD5, size: 0x8, addend: 0x0, symName: __ZNK13llama_context13n_ctx_per_seqEv, symObjAddr: 0x27C0, symBinAddr: 0x1A720, symSize: 0x10 }
  - { offset: 0x109CFD, size: 0x8, addend: 0x0, symName: __ZNK13llama_context7n_batchEv, symObjAddr: 0x27D0, symBinAddr: 0x1A730, symSize: 0x10 }
  - { offset: 0x109D1D, size: 0x8, addend: 0x0, symName: __ZNK13llama_context8n_ubatchEv, symObjAddr: 0x27E0, symBinAddr: 0x1A740, symSize: 0x10 }
  - { offset: 0x109D3D, size: 0x8, addend: 0x0, symName: __ZNK13llama_context9n_seq_maxEv, symObjAddr: 0x27F0, symBinAddr: 0x1A750, symSize: 0x10 }
  - { offset: 0x109D5D, size: 0x8, addend: 0x0, symName: __ZNK13llama_context9n_threadsEv, symObjAddr: 0x2800, symBinAddr: 0x1A760, symSize: 0x10 }
  - { offset: 0x109D7D, size: 0x8, addend: 0x0, symName: __ZNK13llama_context15n_threads_batchEv, symObjAddr: 0x2810, symBinAddr: 0x1A770, symSize: 0x10 }
  - { offset: 0x109DB3, size: 0x8, addend: 0x0, symName: __ZNK13llama_context10get_memoryEv, symObjAddr: 0x2820, symBinAddr: 0x1A780, symSize: 0x10 }
  - { offset: 0x109DF3, size: 0x8, addend: 0x0, symName: __ZN13llama_context20kv_self_defrag_schedEv, symObjAddr: 0x2830, symBinAddr: 0x1A790, symSize: 0x20 }
  - { offset: 0x109E49, size: 0x8, addend: 0x0, symName: __ZN13llama_context14kv_self_updateEb, symObjAddr: 0x2850, symBinAddr: 0x1A7B0, symSize: 0x1C0 }
  - { offset: 0x10A24C, size: 0x8, addend: 0x0, symName: __ZNK13llama_context12pooling_typeEv, symObjAddr: 0x2A10, symBinAddr: 0x1A970, symSize: 0x10 }
  - { offset: 0x10A26C, size: 0x8, addend: 0x0, symName: __ZN13llama_context10get_logitsEv, symObjAddr: 0x2A20, symBinAddr: 0x1A980, symSize: 0x20 }
  - { offset: 0x10A2A3, size: 0x8, addend: 0x0, symName: __ZN13llama_context14output_reorderEv, symObjAddr: 0x2A40, symBinAddr: 0x1A9A0, symSize: 0xB90 }
  - { offset: 0x10A42B, size: 0x8, addend: 0x0, symName: __ZN13llama_context14get_logits_ithEi, symObjAddr: 0x35D0, symBinAddr: 0x1B530, symSize: 0x280 }
  - { offset: 0x10A5F8, size: 0x8, addend: 0x0, symName: __ZN13llama_context14get_embeddingsEv, symObjAddr: 0x3850, symBinAddr: 0x1B7B0, symSize: 0x20 }
  - { offset: 0x10A62F, size: 0x8, addend: 0x0, symName: __ZN13llama_context18get_embeddings_ithEi, symObjAddr: 0x3870, symBinAddr: 0x1B7D0, symSize: 0x280 }
  - { offset: 0x10A947, size: 0x8, addend: 0x0, symName: __ZN13llama_context18get_embeddings_seqEi, symObjAddr: 0x3AF0, symBinAddr: 0x1BA50, symSize: 0x50 }
  - { offset: 0x10A97B, size: 0x8, addend: 0x0, symName: __ZN13llama_context18get_embeddings_seqEi, symObjAddr: 0x3AF0, symBinAddr: 0x1BA50, symSize: 0x50 }
  - { offset: 0x10A999, size: 0x8, addend: 0x0, symName: __ZN13llama_context18get_embeddings_seqEi, symObjAddr: 0x3AF0, symBinAddr: 0x1BA50, symSize: 0x50 }
  - { offset: 0x10A9C0, size: 0x8, addend: 0x0, symName: __ZN13llama_context18get_embeddings_seqEi, symObjAddr: 0x3AF0, symBinAddr: 0x1BA50, symSize: 0x50 }
  - { offset: 0x10AAD5, size: 0x8, addend: 0x0, symName: __ZN13llama_context17attach_threadpoolEP15ggml_threadpoolS1_, symObjAddr: 0x3B40, symBinAddr: 0x1BAA0, symSize: 0x50 }
  - { offset: 0x10AB1C, size: 0x8, addend: 0x0, symName: __ZN13llama_context17detach_threadpoolEv, symObjAddr: 0x3B90, symBinAddr: 0x1BAF0, symSize: 0x40 }
  - { offset: 0x10AB51, size: 0x8, addend: 0x0, symName: __ZN13llama_context13set_n_threadsEii, symObjAddr: 0x3BD0, symBinAddr: 0x1BB30, symSize: 0x50 }
  - { offset: 0x10ABA4, size: 0x8, addend: 0x0, symName: __ZN13llama_context18set_abort_callbackEPFbPvES0_, symObjAddr: 0x3C20, symBinAddr: 0x1BB80, symSize: 0xB0 }
  - { offset: 0x10AD33, size: 0x8, addend: 0x0, symName: __ZN13llama_context14set_embeddingsEb, symObjAddr: 0x3CD0, symBinAddr: 0x1BC30, symSize: 0x40 }
  - { offset: 0x10AD77, size: 0x8, addend: 0x0, symName: __ZN13llama_context15set_causal_attnEb, symObjAddr: 0x3D10, symBinAddr: 0x1BC70, symSize: 0x40 }
  - { offset: 0x10ADBB, size: 0x8, addend: 0x0, symName: __ZN13llama_context10set_warmupEb, symObjAddr: 0x3D50, symBinAddr: 0x1BCB0, symSize: 0x40 }
  - { offset: 0x10AE23, size: 0x8, addend: 0x0, symName: __ZN13llama_context16set_adapter_loraEP18llama_adapter_loraf, symObjAddr: 0x3D90, symBinAddr: 0x1BCF0, symSize: 0x70 }
  - { offset: 0x10AECD, size: 0x8, addend: 0x0, symName: __ZNSt3__112__hash_tableINS_17__hash_value_typeIP18llama_adapter_lorafEENS_22__unordered_map_hasherIS3_S4_NS_4hashIS3_EENS_8equal_toIS3_EELb1EEENS_21__unordered_map_equalIS3_S4_S9_S7_Lb1EEENS_9allocatorIS4_EEE25__emplace_unique_key_argsIS3_JRKNS_21piecewise_construct_tENS_5tupleIJRKS3_EEENSK_IJEEEEEENS_4pairINS_15__hash_iteratorIPNS_11__hash_nodeIS4_PvEEEEbEERKT_DpOT0_, symObjAddr: 0xAAA0, symBinAddr: 0x228A0, symSize: 0x460 }
  - { offset: 0x10B869, size: 0x8, addend: 0x0, symName: __ZN13llama_context15rm_adapter_loraEP18llama_adapter_lora, symObjAddr: 0x3E00, symBinAddr: 0x1BD60, symSize: 0x80 }
  - { offset: 0x10BADE, size: 0x8, addend: 0x0, symName: __ZNSt3__112__hash_tableINS_17__hash_value_typeIP18llama_adapter_lorafEENS_22__unordered_map_hasherIS3_S4_NS_4hashIS3_EENS_8equal_toIS3_EELb1EEENS_21__unordered_map_equalIS3_S4_S9_S7_Lb1EEENS_9allocatorIS4_EEE4findIS3_EENS_15__hash_iteratorIPNS_11__hash_nodeIS4_PvEEEERKT_, symObjAddr: 0xB130, symBinAddr: 0x22F30, symSize: 0x180 }
  - { offset: 0x10BB35, size: 0x8, addend: 0x0, symName: __ZNSt3__112__hash_tableINS_17__hash_value_typeIP18llama_adapter_lorafEENS_22__unordered_map_hasherIS3_S4_NS_4hashIS3_EENS_8equal_toIS3_EELb1EEENS_21__unordered_map_equalIS3_S4_S9_S7_Lb1EEENS_9allocatorIS4_EEE4findIS3_EENS_15__hash_iteratorIPNS_11__hash_nodeIS4_PvEEEERKT_, symObjAddr: 0xB130, symBinAddr: 0x22F30, symSize: 0x180 }
  - { offset: 0x10BB51, size: 0x8, addend: 0x0, symName: __ZNSt3__112__hash_tableINS_17__hash_value_typeIP18llama_adapter_lorafEENS_22__unordered_map_hasherIS3_S4_NS_4hashIS3_EENS_8equal_toIS3_EELb1EEENS_21__unordered_map_equalIS3_S4_S9_S7_Lb1EEENS_9allocatorIS4_EEE4findIS3_EENS_15__hash_iteratorIPNS_11__hash_nodeIS4_PvEEEERKT_, symObjAddr: 0xB130, symBinAddr: 0x22F30, symSize: 0x180 }
  - { offset: 0x10BC47, size: 0x8, addend: 0x0, symName: __ZNSt3__112__hash_tableINS_17__hash_value_typeIP18llama_adapter_lorafEENS_22__unordered_map_hasherIS3_S4_NS_4hashIS3_EENS_8equal_toIS3_EELb1EEENS_21__unordered_map_equalIS3_S4_S9_S7_Lb1EEENS_9allocatorIS4_EEE6removeENS_21__hash_const_iteratorIPNS_11__hash_nodeIS4_PvEEEE, symObjAddr: 0xB2B0, symBinAddr: 0x230B0, symSize: 0x1F0 }
  - { offset: 0x10BF94, size: 0x8, addend: 0x0, symName: __ZN13llama_context18clear_adapter_loraEv, symObjAddr: 0x3E80, symBinAddr: 0x1BDE0, symSize: 0x100 }
  - { offset: 0x10C1C4, size: 0x8, addend: 0x0, symName: __ZN13llama_context18apply_adapter_cvecEPKfmiii, symObjAddr: 0x3F80, symBinAddr: 0x1BEE0, symSize: 0x80 }
  - { offset: 0x10C24F, size: 0x8, addend: 0x0, symName: __ZN13llama_context14process_ubatchERK12llama_ubatch14llm_graph_typeP22llama_memory_context_iR11ggml_status, symObjAddr: 0x4000, symBinAddr: 0x1BF60, symSize: 0x460 }
  - { offset: 0x10C919, size: 0x8, addend: 0x0, symName: __ZN13llama_context13graph_computeEP11ggml_cgraphb, symObjAddr: 0x45E0, symBinAddr: 0x1C540, symSize: 0xD0 }
  - { offset: 0x10CB21, size: 0x8, addend: 0x0, symName: __ZNK13llama_context12graph_paramsEP16llm_graph_resultRK12llama_ubatchPK22llama_memory_context_i14llm_graph_type, symObjAddr: 0x4460, symBinAddr: 0x1C3C0, symSize: 0x180 }
  - { offset: 0x10D6B5, size: 0x8, addend: 0x0, symName: __ZN13llama_context6encodeERK11llama_batch, symObjAddr: 0x4730, symBinAddr: 0x1C690, symSize: 0xB70 }
  - { offset: 0x10F848, size: 0x8, addend: 0x0, symName: __ZN13llama_context6decodeERK11llama_batch, symObjAddr: 0x52E0, symBinAddr: 0x1D200, symSize: 0x11A0 }
  - { offset: 0x111465, size: 0x8, addend: 0x0, symName: __ZNSt3__16vectorIN13llama_context9swap_infoENS_9allocatorIS2_EEE9push_backB8ne190102EOS2_, symObjAddr: 0x6480, symBinAddr: 0x1E3A0, symSize: 0x110 }
  - { offset: 0x111B20, size: 0x8, addend: 0x0, symName: __ZNKSt3__16vectorIN13llama_context9swap_infoENS_9allocatorIS2_EEE20__throw_length_errorB8ne190102Ev, symObjAddr: 0xB9B0, symBinAddr: 0x232A0, symSize: 0x10 }
  - { offset: 0x111B55, size: 0x8, addend: 0x0, symName: __ZNK13llama_context18get_gf_res_reserveEv, symObjAddr: 0x6590, symBinAddr: 0x1E4B0, symSize: 0x10 }
  - { offset: 0x111C93, size: 0x8, addend: 0x0, symName: __ZN13llama_context14state_get_sizeEv, symObjAddr: 0x65C0, symBinAddr: 0x1E4E0, symSize: 0x90 }
  - { offset: 0x111D55, size: 0x8, addend: 0x0, symName: __ZN13llama_context16state_write_dataER16llama_io_write_i, symObjAddr: 0x6650, symBinAddr: 0x1E570, symSize: 0x340 }
  - { offset: 0x112A47, size: 0x8, addend: 0x0, symName: __ZN20llama_io_write_dummyD1Ev, symObjAddr: 0x6990, symBinAddr: 0x1E8B0, symSize: 0x10 }
  - { offset: 0x112BBD, size: 0x8, addend: 0x0, symName: __ZN13llama_context14state_get_dataEPhm, symObjAddr: 0x69A0, symBinAddr: 0x1E8C0, symSize: 0xA0 }
  - { offset: 0x112CBB, size: 0x8, addend: 0x0, symName: __ZN21llama_io_write_bufferD1Ev, symObjAddr: 0x6A40, symBinAddr: 0x1E960, symSize: 0x10 }
  - { offset: 0x112E2B, size: 0x8, addend: 0x0, symName: __ZN13llama_context14state_set_dataEPKhm, symObjAddr: 0x6A50, symBinAddr: 0x1E970, symSize: 0xA0 }
  - { offset: 0x112F29, size: 0x8, addend: 0x0, symName: __ZN13llama_context15state_read_dataER15llama_io_read_i, symObjAddr: 0x6AF0, symBinAddr: 0x1EA10, symSize: 0x580 }
  - { offset: 0x1142B0, size: 0x8, addend: 0x0, symName: __ZN20llama_io_read_bufferD1Ev, symObjAddr: 0x7070, symBinAddr: 0x1EF90, symSize: 0x10 }
  - { offset: 0x11430D, size: 0x8, addend: 0x0, symName: __ZN13llama_context18state_seq_get_sizeEi, symObjAddr: 0x7080, symBinAddr: 0x1EFA0, symSize: 0xB0 }
  - { offset: 0x114431, size: 0x8, addend: 0x0, symName: __ZN13llama_context20state_seq_write_dataER16llama_io_write_ii, symObjAddr: 0x7130, symBinAddr: 0x1F050, symSize: 0x30 }
  - { offset: 0x1144A3, size: 0x8, addend: 0x0, symName: __ZN13llama_context18state_seq_get_dataEiPhm, symObjAddr: 0x7160, symBinAddr: 0x1F080, symSize: 0xB0 }
  - { offset: 0x114634, size: 0x8, addend: 0x0, symName: __ZN13llama_context18state_seq_set_dataEiPKhm, symObjAddr: 0x7210, symBinAddr: 0x1F130, symSize: 0xB0 }
  - { offset: 0x114794, size: 0x8, addend: 0x0, symName: __ZN13llama_context19state_seq_read_dataER15llama_io_read_ii, symObjAddr: 0x72C0, symBinAddr: 0x1F1E0, symSize: 0x30 }
  - { offset: 0x114B9F, size: 0x8, addend: 0x0, symName: __ZN13llama_context15state_load_fileEPKcPimPm, symObjAddr: 0x72F0, symBinAddr: 0x1F210, symSize: 0x1B0 }
  - { offset: 0x11509B, size: 0x8, addend: 0x0, symName: __ZN18llama_io_read_fileD1Ev, symObjAddr: 0x74A0, symBinAddr: 0x1F3C0, symSize: 0x30 }
  - { offset: 0x115373, size: 0x8, addend: 0x0, symName: __ZN13llama_context15state_save_fileEPKcPKim, symObjAddr: 0x74D0, symBinAddr: 0x1F3F0, symSize: 0x100 }
  - { offset: 0x1157A9, size: 0x8, addend: 0x0, symName: __ZN19llama_io_write_fileD1Ev, symObjAddr: 0x75D0, symBinAddr: 0x1F4F0, symSize: 0x30 }
  - { offset: 0x11591A, size: 0x8, addend: 0x0, symName: __ZN13llama_context19state_seq_load_fileEiPKcPimPm, symObjAddr: 0x7600, symBinAddr: 0x1F520, symSize: 0x250 }
  - { offset: 0x115E9C, size: 0x8, addend: 0x0, symName: __ZN13llama_context19state_seq_save_fileEiPKcPKim, symObjAddr: 0x7850, symBinAddr: 0x1F770, symSize: 0x170 }
  - { offset: 0x116388, size: 0x8, addend: 0x0, symName: __ZN19llama_io_write_file7n_bytesEv, symObjAddr: 0x79C0, symBinAddr: 0x1F8E0, symSize: 0x10 }
  - { offset: 0x1163A8, size: 0x8, addend: 0x0, symName: __ZNK13llama_context13perf_get_dataEv, symObjAddr: 0x79D0, symBinAddr: 0x1F8F0, symSize: 0x90 }
  - { offset: 0x11646F, size: 0x8, addend: 0x0, symName: __ZN13llama_context10perf_resetEv, symObjAddr: 0x7A60, symBinAddr: 0x1F980, symSize: 0x40 }
  - { offset: 0x116559, size: 0x8, addend: 0x0, symName: __ZN13llama_context8opt_initEP11llama_model16llama_opt_params, symObjAddr: 0x7AA0, symBinAddr: 0x1F9C0, symSize: 0x650 }
  - { offset: 0x116FF0, size: 0x8, addend: 0x0, symName: __ZN13llama_context14opt_epoch_iterEP16ggml_opt_datasetP15ggml_opt_resultRKNSt3__16vectorIiNS4_9allocatorIiEEEESA_R11llama_batchPFvbP16ggml_opt_contextS1_S3_xxxEbxxx, symObjAddr: 0x80F0, symBinAddr: 0x20010, symSize: 0x8D0 }
  - { offset: 0x117FFB, size: 0x8, addend: 0x0, symName: __ZN13llama_context9opt_epochEP16ggml_opt_datasetP15ggml_opt_resultS3_xPFvbP16ggml_opt_contextS1_S3_xxxES7_, symObjAddr: 0x89C0, symBinAddr: 0x208E0, symSize: 0x3A0 }
  - { offset: 0x118CB3, size: 0x8, addend: 0x0, symName: _llama_context_default_params, symObjAddr: 0x8D60, symBinAddr: 0x20C80, symSize: 0x60 }
  - { offset: 0x118D11, size: 0x8, addend: 0x0, symName: _llama_init_from_model, symObjAddr: 0x8DC0, symBinAddr: 0x20CE0, symSize: 0x1B0 }
  - { offset: 0x118E21, size: 0x8, addend: 0x0, symName: _llama_new_context_with_model, symObjAddr: 0x8F70, symBinAddr: 0x20E90, symSize: 0x10 }
  - { offset: 0x118E8F, size: 0x8, addend: 0x0, symName: _llama_free, symObjAddr: 0x8F80, symBinAddr: 0x20EA0, symSize: 0x30 }
  - { offset: 0x118EE2, size: 0x8, addend: 0x0, symName: _llama_n_ctx, symObjAddr: 0x8FB0, symBinAddr: 0x20ED0, symSize: 0x10 }
  - { offset: 0x118F2A, size: 0x8, addend: 0x0, symName: _llama_n_batch, symObjAddr: 0x8FC0, symBinAddr: 0x20EE0, symSize: 0x10 }
  - { offset: 0x118F72, size: 0x8, addend: 0x0, symName: _llama_n_ubatch, symObjAddr: 0x8FD0, symBinAddr: 0x20EF0, symSize: 0x10 }
  - { offset: 0x118FBA, size: 0x8, addend: 0x0, symName: _llama_n_seq_max, symObjAddr: 0x8FE0, symBinAddr: 0x20F00, symSize: 0x10 }
  - { offset: 0x11901B, size: 0x8, addend: 0x0, symName: _llama_get_model, symObjAddr: 0x8FF0, symBinAddr: 0x20F10, symSize: 0x10 }
  - { offset: 0x11907C, size: 0x8, addend: 0x0, symName: _llama_get_kv_self, symObjAddr: 0x9000, symBinAddr: 0x20F20, symSize: 0x30 }
  - { offset: 0x1190E5, size: 0x8, addend: 0x0, symName: _llama_kv_self_update, symObjAddr: 0x9030, symBinAddr: 0x20F50, symSize: 0x10 }
  - { offset: 0x119140, size: 0x8, addend: 0x0, symName: _llama_pooling_type, symObjAddr: 0x9040, symBinAddr: 0x20F60, symSize: 0x10 }
  - { offset: 0x1191B9, size: 0x8, addend: 0x0, symName: _llama_attach_threadpool, symObjAddr: 0x9050, symBinAddr: 0x20F70, symSize: 0x50 }
  - { offset: 0x11925A, size: 0x8, addend: 0x0, symName: _llama_detach_threadpool, symObjAddr: 0x90A0, symBinAddr: 0x20FC0, symSize: 0x40 }
  - { offset: 0x1192E3, size: 0x8, addend: 0x0, symName: _llama_set_n_threads, symObjAddr: 0x90E0, symBinAddr: 0x21000, symSize: 0x50 }
  - { offset: 0x11938E, size: 0x8, addend: 0x0, symName: _llama_n_threads, symObjAddr: 0x9130, symBinAddr: 0x21050, symSize: 0x10 }
  - { offset: 0x1193EF, size: 0x8, addend: 0x0, symName: _llama_n_threads_batch, symObjAddr: 0x9140, symBinAddr: 0x21060, symSize: 0x10 }
  - { offset: 0x11945C, size: 0x8, addend: 0x0, symName: _llama_set_embeddings, symObjAddr: 0x9150, symBinAddr: 0x21070, symSize: 0x40 }
  - { offset: 0x1194FE, size: 0x8, addend: 0x0, symName: _llama_set_causal_attn, symObjAddr: 0x9190, symBinAddr: 0x210B0, symSize: 0x40 }
  - { offset: 0x1195A0, size: 0x8, addend: 0x0, symName: _llama_set_warmup, symObjAddr: 0x91D0, symBinAddr: 0x210F0, symSize: 0x40 }
  - { offset: 0x11961D, size: 0x8, addend: 0x0, symName: _llama_synchronize, symObjAddr: 0x9210, symBinAddr: 0x21130, symSize: 0x10 }
  - { offset: 0x119673, size: 0x8, addend: 0x0, symName: _llama_get_logits, symObjAddr: 0x9220, symBinAddr: 0x21140, symSize: 0x30 }
  - { offset: 0x1196E5, size: 0x8, addend: 0x0, symName: _llama_get_logits_ith, symObjAddr: 0x9250, symBinAddr: 0x21170, symSize: 0x20 }
  - { offset: 0x11975D, size: 0x8, addend: 0x0, symName: _llama_get_embeddings, symObjAddr: 0x9270, symBinAddr: 0x21190, symSize: 0x30 }
  - { offset: 0x1197CF, size: 0x8, addend: 0x0, symName: _llama_get_embeddings_ith, symObjAddr: 0x92A0, symBinAddr: 0x211C0, symSize: 0x20 }
  - { offset: 0x11985F, size: 0x8, addend: 0x0, symName: _llama_get_embeddings_seq, symObjAddr: 0x92C0, symBinAddr: 0x211E0, symSize: 0x60 }
  - { offset: 0x119A5D, size: 0x8, addend: 0x0, symName: _llama_set_adapter_lora, symObjAddr: 0x9320, symBinAddr: 0x21240, symSize: 0x70 }
  - { offset: 0x119B71, size: 0x8, addend: 0x0, symName: _llama_rm_adapter_lora, symObjAddr: 0x9390, symBinAddr: 0x212B0, symSize: 0x90 }
  - { offset: 0x119E5B, size: 0x8, addend: 0x0, symName: _llama_clear_adapter_lora, symObjAddr: 0x9420, symBinAddr: 0x21340, symSize: 0x100 }
  - { offset: 0x11A103, size: 0x8, addend: 0x0, symName: _llama_apply_adapter_cvec, symObjAddr: 0x9520, symBinAddr: 0x21440, symSize: 0x80 }
  - { offset: 0x11A1F8, size: 0x8, addend: 0x0, symName: _llama_get_memory, symObjAddr: 0x95A0, symBinAddr: 0x214C0, symSize: 0x10 }
  - { offset: 0x11A251, size: 0x8, addend: 0x0, symName: _llama_memory_clear, symObjAddr: 0x95B0, symBinAddr: 0x214D0, symSize: 0x20 }
  - { offset: 0x11A282, size: 0x8, addend: 0x0, symName: _llama_memory_seq_rm, symObjAddr: 0x95D0, symBinAddr: 0x214F0, symSize: 0x20 }
  - { offset: 0x11A2BF, size: 0x8, addend: 0x0, symName: _llama_memory_seq_cp, symObjAddr: 0x95F0, symBinAddr: 0x21510, symSize: 0x20 }
  - { offset: 0x11A303, size: 0x8, addend: 0x0, symName: _llama_memory_seq_keep, symObjAddr: 0x9610, symBinAddr: 0x21530, symSize: 0x20 }
  - { offset: 0x11A332, size: 0x8, addend: 0x0, symName: _llama_memory_seq_add, symObjAddr: 0x9630, symBinAddr: 0x21550, symSize: 0x20 }
  - { offset: 0x11A376, size: 0x8, addend: 0x0, symName: _llama_memory_seq_div, symObjAddr: 0x9650, symBinAddr: 0x21570, symSize: 0x20 }
  - { offset: 0x11A3BA, size: 0x8, addend: 0x0, symName: _llama_memory_seq_pos_min, symObjAddr: 0x9670, symBinAddr: 0x21590, symSize: 0x20 }
  - { offset: 0x11A3E9, size: 0x8, addend: 0x0, symName: _llama_memory_seq_pos_max, symObjAddr: 0x9690, symBinAddr: 0x215B0, symSize: 0x20 }
  - { offset: 0x11A418, size: 0x8, addend: 0x0, symName: _llama_memory_can_shift, symObjAddr: 0x96B0, symBinAddr: 0x215D0, symSize: 0x20 }
  - { offset: 0x11A45B, size: 0x8, addend: 0x0, symName: _llama_kv_self_n_tokens, symObjAddr: 0x96D0, symBinAddr: 0x215F0, symSize: 0x80 }
  - { offset: 0x11A581, size: 0x8, addend: 0x0, symName: _llama_kv_self_used_cells, symObjAddr: 0x9750, symBinAddr: 0x21670, symSize: 0x80 }
  - { offset: 0x11A6CA, size: 0x8, addend: 0x0, symName: _llama_kv_self_clear, symObjAddr: 0x97D0, symBinAddr: 0x216F0, symSize: 0x30 }
  - { offset: 0x11A7D2, size: 0x8, addend: 0x0, symName: _llama_kv_self_seq_rm, symObjAddr: 0x9800, symBinAddr: 0x21720, symSize: 0x20 }
  - { offset: 0x11A91A, size: 0x8, addend: 0x0, symName: _llama_kv_self_seq_cp, symObjAddr: 0x9820, symBinAddr: 0x21740, symSize: 0x20 }
  - { offset: 0x11AA50, size: 0x8, addend: 0x0, symName: _llama_kv_self_seq_keep, symObjAddr: 0x9840, symBinAddr: 0x21760, symSize: 0x20 }
  - { offset: 0x11AB68, size: 0x8, addend: 0x0, symName: _llama_kv_self_seq_add, symObjAddr: 0x9860, symBinAddr: 0x21780, symSize: 0x20 }
  - { offset: 0x11ACC2, size: 0x8, addend: 0x0, symName: _llama_kv_self_seq_div, symObjAddr: 0x9880, symBinAddr: 0x217A0, symSize: 0x20 }
  - { offset: 0x11ADFC, size: 0x8, addend: 0x0, symName: _llama_kv_self_seq_pos_min, symObjAddr: 0x98A0, symBinAddr: 0x217C0, symSize: 0x30 }
  - { offset: 0x11AEF8, size: 0x8, addend: 0x0, symName: _llama_kv_self_seq_pos_max, symObjAddr: 0x98D0, symBinAddr: 0x217F0, symSize: 0x30 }
  - { offset: 0x11AFE6, size: 0x8, addend: 0x0, symName: _llama_kv_self_defrag, symObjAddr: 0x9900, symBinAddr: 0x21820, symSize: 0x20 }
  - { offset: 0x11B065, size: 0x8, addend: 0x0, symName: _llama_kv_self_can_shift, symObjAddr: 0x9920, symBinAddr: 0x21840, symSize: 0x20 }
  - { offset: 0x11B13F, size: 0x8, addend: 0x0, symName: _llama_get_state_size, symObjAddr: 0x9940, symBinAddr: 0x21860, symSize: 0x10 }
  - { offset: 0x11B19D, size: 0x8, addend: 0x0, symName: _llama_state_get_size, symObjAddr: 0x9950, symBinAddr: 0x21870, symSize: 0x10 }
  - { offset: 0x11B202, size: 0x8, addend: 0x0, symName: _llama_copy_state_data, symObjAddr: 0x9960, symBinAddr: 0x21880, symSize: 0x30 }
  - { offset: 0x11B2A0, size: 0x8, addend: 0x0, symName: _llama_state_get_data, symObjAddr: 0x9990, symBinAddr: 0x218B0, symSize: 0x30 }
  - { offset: 0x11B326, size: 0x8, addend: 0x0, symName: _llama_set_state_data, symObjAddr: 0x99C0, symBinAddr: 0x218E0, symSize: 0x30 }
  - { offset: 0x11B3C4, size: 0x8, addend: 0x0, symName: _llama_state_set_data, symObjAddr: 0x99F0, symBinAddr: 0x21910, symSize: 0x30 }
  - { offset: 0x11B417, size: 0x8, addend: 0x0, symName: _llama_load_session_file, symObjAddr: 0x9A20, symBinAddr: 0x21940, symSize: 0x10 }
  - { offset: 0x11B4B0, size: 0x8, addend: 0x0, symName: _llama_state_load_file, symObjAddr: 0x9A30, symBinAddr: 0x21950, symSize: 0xA0 }
  - { offset: 0x11B58C, size: 0x8, addend: 0x0, symName: _llama_save_session_file, symObjAddr: 0x9AD0, symBinAddr: 0x219F0, symSize: 0x10 }
  - { offset: 0x11B60F, size: 0x8, addend: 0x0, symName: _llama_state_save_file, symObjAddr: 0x9AE0, symBinAddr: 0x21A00, symSize: 0xA0 }
  - { offset: 0x11B6D5, size: 0x8, addend: 0x0, symName: _llama_state_seq_get_size, symObjAddr: 0x9B80, symBinAddr: 0x21AA0, symSize: 0x10 }
  - { offset: 0x11B72C, size: 0x8, addend: 0x0, symName: _llama_state_seq_get_data, symObjAddr: 0x9B90, symBinAddr: 0x21AB0, symSize: 0x40 }
  - { offset: 0x11B7AB, size: 0x8, addend: 0x0, symName: _llama_state_seq_set_data, symObjAddr: 0x9BD0, symBinAddr: 0x21AF0, symSize: 0x40 }
  - { offset: 0x11B82A, size: 0x8, addend: 0x0, symName: _llama_state_seq_save_file, symObjAddr: 0x9C10, symBinAddr: 0x21B30, symSize: 0xA0 }
  - { offset: 0x11B906, size: 0x8, addend: 0x0, symName: _llama_state_seq_load_file, symObjAddr: 0x9CB0, symBinAddr: 0x21BD0, symSize: 0xB0 }
  - { offset: 0x11B9FA, size: 0x8, addend: 0x0, symName: _llama_encode, symObjAddr: 0x9D60, symBinAddr: 0x21C80, symSize: 0x40 }
  - { offset: 0x11BA74, size: 0x8, addend: 0x0, symName: _llama_decode, symObjAddr: 0x9DA0, symBinAddr: 0x21CC0, symSize: 0x40 }
  - { offset: 0x11BB13, size: 0x8, addend: 0x0, symName: _llama_perf_context, symObjAddr: 0x9DE0, symBinAddr: 0x21D00, symSize: 0xA0 }
  - { offset: 0x11BC1B, size: 0x8, addend: 0x0, symName: _llama_perf_context_print, symObjAddr: 0x9E80, symBinAddr: 0x21DA0, symSize: 0x1D0 }
  - { offset: 0x11BE9A, size: 0x8, addend: 0x0, symName: _llama_perf_context_reset, symObjAddr: 0xA050, symBinAddr: 0x21F70, symSize: 0x40 }
  - { offset: 0x11BEED, size: 0x8, addend: 0x0, symName: _llama_opt_param_filter_all, symObjAddr: 0xA090, symBinAddr: 0x21FB0, symSize: 0x10 }
  - { offset: 0x11BF27, size: 0x8, addend: 0x0, symName: _llama_opt_init, symObjAddr: 0xA0A0, symBinAddr: 0x21FC0, symSize: 0x10 }
  - { offset: 0x11BF8A, size: 0x8, addend: 0x0, symName: _llama_opt_epoch, symObjAddr: 0xA0B0, symBinAddr: 0x21FD0, symSize: 0x10 }
  - { offset: 0x11CBE3, size: 0x8, addend: 0x0, symName: __ZN20llama_io_write_dummyD0Ev, symObjAddr: 0xA3E0, symBinAddr: 0x222C0, symSize: 0x10 }
  - { offset: 0x11CC0F, size: 0x8, addend: 0x0, symName: __ZN20llama_io_write_dummy5writeEPKvm, symObjAddr: 0xA3F0, symBinAddr: 0x222D0, symSize: 0x10 }
  - { offset: 0x11CC4E, size: 0x8, addend: 0x0, symName: __ZN20llama_io_write_dummy12write_tensorEPK11ggml_tensormm, symObjAddr: 0xA400, symBinAddr: 0x222E0, symSize: 0x10 }
  - { offset: 0x11CC98, size: 0x8, addend: 0x0, symName: __ZN20llama_io_write_dummy7n_bytesEv, symObjAddr: 0xA410, symBinAddr: 0x222F0, symSize: 0x10 }
  - { offset: 0x11CCBD, size: 0x8, addend: 0x0, symName: __ZN21llama_io_write_bufferD0Ev, symObjAddr: 0xA420, symBinAddr: 0x22300, symSize: 0x10 }
  - { offset: 0x11CCE9, size: 0x8, addend: 0x0, symName: __ZN21llama_io_write_buffer5writeEPKvm, symObjAddr: 0xA430, symBinAddr: 0x22310, symSize: 0x80 }
  - { offset: 0x11CD30, size: 0x8, addend: 0x0, symName: __ZN21llama_io_write_buffer12write_tensorEPK11ggml_tensormm, symObjAddr: 0xA4B0, symBinAddr: 0x22390, symSize: 0x80 }
  - { offset: 0x11CDB1, size: 0x8, addend: 0x0, symName: __ZN21llama_io_write_buffer7n_bytesEv, symObjAddr: 0xA530, symBinAddr: 0x22410, symSize: 0x10 }
  - { offset: 0x11CDD6, size: 0x8, addend: 0x0, symName: __ZN20llama_io_read_bufferD0Ev, symObjAddr: 0xA540, symBinAddr: 0x22420, symSize: 0x10 }
  - { offset: 0x11CE02, size: 0x8, addend: 0x0, symName: __ZN20llama_io_read_buffer4readEm, symObjAddr: 0xA550, symBinAddr: 0x22430, symSize: 0x70 }
  - { offset: 0x11CE49, size: 0x8, addend: 0x0, symName: __ZN20llama_io_read_buffer7read_toEPvm, symObjAddr: 0xA5C0, symBinAddr: 0x224A0, symSize: 0x30 }
  - { offset: 0x11CEAB, size: 0x8, addend: 0x0, symName: __ZN20llama_io_read_buffer7n_bytesEv, symObjAddr: 0xA5F0, symBinAddr: 0x224D0, symSize: 0x10 }
  - { offset: 0x11CED0, size: 0x8, addend: 0x0, symName: __ZN18llama_io_read_fileD0Ev, symObjAddr: 0xA600, symBinAddr: 0x224E0, symSize: 0x40 }
  - { offset: 0x11CF00, size: 0x8, addend: 0x0, symName: __ZN18llama_io_read_fileD0Ev, symObjAddr: 0xA600, symBinAddr: 0x224E0, symSize: 0x40 }
  - { offset: 0x11CF1E, size: 0x8, addend: 0x0, symName: __ZN18llama_io_read_fileD0Ev, symObjAddr: 0xA600, symBinAddr: 0x224E0, symSize: 0x40 }
  - { offset: 0x11D45C, size: 0x8, addend: 0x0, symName: __ZN18llama_io_read_file4readEm, symObjAddr: 0xA640, symBinAddr: 0x22520, symSize: 0x120 }
  - { offset: 0x11D971, size: 0x8, addend: 0x0, symName: __ZN18llama_io_read_file7read_toEPvm, symObjAddr: 0xA760, symBinAddr: 0x22640, symSize: 0x20 }
  - { offset: 0x11D9B8, size: 0x8, addend: 0x0, symName: __ZN18llama_io_read_file7n_bytesEv, symObjAddr: 0xA780, symBinAddr: 0x22660, symSize: 0x10 }
  - { offset: 0x11DA41, size: 0x8, addend: 0x0, symName: __ZN19llama_io_write_fileD0Ev, symObjAddr: 0xA860, symBinAddr: 0x22670, symSize: 0x40 }
  - { offset: 0x11DA71, size: 0x8, addend: 0x0, symName: __ZN19llama_io_write_fileD0Ev, symObjAddr: 0xA860, symBinAddr: 0x22670, symSize: 0x40 }
  - { offset: 0x11DA8F, size: 0x8, addend: 0x0, symName: __ZN19llama_io_write_fileD0Ev, symObjAddr: 0xA860, symBinAddr: 0x22670, symSize: 0x40 }
  - { offset: 0x11DBF9, size: 0x8, addend: 0x0, symName: __ZN19llama_io_write_file5writeEPKvm, symObjAddr: 0xA8A0, symBinAddr: 0x226B0, symSize: 0x20 }
  - { offset: 0x11DCA2, size: 0x8, addend: 0x0, symName: __ZN19llama_io_write_file12write_tensorEPK11ggml_tensormm, symObjAddr: 0xA8C0, symBinAddr: 0x226D0, symSize: 0x150 }
  - { offset: 0x11E222, size: 0x8, addend: 0x0, symName: __ZNSt3__16__treeINS_12__value_typeIiNS_6vectorIfNS_9allocatorIfEEEEEENS_19__map_value_compareIiS6_NS_4lessIiEELb1EEENS3_IS6_EEE7destroyEPNS_11__tree_nodeIS6_PvEE, symObjAddr: 0xAA10, symBinAddr: 0x22820, symSize: 0x50 }
  - { offset: 0x11E8B3, size: 0x8, addend: 0x0, symName: __ZNSt3__112__hash_tableINS_17__hash_value_typeIP18llama_adapter_lorafEENS_22__unordered_map_hasherIS3_S4_NS_4hashIS3_EENS_8equal_toIS3_EELb1EEENS_21__unordered_map_equalIS3_S4_S9_S7_Lb1EEENS_9allocatorIS4_EEE11__do_rehashILb1EEEvm, symObjAddr: 0xAF00, symBinAddr: 0x22D00, symSize: 0x230 }
  - { offset: 0x11F752, size: 0x8, addend: 0x0, symName: __ZNKSt3__16vectorIN13llama_context9swap_infoENS_9allocatorIS2_EEE20__throw_length_errorB8ne190102Ev, symObjAddr: 0xB9B0, symBinAddr: 0x232A0, symSize: 0x10 }
  - { offset: 0x11F8F0, size: 0x8, addend: 0x0, symName: '__ZNSt3__110__function6__funcIZNK13llama_context12graph_get_cbEvE3$_0NS_9allocatorIS3_EEFvRK12llama_ubatchP11ggml_tensorPKciEED1Ev', symObjAddr: 0xBB20, symBinAddr: 0x232B0, symSize: 0x10 }
  - { offset: 0x11F8FB, size: 0x8, addend: 0x0, symName: '__ZNSt3__110__function6__funcIZNK13llama_context12graph_get_cbEvE3$_0NS_9allocatorIS3_EEFvRK12llama_ubatchP11ggml_tensorPKciEED1Ev', symObjAddr: 0xBB20, symBinAddr: 0x232B0, symSize: 0x10 }
  - { offset: 0x11F924, size: 0x8, addend: 0x0, symName: '__ZNSt3__110__function6__funcIZNK13llama_context12graph_get_cbEvE3$_0NS_9allocatorIS3_EEFvRK12llama_ubatchP11ggml_tensorPKciEED0Ev', symObjAddr: 0xBB30, symBinAddr: 0x232C0, symSize: 0x10 }
  - { offset: 0x11FB27, size: 0x8, addend: 0x0, symName: '__ZNKSt3__110__function6__funcIZNK13llama_context12graph_get_cbEvE3$_0NS_9allocatorIS3_EEFvRK12llama_ubatchP11ggml_tensorPKciEE7__cloneEv', symObjAddr: 0xBB40, symBinAddr: 0x232D0, symSize: 0x30 }
  - { offset: 0x11FE0A, size: 0x8, addend: 0x0, symName: '__ZNKSt3__110__function6__funcIZNK13llama_context12graph_get_cbEvE3$_0NS_9allocatorIS3_EEFvRK12llama_ubatchP11ggml_tensorPKciEE7__cloneEPNS0_6__baseISD_EE', symObjAddr: 0xBB70, symBinAddr: 0x23300, symSize: 0x20 }
  - { offset: 0x11FF0F, size: 0x8, addend: 0x0, symName: '__ZNSt3__110__function6__funcIZNK13llama_context12graph_get_cbEvE3$_0NS_9allocatorIS3_EEFvRK12llama_ubatchP11ggml_tensorPKciEE7destroyEv', symObjAddr: 0xBB90, symBinAddr: 0x23320, symSize: 0x10 }
  - { offset: 0x11FF5E, size: 0x8, addend: 0x0, symName: '__ZNSt3__110__function6__funcIZNK13llama_context12graph_get_cbEvE3$_0NS_9allocatorIS3_EEFvRK12llama_ubatchP11ggml_tensorPKciEE18destroy_deallocateEv', symObjAddr: 0xBBA0, symBinAddr: 0x23330, symSize: 0x10 }
  - { offset: 0x1201C1, size: 0x8, addend: 0x0, symName: '__ZNSt3__110__function6__funcIZNK13llama_context12graph_get_cbEvE3$_0NS_9allocatorIS3_EEFvRK12llama_ubatchP11ggml_tensorPKciEEclES8_OSA_OSC_Oi', symObjAddr: 0xBBB0, symBinAddr: 0x23340, symSize: 0x140 }
  - { offset: 0x120511, size: 0x8, addend: 0x0, symName: '__ZNKSt3__110__function6__funcIZNK13llama_context12graph_get_cbEvE3$_0NS_9allocatorIS3_EEFvRK12llama_ubatchP11ggml_tensorPKciEE6targetERKSt9type_info', symObjAddr: 0xBCF0, symBinAddr: 0x23480, symSize: 0x20 }
  - { offset: 0x120581, size: 0x8, addend: 0x0, symName: '__ZNKSt3__110__function6__funcIZNK13llama_context12graph_get_cbEvE3$_0NS_9allocatorIS3_EEFvRK12llama_ubatchP11ggml_tensorPKciEE11target_typeEv', symObjAddr: 0xBD10, symBinAddr: 0x234A0, symSize: 0x10 }
  - { offset: 0x1225C4, size: 0x8, addend: 0x0, symName: _llama_max_parallel_sequences, symObjAddr: 0x0, symBinAddr: 0x234B0, symSize: 0xB }
  - { offset: 0x1225D2, size: 0x8, addend: 0x0, symName: _llama_max_parallel_sequences, symObjAddr: 0x0, symBinAddr: 0x234B0, symSize: 0xB }
  - { offset: 0x122728, size: 0x8, addend: 0x0, symName: __ZN20llama_grammar_parser13get_symbol_idEPKcm, symObjAddr: 0x0, symBinAddr: 0x234C0, symSize: 0xE0 }
  - { offset: 0x1227BA, size: 0x8, addend: 0x0, symName: __ZNSt3__119piecewise_constructE, symObjAddr: 0x17C50, symBinAddr: 0x232FF0, symSize: 0x0 }
  - { offset: 0x147E4B, size: 0x8, addend: 0x0, symName: __ZNSt3__1plB8ne190102IcNS_11char_traitsIcEENS_9allocatorIcEEEENS_12basic_stringIT_T0_T1_EEOS9_SA_, symObjAddr: 0x2F0, symBinAddr: 0x237B0, symSize: 0x60 }
  - { offset: 0x14A35F, size: 0x8, addend: 0x0, symName: __ZNSt3__135__uninitialized_allocator_copy_implB8ne190102INS_9allocatorINS_6vectorI21llama_grammar_elementNS1_IS3_EEEEEEPS5_S7_S7_EET2_RT_T0_T1_S8_, symObjAddr: 0x135C0, symBinAddr: 0x36680, symSize: 0x100 }
  - { offset: 0x14A8F0, size: 0x8, addend: 0x0, symName: __ZNSt3__135__uninitialized_allocator_copy_implB8ne190102INS_9allocatorINS_6vectorIPK21llama_grammar_elementNS1_IS5_EEEEEEPS7_S9_S9_EET2_RT_T0_T1_SA_, symObjAddr: 0x13780, symBinAddr: 0x36840, symSize: 0x100 }
  - { offset: 0x14AE81, size: 0x8, addend: 0x0, symName: __ZNSt3__130__uninitialized_allocator_copyB8ne190102INS_9allocatorI29llama_grammar_trigger_patternEEPS2_S4_S4_EET2_RT_T0_T1_S5_, symObjAddr: 0x138D0, symBinAddr: 0x36990, symSize: 0x110 }
  - { offset: 0x14C5C9, size: 0x8, addend: 0x0, symName: __ZNSt3__134__uninitialized_allocator_relocateB8ne190102INS_9allocatorI29llama_grammar_trigger_patternEES2_EEvRT_PT0_S7_S7_, symObjAddr: 0xA560, symBinAddr: 0x2D6B0, symSize: 0x120 }
  - { offset: 0x14C624, size: 0x8, addend: 0x0, symName: __ZNSt3__134__uninitialized_allocator_relocateB8ne190102INS_9allocatorI29llama_grammar_trigger_patternEES2_EEvRT_PT0_S7_S7_, symObjAddr: 0xA560, symBinAddr: 0x2D6B0, symSize: 0x120 }
  - { offset: 0x14CD2C, size: 0x8, addend: 0x0, symName: __ZNSt3__119__throw_regex_errorB8ne190102ILNS_15regex_constants10error_typeE17EEEvv, symObjAddr: 0xA9B0, symBinAddr: 0x2DB00, symSize: 0x50 }
  - { offset: 0x14DAB8, size: 0x8, addend: 0x0, symName: __ZNSt3__119__throw_regex_errorB8ne190102ILNS_15regex_constants10error_typeE14EEEvv, symObjAddr: 0xB330, symBinAddr: 0x2E480, symSize: 0x50 }
  - { offset: 0x14DE54, size: 0x8, addend: 0x0, symName: __ZNSt3__119__throw_regex_errorB8ne190102ILNS_15regex_constants10error_typeE15EEEvv, symObjAddr: 0x128B0, symBinAddr: 0x359F0, symSize: 0x50 }
  - { offset: 0x14E160, size: 0x8, addend: 0x0, symName: __ZNSt3__119__throw_regex_errorB8ne190102ILNS_15regex_constants10error_typeE6EEEvv, symObjAddr: 0xBFA0, symBinAddr: 0x2F0F0, symSize: 0x50 }
  - { offset: 0x14E30C, size: 0x8, addend: 0x0, symName: __ZNSt3__119__throw_regex_errorB8ne190102ILNS_15regex_constants10error_typeE11EEEvv, symObjAddr: 0xD920, symBinAddr: 0x30A70, symSize: 0x50 }
  - { offset: 0x14E350, size: 0x8, addend: 0x0, symName: __ZNSt3__119__throw_regex_errorB8ne190102ILNS_15regex_constants10error_typeE8EEEvv, symObjAddr: 0x12200, symBinAddr: 0x35340, symSize: 0x50 }
  - { offset: 0x14E376, size: 0x8, addend: 0x0, symName: __ZNSt3__119__throw_regex_errorB8ne190102ILNS_15regex_constants10error_typeE7EEEvv, symObjAddr: 0x12250, symBinAddr: 0x35390, symSize: 0x50 }
  - { offset: 0x14E4A6, size: 0x8, addend: 0x0, symName: __ZNSt3__119__throw_regex_errorB8ne190102ILNS_15regex_constants10error_typeE12EEEvv, symObjAddr: 0xCD50, symBinAddr: 0x2FEA0, symSize: 0x50 }
  - { offset: 0x14E4CC, size: 0x8, addend: 0x0, symName: __ZNSt3__119__throw_regex_errorB8ne190102ILNS_15regex_constants10error_typeE16EEEvv, symObjAddr: 0xCDA0, symBinAddr: 0x2FEF0, symSize: 0x50 }
  - { offset: 0x14EDF7, size: 0x8, addend: 0x0, symName: __ZNSt3__119__throw_regex_errorB8ne190102ILNS_15regex_constants10error_typeE4EEEvv, symObjAddr: 0xE430, symBinAddr: 0x31580, symSize: 0x50 }
  - { offset: 0x14EE1D, size: 0x8, addend: 0x0, symName: __ZNSt3__119__throw_regex_errorB8ne190102ILNS_15regex_constants10error_typeE3EEEvv, symObjAddr: 0xDB90, symBinAddr: 0x30CE0, symSize: 0x50 }
  - { offset: 0x14EE43, size: 0x8, addend: 0x0, symName: __ZNSt3__119__throw_regex_errorB8ne190102ILNS_15regex_constants10error_typeE5EEEvv, symObjAddr: 0x10030, symBinAddr: 0x33170, symSize: 0x50 }
  - { offset: 0x14F94A, size: 0x8, addend: 0x0, symName: __ZNSt3__119__throw_regex_errorB8ne190102ILNS_15regex_constants10error_typeE1EEEvv, symObjAddr: 0x11520, symBinAddr: 0x34660, symSize: 0x50 }
  - { offset: 0x14F970, size: 0x8, addend: 0x0, symName: __ZNSt3__119__throw_regex_errorB8ne190102ILNS_15regex_constants10error_typeE2EEEvv, symObjAddr: 0x11B00, symBinAddr: 0x34C40, symSize: 0x50 }
  - { offset: 0x14FAC3, size: 0x8, addend: 0x0, symName: __ZNSt3__119__throw_regex_errorB8ne190102ILNS_15regex_constants10error_typeE9EEEvv, symObjAddr: 0x11F00, symBinAddr: 0x35040, symSize: 0x50 }
  - { offset: 0x15263A, size: 0x8, addend: 0x0, symName: __ZL11decode_utf8RKNSt3__112basic_stringIcNS_11char_traitsIcEENS_9allocatorIcEEEE18llama_partial_utf8, symObjAddr: 0x7F80, symBinAddr: 0x2B3B0, symSize: 0x620 }
  - { offset: 0x152664, size: 0x8, addend: 0x0, symName: __ZZL11decode_utf8RKNSt3__112basic_stringIcNS_11char_traitsIcEENS_9allocatorIcEEEE18llama_partial_utf8E6lookup, symObjAddr: 0x17C10, symBinAddr: 0x232FB0, symSize: 0x0 }
  - { offset: 0x156DE8, size: 0x8, addend: 0x0, symName: __ZN20llama_grammar_parser13get_symbol_idEPKcm, symObjAddr: 0x0, symBinAddr: 0x234C0, symSize: 0xE0 }
  - { offset: 0x1573C4, size: 0x8, addend: 0x0, symName: __ZNSt3__16__treeINS_12__value_typeINS_12basic_stringIcNS_11char_traitsIcEENS_9allocatorIcEEEEjEENS_19__map_value_compareIS7_S8_NS_4lessIS7_EELb1EEENS5_IS8_EEE25__emplace_unique_key_argsIS7_JS7_RjEEENS_4pairINS_15__tree_iteratorIS8_PNS_11__tree_nodeIS8_PvEElEEbEERKT_DpOT0_, symObjAddr: 0x98C0, symBinAddr: 0x2CBA0, symSize: 0x1A0 }
  - { offset: 0x1579CE, size: 0x8, addend: 0x0, symName: __ZNSt3__16__treeINS_12__value_typeINS_12basic_stringIcNS_11char_traitsIcEENS_9allocatorIcEEEEjEENS_19__map_value_compareIS7_S8_NS_4lessIS7_EELb1EEENS5_IS8_EEE25__emplace_unique_key_argsIS7_JS7_RjEEENS_4pairINS_15__tree_iteratorIS8_PNS_11__tree_nodeIS8_PvEElEEbEERKT_DpOT0_, symObjAddr: 0x98C0, symBinAddr: 0x2CBA0, symSize: 0x1A0 }
  - { offset: 0x157B9C, size: 0x8, addend: 0x0, symName: __ZN20llama_grammar_parser18generate_symbol_idERKNSt3__112basic_stringIcNS0_11char_traitsIcEENS0_9allocatorIcEEEE, symObjAddr: 0xE0, symBinAddr: 0x235A0, symSize: 0x210 }
  - { offset: 0x15874A, size: 0x8, addend: 0x0, symName: __ZNSt3__16__treeINS_12__value_typeINS_12basic_stringIcNS_11char_traitsIcEENS_9allocatorIcEEEEjEENS_19__map_value_compareIS7_S8_NS_4lessIS7_EELb1EEENS5_IS8_EEE25__emplace_unique_key_argsIS7_JRKNS_21piecewise_construct_tENS_5tupleIJOS7_EEENSJ_IJEEEEEENS_4pairINS_15__tree_iteratorIS8_PNS_11__tree_nodeIS8_PvEElEEbEERKT_DpOT0_, symObjAddr: 0x9BE0, symBinAddr: 0x2CD40, symSize: 0x190 }
  - { offset: 0x158FAD, size: 0x8, addend: 0x0, symName: __ZN20llama_grammar_parser8add_ruleEjRKNSt3__16vectorI21llama_grammar_elementNS0_9allocatorIS2_EEEE, symObjAddr: 0x350, symBinAddr: 0x23810, symSize: 0xE0 }
  - { offset: 0x1592DB, size: 0x8, addend: 0x0, symName: __ZNSt3__16vectorINS0_I21llama_grammar_elementNS_9allocatorIS1_EEEENS2_IS4_EEE8__appendEm, symObjAddr: 0x9D70, symBinAddr: 0x2CED0, symSize: 0x1A0 }
  - { offset: 0x15976E, size: 0x8, addend: 0x0, symName: __ZNSt3__16vectorI21llama_grammar_elementNS_9allocatorIS1_EEE18__assign_with_sizeB8ne190102IPS1_S6_EEvT_T0_l, symObjAddr: 0x9F20, symBinAddr: 0x2D080, symSize: 0x150 }
  - { offset: 0x15A56E, size: 0x8, addend: 0x0, symName: __ZN20llama_grammar_parser16parse_alternatesEPKcRKNSt3__112basic_stringIcNS2_11char_traitsIcEENS2_9allocatorIcEEEEjb, symObjAddr: 0x430, symBinAddr: 0x238F0, symSize: 0x3C0 }
  - { offset: 0x15B438, size: 0x8, addend: 0x0, symName: __ZN20llama_grammar_parser14parse_sequenceEPKcRKNSt3__112basic_stringIcNS2_11char_traitsIcEENS2_9allocatorIcEEEERNS2_6vectorI21llama_grammar_elementNS6_ISC_EEEEb, symObjAddr: 0x7F0, symBinAddr: 0x23CB0, symSize: 0x16C0 }
  - { offset: 0x15DE9A, size: 0x8, addend: 0x0, symName: __ZNKSt3__16vectorI21llama_grammar_elementNS_9allocatorIS1_EEE20__throw_length_errorB8ne190102Ev, symObjAddr: 0x8F00, symBinAddr: 0x2C330, symSize: 0x10 }
  - { offset: 0x15DF09, size: 0x8, addend: 0x0, symName: __ZL10parse_namePKc, symObjAddr: 0x2230, symBinAddr: 0x256F0, symSize: 0x140 }
  - { offset: 0x15E1EC, size: 0x8, addend: 0x0, symName: __ZL10parse_charPKc, symObjAddr: 0x1EB0, symBinAddr: 0x25370, symSize: 0x380 }
  - { offset: 0x15E525, size: 0x8, addend: 0x0, symName: __ZL9parse_intPKc, symObjAddr: 0x2CA0, symBinAddr: 0x260D0, symSize: 0x120 }
  - { offset: 0x15E819, size: 0x8, addend: 0x0, symName: '__ZZN20llama_grammar_parser14parse_sequenceEPKcRKNSt3__112basic_stringIcNS2_11char_traitsIcEENS2_9allocatorIcEEEERNS2_6vectorI21llama_grammar_elementNS6_ISC_EEEEbENK3$_0clEii', symObjAddr: 0x2400, symBinAddr: 0x25830, symSize: 0x8A0 }
  - { offset: 0x160C64, size: 0x8, addend: 0x0, symName: __ZL9parse_hexPKci, symObjAddr: 0x8CE0, symBinAddr: 0x2C110, symSize: 0x220 }
  - { offset: 0x161738, size: 0x8, addend: 0x0, symName: __ZNSt3__16vectorI21llama_grammar_elementNS_9allocatorIS1_EEE18__insert_with_sizeB8ne190102INS_11__wrap_iterIPS1_EES8_EES8_NS6_IPKS1_EET_T0_l, symObjAddr: 0x9120, symBinAddr: 0x2C490, symSize: 0x2E0 }
  - { offset: 0x162158, size: 0x8, addend: 0x0, symName: __ZNSt3__16vectorI21llama_grammar_elementNS_9allocatorIS1_EEE8__appendEm, symObjAddr: 0x8FD0, symBinAddr: 0x2C340, symSize: 0x150 }
  - { offset: 0x162595, size: 0x8, addend: 0x0, symName: __ZN20llama_grammar_parser10parse_ruleEPKc, symObjAddr: 0x2DC0, symBinAddr: 0x261F0, symSize: 0x380 }
  - { offset: 0x162EDA, size: 0x8, addend: 0x0, symName: __ZN20llama_grammar_parser5parseEPKc, symObjAddr: 0x3140, symBinAddr: 0x26570, symSize: 0x340 }
  - { offset: 0x164009, size: 0x8, addend: 0x0, symName: __ZN20llama_grammar_parser5printEP7__sFILE, symObjAddr: 0x3480, symBinAddr: 0x268B0, symSize: 0x900 }
  - { offset: 0x165410, size: 0x8, addend: 0x0, symName: __ZNSt3__16__treeINS_12__value_typeIjNS_12basic_stringIcNS_11char_traitsIcEENS_9allocatorIcEEEEEENS_19__map_value_compareIjS8_NS_4lessIjEELb1EEENS5_IS8_EEE7destroyEPNS_11__tree_nodeIS8_PvEE, symObjAddr: 0xA070, symBinAddr: 0x2D1D0, symSize: 0x50 }
  - { offset: 0x165B53, size: 0x8, addend: 0x0, symName: __ZNK20llama_grammar_parser7c_rulesEv, symObjAddr: 0x3D80, symBinAddr: 0x271B0, symSize: 0x200 }
  - { offset: 0x16635A, size: 0x8, addend: 0x0, symName: __ZNKSt3__16vectorIPK21llama_grammar_elementNS_9allocatorIS3_EEE20__throw_length_errorB8ne190102Ev, symObjAddr: 0x9630, symBinAddr: 0x2C920, symSize: 0x10 }
  - { offset: 0x166384, size: 0x8, addend: 0x0, symName: __ZNSt3__114__split_bufferINS_6vectorIPK21llama_grammar_elementNS_9allocatorIS4_EEEERNS5_IS7_EEED1Ev, symObjAddr: 0x9640, symBinAddr: 0x2C930, symSize: 0x60 }
  - { offset: 0x16638F, size: 0x8, addend: 0x0, symName: __Z23llama_grammar_get_rulesPK13llama_grammar, symObjAddr: 0x3F80, symBinAddr: 0x273B0, symSize: 0x10 }
  - { offset: 0x1663BE, size: 0x8, addend: 0x0, symName: __Z24llama_grammar_get_stacksP13llama_grammar, symObjAddr: 0x3F90, symBinAddr: 0x273C0, symSize: 0x10 }
  - { offset: 0x166AB7, size: 0x8, addend: 0x0, symName: __Z20llama_grammar_acceptP13llama_grammarj, symObjAddr: 0x3FA0, symBinAddr: 0x273D0, symSize: 0x3E0 }
  - { offset: 0x167994, size: 0x8, addend: 0x0, symName: __ZL27llama_grammar_advance_stackRKNSt3__16vectorINS0_I21llama_grammar_elementNS_9allocatorIS1_EEEENS2_IS4_EEEERKNS0_IPKS1_NS2_ISA_EEEERNS0_ISC_NS2_ISC_EEEE, symObjAddr: 0x4380, symBinAddr: 0x277B0, symSize: 0x4E0 }
  - { offset: 0x16902F, size: 0x8, addend: 0x0, symName: __ZNKSt3__16vectorINS0_IPK21llama_grammar_elementNS_9allocatorIS3_EEEENS4_IS6_EEE20__throw_length_errorB8ne190102Ev, symObjAddr: 0x96A0, symBinAddr: 0x2C990, symSize: 0x10 }
  - { offset: 0x169059, size: 0x8, addend: 0x0, symName: __ZNSt3__110shared_ptrINS_13__empty_stateIcEEED1B8ne190102Ev, symObjAddr: 0x96B0, symBinAddr: 0x2C9A0, symSize: 0x40 }
  - { offset: 0x169064, size: 0x8, addend: 0x0, symName: __ZNSt3__16vectorINS0_IPK21llama_grammar_elementNS_9allocatorIS3_EEEENS4_IS6_EEED1B8ne190102Ev, symObjAddr: 0x4860, symBinAddr: 0x27C90, symSize: 0x70 }
  - { offset: 0x16974C, size: 0x8, addend: 0x0, symName: __ZNSt3__16vectorINS0_IPK21llama_grammar_elementNS_9allocatorIS3_EEEENS4_IS6_EEE24__emplace_back_slow_pathIJRKS6_EEEPS6_DpOT_, symObjAddr: 0x9480, symBinAddr: 0x2C770, symSize: 0x1B0 }
  - { offset: 0x16A65F, size: 0x8, addend: 0x0, symName: __Z41llama_grammar_reject_candidates_for_stackRKNSt3__16vectorINS0_I21llama_grammar_elementNS_9allocatorIS1_EEEENS2_IS4_EEEERKNS0_IPKS1_NS2_ISA_EEEERKNS0_I23llama_grammar_candidateNS2_ISF_EEEE, symObjAddr: 0x48D0, symBinAddr: 0x27D00, symSize: 0xE40 }
  - { offset: 0x16D182, size: 0x8, addend: 0x0, symName: __ZL31llama_grammar_reject_candidatesRKNSt3__16vectorINS0_I21llama_grammar_elementNS_9allocatorIS1_EEEENS2_IS4_EEEERKNS0_INS0_IPKS1_NS2_ISA_EEEENS2_ISC_EEEERKNS0_I23llama_grammar_candidateNS2_ISH_EEEE, symObjAddr: 0x5710, symBinAddr: 0x28B40, symSize: 0x110 }
  - { offset: 0x16D57D, size: 0x8, addend: 0x0, symName: __ZNKSt3__16vectorI23llama_grammar_candidateNS_9allocatorIS1_EEE20__throw_length_errorB8ne190102Ev, symObjAddr: 0xA0C0, symBinAddr: 0x2D220, symSize: 0x10 }
  - { offset: 0x16D5A7, size: 0x8, addend: 0x0, symName: __ZNSt3__128__exception_guard_exceptionsINS_6vectorINS1_I21llama_grammar_elementNS_9allocatorIS2_EEEENS3_IS5_EEE16__destroy_vectorEED1B8ne190102Ev, symObjAddr: 0xA0D0, symBinAddr: 0x2D230, symSize: 0x70 }
  - { offset: 0x16DD53, size: 0x8, addend: 0x0, symName: __Z23llama_grammar_init_implPK11llama_vocabPPK21llama_grammar_elementmm, symObjAddr: 0x5820, symBinAddr: 0x28C50, symSize: 0x860 }
  - { offset: 0x16FF55, size: 0x8, addend: 0x0, symName: __ZL35llama_grammar_detect_left_recursionRKNSt3__16vectorINS0_I21llama_grammar_elementNS_9allocatorIS1_EEEENS2_IS4_EEEEmPNS0_IbNS2_IbEEEESB_SB_, symObjAddr: 0x6080, symBinAddr: 0x294B0, symSize: 0x170 }
  - { offset: 0x17029F, size: 0x8, addend: 0x0, symName: __ZNKSt3__16vectorINS0_I21llama_grammar_elementNS_9allocatorIS1_EEEENS2_IS4_EEE20__throw_length_errorB8ne190102Ev, symObjAddr: 0x9F10, symBinAddr: 0x2D070, symSize: 0x10 }
  - { offset: 0x1702C9, size: 0x8, addend: 0x0, symName: __ZNSt3__16vectorI21llama_grammar_elementNS_9allocatorIS1_EEE18__assign_with_sizeB8ne190102IPS1_S6_EEvT_T0_l, symObjAddr: 0x9F20, symBinAddr: 0x2D080, symSize: 0x150 }
  - { offset: 0x1702D4, size: 0x8, addend: 0x0, symName: __ZNSt3__128__exception_guard_exceptionsINS_6vectorINS1_I21llama_grammar_elementNS_9allocatorIS2_EEEENS3_IS5_EEE16__destroy_vectorEED1B8ne190102Ev, symObjAddr: 0xA0D0, symBinAddr: 0x2D230, symSize: 0x70 }
  - { offset: 0x170575, size: 0x8, addend: 0x0, symName: __ZNSt3__16vectorINS0_I21llama_grammar_elementNS_9allocatorIS1_EEEENS2_IS4_EEED1B8ne190102Ev, symObjAddr: 0x61F0, symBinAddr: 0x29620, symSize: 0x70 }
  - { offset: 0x171378, size: 0x8, addend: 0x0, symName: __Z23llama_grammar_init_implPK11llama_vocabPKcS3_bPS3_mPKim, symObjAddr: 0x6260, symBinAddr: 0x29690, symSize: 0xF90 }
  - { offset: 0x1754DD, size: 0x8, addend: 0x0, symName: __ZNSt3__16__treeINS_12__value_typeINS_12basic_stringIcNS_11char_traitsIcEENS_9allocatorIcEEEEjEENS_19__map_value_compareIS7_S8_NS_4lessIS7_EELb1EEENS5_IS8_EEE4findIS7_EENS_15__tree_iteratorIS8_PNS_11__tree_nodeIS8_PvEElEERKT_, symObjAddr: 0xA140, symBinAddr: 0x2D2A0, symSize: 0x110 }
  - { offset: 0x175841, size: 0x8, addend: 0x0, symName: __ZNSt3__16__treeINS_12__value_typeINS_12basic_stringIcNS_11char_traitsIcEENS_9allocatorIcEEEEjEENS_19__map_value_compareIS7_S8_NS_4lessIS7_EELb1EEENS5_IS8_EEE7destroyEPNS_11__tree_nodeIS8_PvEE, symObjAddr: 0x96F0, symBinAddr: 0x2C9E0, symSize: 0x50 }
  - { offset: 0x175B18, size: 0x8, addend: 0x0, symName: __ZNSt3__13mapINS_12basic_stringIcNS_11char_traitsIcEENS_9allocatorIcEEEEjNS_4lessIS6_EENS4_INS_4pairIKS6_jEEEEE2atERSA_, symObjAddr: 0x71F0, symBinAddr: 0x2A620, symSize: 0x110 }
  - { offset: 0x175E44, size: 0x8, addend: 0x0, symName: __ZNSt3__16vectorI29llama_grammar_trigger_patternNS_9allocatorIS1_EEE24__emplace_back_slow_pathIJEEEPS1_DpOT_, symObjAddr: 0xA260, symBinAddr: 0x2D3B0, symSize: 0x1D0 }
  - { offset: 0x1764F8, size: 0x8, addend: 0x0, symName: __ZNSt3__111basic_regexIcNS_12regex_traitsIcEEEC2B8ne190102INS_11char_traitsIcEENS_9allocatorIcEEEERKNS_12basic_stringIcT_T0_EENS_15regex_constants18syntax_option_typeE, symObjAddr: 0xA710, symBinAddr: 0x2D860, symSize: 0xD0 }
  - { offset: 0x17670D, size: 0x8, addend: 0x0, symName: __ZNSt3__16vectorI29llama_grammar_trigger_patternNS_9allocatorIS1_EEE24__emplace_back_slow_pathIJEEEPS1_DpOT_, symObjAddr: 0xA260, symBinAddr: 0x2D3B0, symSize: 0x1D0 }
  - { offset: 0x176718, size: 0x8, addend: 0x0, symName: __ZN20llama_grammar_parserD1Ev, symObjAddr: 0x7400, symBinAddr: 0x2A830, symSize: 0x70 }
  - { offset: 0x176A9F, size: 0x8, addend: 0x0, symName: __ZNSt3__16vectorI29llama_grammar_trigger_patternNS_9allocatorIS1_EEED1B8ne190102Ev, symObjAddr: 0x7350, symBinAddr: 0x2A780, symSize: 0xB0 }
  - { offset: 0x176FFF, size: 0x8, addend: 0x0, symName: __ZNSt3__111basic_regexIcNS_12regex_traitsIcEEED1Ev, symObjAddr: 0x7300, symBinAddr: 0x2A730, symSize: 0x50 }
  - { offset: 0x17796B, size: 0x8, addend: 0x0, symName: __Z23llama_grammar_free_implP13llama_grammar, symObjAddr: 0x7470, symBinAddr: 0x2A8A0, symSize: 0x30 }
  - { offset: 0x1779C2, size: 0x8, addend: 0x0, symName: __ZN13llama_grammarD2Ev, symObjAddr: 0x9740, symBinAddr: 0x2CA30, symSize: 0x160 }
  - { offset: 0x178C6B, size: 0x8, addend: 0x0, symName: __Z24llama_grammar_clone_implRK13llama_grammar, symObjAddr: 0x74A0, symBinAddr: 0x2A8D0, symSize: 0x4E0 }
  - { offset: 0x179C96, size: 0x8, addend: 0x0, symName: __ZNKSt3__16vectorI29llama_grammar_trigger_patternNS_9allocatorIS1_EEE20__throw_length_errorB8ne190102Ev, symObjAddr: 0xA550, symBinAddr: 0x2D6A0, symSize: 0x10 }
  - { offset: 0x179CC0, size: 0x8, addend: 0x0, symName: __ZNSt3__134__uninitialized_allocator_relocateB8ne190102INS_9allocatorI29llama_grammar_trigger_patternEES2_EEvRT_PT0_S7_S7_, symObjAddr: 0xA560, symBinAddr: 0x2D6B0, symSize: 0x120 }
  - { offset: 0x179CCB, size: 0x8, addend: 0x0, symName: __ZNSt3__128__exception_guard_exceptionsINS_6vectorI29llama_grammar_trigger_patternNS_9allocatorIS2_EEE16__destroy_vectorEED2B8ne190102Ev, symObjAddr: 0x139E0, symBinAddr: 0x36AA0, symSize: 0xC0 }
  - { offset: 0x17A06E, size: 0x8, addend: 0x0, symName: __ZNSt3__128__exception_guard_exceptionsINS_6vectorINS1_IPK21llama_grammar_elementNS_9allocatorIS4_EEEENS5_IS7_EEE16__destroy_vectorEED1B8ne190102Ev, symObjAddr: 0x13710, symBinAddr: 0x367D0, symSize: 0x70 }
  - { offset: 0x17A799, size: 0x8, addend: 0x0, symName: __Z24llama_grammar_apply_implRK13llama_grammarP22llama_token_data_array, symObjAddr: 0x7980, symBinAddr: 0x2ADB0, symSize: 0x4A0 }
  - { offset: 0x17BCB3, size: 0x8, addend: 0x0, symName: __ZNSt3__16vectorINS_4pairINS0_IjNS_9allocatorIjEEEE18llama_partial_utf8EENS2_IS6_EEE9push_backB8ne190102EOS6_, symObjAddr: 0x7E20, symBinAddr: 0x2B250, symSize: 0x160 }
  - { offset: 0x17C201, size: 0x8, addend: 0x0, symName: __ZNKSt3__16vectorINS_4pairINS0_IjNS_9allocatorIjEEEE18llama_partial_utf8EENS2_IS6_EEE20__throw_length_errorB8ne190102Ev, symObjAddr: 0x13AA0, symBinAddr: 0x36B60, symSize: 0x10 }
  - { offset: 0x17C22B, size: 0x8, addend: 0x0, symName: __ZNKSt3__111basic_regexIcNS_12regex_traitsIcEEE8__searchINS_9allocatorINS_9sub_matchIPKcEEEEEEbS8_S8_RNS_13match_resultsIS8_T_EENS_15regex_constants15match_flag_typeE, symObjAddr: 0x13AB0, symBinAddr: 0x36B70, symSize: 0x340 }
  - { offset: 0x17C236, size: 0x8, addend: 0x0, symName: __ZNSt3__16vectorINS_4pairINS0_IjNS_9allocatorIjEEEE18llama_partial_utf8EENS2_IS6_EEED1B8ne190102Ev, symObjAddr: 0x85A0, symBinAddr: 0x2B9D0, symSize: 0x70 }
  - { offset: 0x17CCA5, size: 0x8, addend: 0x0, symName: __ZNKSt3__16vectorIjNS_9allocatorIjEEE20__throw_length_errorB8ne190102Ev, symObjAddr: 0x98A0, symBinAddr: 0x2CB90, symSize: 0x10 }
  - { offset: 0x17D3AF, size: 0x8, addend: 0x0, symName: __Z25llama_grammar_accept_implR13llama_grammari, symObjAddr: 0x8610, symBinAddr: 0x2BA40, symSize: 0x5A0 }
  - { offset: 0x17ED0F, size: 0x8, addend: 0x0, symName: __Z24llama_grammar_accept_strR13llama_grammarRKNSt3__112basic_stringIcNS1_11char_traitsIcEENS1_9allocatorIcEEEE, symObjAddr: 0x8BB0, symBinAddr: 0x2BFE0, symSize: 0x130 }
  - { offset: 0x17F24E, size: 0x8, addend: 0x0, symName: __ZNKSt3__111basic_regexIcNS_12regex_traitsIcEEE8__searchINS_9allocatorINS_9sub_matchIPKcEEEEEEbS8_S8_RNS_13match_resultsIS8_T_EENS_15regex_constants15match_flag_typeE, symObjAddr: 0x13AB0, symBinAddr: 0x36B70, symSize: 0x340 }
  - { offset: 0x17F7DA, size: 0x8, addend: 0x0, symName: __ZNSt3__113match_resultsINS_11__wrap_iterIPKcEENS_9allocatorINS_9sub_matchIS4_EEEEE8__assignB8ne190102IS3_NS5_INS6_IS3_EEEEEEvS4_S4_RKNS0_IT_T0_EEb, symObjAddr: 0x13DF0, symBinAddr: 0x36EB0, symSize: 0x1C0 }
  - { offset: 0x17FF4C, size: 0x8, addend: 0x0, symName: __ZNSt3__14pairINS_12basic_stringIcNS_11char_traitsIcEENS_9allocatorIcEEEES6_ED1Ev, symObjAddr: 0xF9E0, symBinAddr: 0x32B20, symSize: 0x40 }
  - { offset: 0x18057D, size: 0x8, addend: 0x0, symName: __ZNSt3__114__split_bufferINS_6vectorIPK21llama_grammar_elementNS_9allocatorIS4_EEEERNS5_IS7_EEED1Ev, symObjAddr: 0x9640, symBinAddr: 0x2C930, symSize: 0x60 }
  - { offset: 0x18085F, size: 0x8, addend: 0x0, symName: __ZNSt3__110shared_ptrINS_13__empty_stateIcEEED1B8ne190102Ev, symObjAddr: 0x96B0, symBinAddr: 0x2C9A0, symSize: 0x40 }
  - { offset: 0x181362, size: 0x8, addend: 0x0, symName: __ZNSt3__114__split_bufferI29llama_grammar_trigger_patternRNS_9allocatorIS1_EEED1Ev, symObjAddr: 0xA490, symBinAddr: 0x2D5E0, symSize: 0xC0 }
  - { offset: 0x1816B6, size: 0x8, addend: 0x0, symName: __ZNSt3__111basic_regexIcNS_12regex_traitsIcEEEC1B8ne190102Ev, symObjAddr: 0xA430, symBinAddr: 0x2D580, symSize: 0x60 }
  - { offset: 0x18196B, size: 0x8, addend: 0x0, symName: __ZNSt3__128__exception_guard_exceptionsINS_29_AllocatorDestroyRangeReverseINS_9allocatorI29llama_grammar_trigger_patternEEPS3_EEED1B8ne190102Ev, symObjAddr: 0xA680, symBinAddr: 0x2D7D0, symSize: 0x90 }
  - { offset: 0x181CAC, size: 0x8, addend: 0x0, symName: __ZNSt3__111basic_regexIcNS_12regex_traitsIcEEE7__parseINS_11__wrap_iterIPKcEEEET_S9_S9_, symObjAddr: 0xA7E0, symBinAddr: 0x2D930, symSize: 0x1D0 }
  - { offset: 0x1828B4, size: 0x8, addend: 0x0, symName: __ZNSt3__111basic_regexIcNS_12regex_traitsIcEEE13__parse_egrepINS_11__wrap_iterIPKcEEEET_S9_S9_, symObjAddr: 0xB150, symBinAddr: 0x2E2A0, symSize: 0x1E0 }
  - { offset: 0x182F10, size: 0x8, addend: 0x0, symName: __ZNSt3__111basic_regexIcNS_12regex_traitsIcEEE24__parse_extended_reg_expINS_11__wrap_iterIPKcEEEET_S9_S9_, symObjAddr: 0xADE0, symBinAddr: 0x2DF30, symSize: 0x190 }
  - { offset: 0x183368, size: 0x8, addend: 0x0, symName: __ZNSt3__111basic_regexIcNS_12regex_traitsIcEEE21__parse_basic_reg_expINS_11__wrap_iterIPKcEEEET_S9_S9_, symObjAddr: 0xAC80, symBinAddr: 0x2DDD0, symSize: 0x160 }
  - { offset: 0x1837BA, size: 0x8, addend: 0x0, symName: __ZNSt3__111basic_regexIcNS_12regex_traitsIcEEE12__parse_grepINS_11__wrap_iterIPKcEEEET_S9_S9_, symObjAddr: 0xAF70, symBinAddr: 0x2E0C0, symSize: 0x1E0 }
  - { offset: 0x183E16, size: 0x8, addend: 0x0, symName: __ZNSt3__111basic_regexIcNS_12regex_traitsIcEEE16__parse_ecma_expINS_11__wrap_iterIPKcEEEET_S9_S9_, symObjAddr: 0xAA00, symBinAddr: 0x2DB50, symSize: 0x280 }
  - { offset: 0x184725, size: 0x8, addend: 0x0, symName: __ZNSt3__111basic_regexIcNS_12regex_traitsIcEEE17__parse_assertionINS_11__wrap_iterIPKcEEEET_S9_S9_, symObjAddr: 0xB550, symBinAddr: 0x2E6A0, symSize: 0x2E0 }
  - { offset: 0x184E6D, size: 0x8, addend: 0x0, symName: __ZNSt3__111basic_regexIcNS_12regex_traitsIcEEE12__parse_atomINS_11__wrap_iterIPKcEEEET_S9_S9_, symObjAddr: 0xB830, symBinAddr: 0x2E980, symSize: 0x2C0 }
  - { offset: 0x1852EA, size: 0x8, addend: 0x0, symName: __ZNSt3__111basic_regexIcNS_12regex_traitsIcEEE23__parse_ERE_dupl_symbolINS_11__wrap_iterIPKcEEEET_S9_S9_PNS_16__owns_one_stateIcEEjj, symObjAddr: 0xBAF0, symBinAddr: 0x2EC40, symSize: 0x3F0 }
  - { offset: 0x185C3B, size: 0x8, addend: 0x0, symName: __ZNSt3__111basic_regexIcNS_12regex_traitsIcEEE18__parse_nondupl_REINS_11__wrap_iterIPKcEEEET_S9_S9_, symObjAddr: 0x12900, symBinAddr: 0x35A40, symSize: 0x1E0 }
  - { offset: 0x1862A5, size: 0x8, addend: 0x0, symName: __ZNSt3__111basic_regexIcNS_12regex_traitsIcEEE22__parse_RE_dupl_symbolINS_11__wrap_iterIPKcEEEET_S9_S9_PNS_16__owns_one_stateIcEEjj, symObjAddr: 0x12AE0, symBinAddr: 0x35C20, symSize: 0x260 }
  - { offset: 0x186AB4, size: 0x8, addend: 0x0, symName: __ZNSt3__111basic_regexIcNS_12regex_traitsIcEEE22__parse_ERE_expressionINS_11__wrap_iterIPKcEEEET_S9_S9_, symObjAddr: 0x12F20, symBinAddr: 0x36060, symSize: 0x260 }
  - { offset: 0x187040, size: 0x8, addend: 0x0, symName: __ZNSt3__111__end_stateIcED1Ev, symObjAddr: 0xB380, symBinAddr: 0x2E4D0, symSize: 0x10 }
  - { offset: 0x18706C, size: 0x8, addend: 0x0, symName: __ZNSt3__111__end_stateIcED0Ev, symObjAddr: 0xB390, symBinAddr: 0x2E4E0, symSize: 0x10 }
  - { offset: 0x18708C, size: 0x8, addend: 0x0, symName: __ZNKSt3__111__end_stateIcE6__execERNS_7__stateIcEE, symObjAddr: 0xB3A0, symBinAddr: 0x2E4F0, symSize: 0x10 }
  - { offset: 0x1870C0, size: 0x8, addend: 0x0, symName: __ZNKSt3__16__nodeIcE12__exec_splitEbRNS_7__stateIcEE, symObjAddr: 0xB3B0, symBinAddr: 0x2E500, symSize: 0x10 }
  - { offset: 0x187107, size: 0x8, addend: 0x0, symName: __ZNKSt3__16__nodeIcE6__execERNS_7__stateIcEE, symObjAddr: 0xB3C0, symBinAddr: 0x2E510, symSize: 0x10 }
  - { offset: 0x187153, size: 0x8, addend: 0x0, symName: __ZNSt3__120__shared_ptr_pointerIPNS_13__empty_stateIcEENS_10shared_ptrIS2_E27__shared_ptr_default_deleteIS2_S2_EENS_9allocatorIS2_EEED1Ev, symObjAddr: 0xB3D0, symBinAddr: 0x2E520, symSize: 0x10 }
  - { offset: 0x1871AB, size: 0x8, addend: 0x0, symName: __ZNSt3__120__shared_ptr_pointerIPNS_13__empty_stateIcEENS_10shared_ptrIS2_E27__shared_ptr_default_deleteIS2_S2_EENS_9allocatorIS2_EEED0Ev, symObjAddr: 0xB3E0, symBinAddr: 0x2E530, symSize: 0x20 }
  - { offset: 0x187210, size: 0x8, addend: 0x0, symName: __ZNSt3__120__shared_ptr_pointerIPNS_13__empty_stateIcEENS_10shared_ptrIS2_E27__shared_ptr_default_deleteIS2_S2_EENS_9allocatorIS2_EEE16__on_zero_sharedEv, symObjAddr: 0xB400, symBinAddr: 0x2E550, symSize: 0x20 }
  - { offset: 0x1872A4, size: 0x8, addend: 0x0, symName: __ZNKSt3__120__shared_ptr_pointerIPNS_13__empty_stateIcEENS_10shared_ptrIS2_E27__shared_ptr_default_deleteIS2_S2_EENS_9allocatorIS2_EEE13__get_deleterERKSt9type_info, symObjAddr: 0xB420, symBinAddr: 0x2E570, symSize: 0x20 }
  - { offset: 0x187364, size: 0x8, addend: 0x0, symName: __ZNSt3__120__shared_ptr_pointerIPNS_13__empty_stateIcEENS_10shared_ptrIS2_E27__shared_ptr_default_deleteIS2_S2_EENS_9allocatorIS2_EEE21__on_zero_shared_weakEv, symObjAddr: 0xB440, symBinAddr: 0x2E590, symSize: 0x10 }
  - { offset: 0x187433, size: 0x8, addend: 0x0, symName: __ZNSt3__113__empty_stateIcED1Ev, symObjAddr: 0xB450, symBinAddr: 0x2E5A0, symSize: 0x30 }
  - { offset: 0x18749F, size: 0x8, addend: 0x0, symName: __ZNSt3__113__empty_stateIcED0Ev, symObjAddr: 0xB480, symBinAddr: 0x2E5D0, symSize: 0x40 }
  - { offset: 0x1874C3, size: 0x8, addend: 0x0, symName: __ZNSt3__113__empty_stateIcED0Ev, symObjAddr: 0xB480, symBinAddr: 0x2E5D0, symSize: 0x40 }
  - { offset: 0x1874E1, size: 0x8, addend: 0x0, symName: __ZNSt3__113__empty_stateIcED0Ev, symObjAddr: 0xB480, symBinAddr: 0x2E5D0, symSize: 0x40 }
  - { offset: 0x1874FF, size: 0x8, addend: 0x0, symName: __ZNSt3__113__empty_stateIcED0Ev, symObjAddr: 0xB480, symBinAddr: 0x2E5D0, symSize: 0x40 }
  - { offset: 0x187545, size: 0x8, addend: 0x0, symName: __ZNKSt3__113__empty_stateIcE6__execERNS_7__stateIcEE, symObjAddr: 0xB4C0, symBinAddr: 0x2E610, symSize: 0x20 }
  - { offset: 0x187598, size: 0x8, addend: 0x0, symName: __ZNSt3__116__owns_one_stateIcED1Ev, symObjAddr: 0xB4E0, symBinAddr: 0x2E630, symSize: 0x30 }
  - { offset: 0x187601, size: 0x8, addend: 0x0, symName: __ZNSt3__116__owns_one_stateIcED0Ev, symObjAddr: 0xB510, symBinAddr: 0x2E660, symSize: 0x40 }
  - { offset: 0x187630, size: 0x8, addend: 0x0, symName: __ZNSt3__116__owns_one_stateIcED0Ev, symObjAddr: 0xB510, symBinAddr: 0x2E660, symSize: 0x40 }
  - { offset: 0x18764E, size: 0x8, addend: 0x0, symName: __ZNSt3__116__owns_one_stateIcED0Ev, symObjAddr: 0xB510, symBinAddr: 0x2E660, symSize: 0x40 }
  - { offset: 0x187775, size: 0x8, addend: 0x0, symName: __ZNSt3__111basic_regexIcNS_12regex_traitsIcEEE16__push_lookaheadERKS3_bj, symObjAddr: 0xBEE0, symBinAddr: 0x2F030, symSize: 0xC0 }
  - { offset: 0x187B5D, size: 0x8, addend: 0x0, symName: __ZNSt3__111basic_regexIcNS_12regex_traitsIcEEE19__parse_atom_escapeINS_11__wrap_iterIPKcEEEET_S9_S9_, symObjAddr: 0xD6D0, symBinAddr: 0x30820, symSize: 0x100 }
  - { offset: 0x187E00, size: 0x8, addend: 0x0, symName: __ZNSt3__111basic_regexIcNS_12regex_traitsIcEEE26__parse_bracket_expressionINS_11__wrap_iterIPKcEEEET_S9_S9_, symObjAddr: 0xD7D0, symBinAddr: 0x30920, symSize: 0x150 }
  - { offset: 0x18810F, size: 0x8, addend: 0x0, symName: __ZNSt3__111basic_regexIcNS_12regex_traitsIcEEE25__parse_pattern_characterINS_11__wrap_iterIPKcEEEET_S9_S9_, symObjAddr: 0xD970, symBinAddr: 0x30AC0, symSize: 0x1B0 }
  - { offset: 0x18830D, size: 0x8, addend: 0x0, symName: __ZNSt3__111basic_regexIcNS_12regex_traitsIcEEE11__push_loopEmmPNS_16__owns_one_stateIcEEmmb, symObjAddr: 0x120B0, symBinAddr: 0x351F0, symSize: 0x150 }
  - { offset: 0x1888F0, size: 0x8, addend: 0x0, symName: __ZNSt3__120__l_anchor_multilineIcED1Ev, symObjAddr: 0xBFF0, symBinAddr: 0x2F140, symSize: 0x30 }
  - { offset: 0x188979, size: 0x8, addend: 0x0, symName: __ZNSt3__120__l_anchor_multilineIcED0Ev, symObjAddr: 0xC020, symBinAddr: 0x2F170, symSize: 0x40 }
  - { offset: 0x1889A9, size: 0x8, addend: 0x0, symName: __ZNSt3__120__l_anchor_multilineIcED0Ev, symObjAddr: 0xC020, symBinAddr: 0x2F170, symSize: 0x40 }
  - { offset: 0x1889C7, size: 0x8, addend: 0x0, symName: __ZNSt3__120__l_anchor_multilineIcED0Ev, symObjAddr: 0xC020, symBinAddr: 0x2F170, symSize: 0x40 }
  - { offset: 0x1889E5, size: 0x8, addend: 0x0, symName: __ZNSt3__120__l_anchor_multilineIcED0Ev, symObjAddr: 0xC020, symBinAddr: 0x2F170, symSize: 0x40 }
  - { offset: 0x188A10, size: 0x8, addend: 0x0, symName: __ZNKSt3__120__l_anchor_multilineIcE6__execERNS_7__stateIcEE, symObjAddr: 0xC060, symBinAddr: 0x2F1B0, symSize: 0x60 }
  - { offset: 0x188A75, size: 0x8, addend: 0x0, symName: __ZNSt3__120__r_anchor_multilineIcED1Ev, symObjAddr: 0xC0C0, symBinAddr: 0x2F210, symSize: 0x30 }
  - { offset: 0x188AFE, size: 0x8, addend: 0x0, symName: __ZNSt3__120__r_anchor_multilineIcED0Ev, symObjAddr: 0xC0F0, symBinAddr: 0x2F240, symSize: 0x40 }
  - { offset: 0x188B2E, size: 0x8, addend: 0x0, symName: __ZNSt3__120__r_anchor_multilineIcED0Ev, symObjAddr: 0xC0F0, symBinAddr: 0x2F240, symSize: 0x40 }
  - { offset: 0x188B4C, size: 0x8, addend: 0x0, symName: __ZNSt3__120__r_anchor_multilineIcED0Ev, symObjAddr: 0xC0F0, symBinAddr: 0x2F240, symSize: 0x40 }
  - { offset: 0x188B6A, size: 0x8, addend: 0x0, symName: __ZNSt3__120__r_anchor_multilineIcED0Ev, symObjAddr: 0xC0F0, symBinAddr: 0x2F240, symSize: 0x40 }
  - { offset: 0x188B95, size: 0x8, addend: 0x0, symName: __ZNKSt3__120__r_anchor_multilineIcE6__execERNS_7__stateIcEE, symObjAddr: 0xC130, symBinAddr: 0x2F280, symSize: 0x60 }
  - { offset: 0x188C20, size: 0x8, addend: 0x0, symName: __ZNSt3__115__word_boundaryIcNS_12regex_traitsIcEEED1Ev, symObjAddr: 0xC190, symBinAddr: 0x2F2E0, symSize: 0x50 }
  - { offset: 0x188CE3, size: 0x8, addend: 0x0, symName: __ZNSt3__115__word_boundaryIcNS_12regex_traitsIcEEED0Ev, symObjAddr: 0xC1E0, symBinAddr: 0x2F330, symSize: 0x50 }
  - { offset: 0x188E28, size: 0x8, addend: 0x0, symName: __ZNKSt3__115__word_boundaryIcNS_12regex_traitsIcEEE6__execERNS_7__stateIcEE, symObjAddr: 0xC230, symBinAddr: 0x2F380, symSize: 0x100 }
  - { offset: 0x189008, size: 0x8, addend: 0x0, symName: __ZNSt3__111__lookaheadIcNS_12regex_traitsIcEEED1Ev, symObjAddr: 0xC330, symBinAddr: 0x2F480, symSize: 0x90 }
  - { offset: 0x1891B1, size: 0x8, addend: 0x0, symName: __ZNSt3__111__lookaheadIcNS_12regex_traitsIcEEED0Ev, symObjAddr: 0xC3C0, symBinAddr: 0x2F510, symSize: 0x90 }
  - { offset: 0x189427, size: 0x8, addend: 0x0, symName: __ZNKSt3__111__lookaheadIcNS_12regex_traitsIcEEE6__execERNS_7__stateIcEE, symObjAddr: 0xC450, symBinAddr: 0x2F5A0, symSize: 0x1A0 }
  - { offset: 0x1899DA, size: 0x8, addend: 0x0, symName: __ZNSt3__16vectorINS_9sub_matchIPKcEENS_9allocatorIS4_EEE6assignEmRKS4_, symObjAddr: 0xCAE0, symBinAddr: 0x2FC30, symSize: 0x220 }
  - { offset: 0x18A067, size: 0x8, addend: 0x0, symName: __ZNKSt3__111basic_regexIcNS_12regex_traitsIcEEE21__match_at_start_ecmaINS_9allocatorINS_9sub_matchIPKcEEEEEEbS8_S8_RNS_13match_resultsIS8_T_EENS_15regex_constants15match_flag_typeEb, symObjAddr: 0xC5F0, symBinAddr: 0x2F740, symSize: 0x4F0 }
  - { offset: 0x18B8EC, size: 0x8, addend: 0x0, symName: __ZNSt3__16vectorINS_7__stateIcEENS_9allocatorIS2_EEE21__push_back_slow_pathIS2_EEPS2_OT_, symObjAddr: 0xCE70, symBinAddr: 0x2FFC0, symSize: 0x1D0 }
  - { offset: 0x18C08E, size: 0x8, addend: 0x0, symName: __ZNSt3__16vectorINS_9sub_matchIPKcEENS_9allocatorIS4_EEE8__appendEmRKS4_, symObjAddr: 0xD240, symBinAddr: 0x30390, symSize: 0x1A0 }
  - { offset: 0x18C547, size: 0x8, addend: 0x0, symName: __ZNSt3__16vectorINS_4pairImPKcEENS_9allocatorIS4_EEE8__appendEm, symObjAddr: 0xD3E0, symBinAddr: 0x30530, symSize: 0x140 }
  - { offset: 0x18C9DA, size: 0x8, addend: 0x0, symName: __ZNSt3__17__stateIcEC2ERKS1_, symObjAddr: 0xD530, symBinAddr: 0x30680, symSize: 0x1A0 }
  - { offset: 0x18D052, size: 0x8, addend: 0x0, symName: __ZNSt3__17__stateIcED1Ev, symObjAddr: 0xCD10, symBinAddr: 0x2FE60, symSize: 0x40 }
  - { offset: 0x18D309, size: 0x8, addend: 0x0, symName: __ZNSt3__16vectorINS_7__stateIcEENS_9allocatorIS2_EEED1B8ne190102Ev, symObjAddr: 0xCDF0, symBinAddr: 0x2FF40, symSize: 0x80 }
  - { offset: 0x18D9F5, size: 0x8, addend: 0x0, symName: __ZNKSt3__16vectorINS_9sub_matchIPKcEENS_9allocatorIS4_EEE20__throw_length_errorB8ne190102Ev, symObjAddr: 0xCD00, symBinAddr: 0x2FE50, symSize: 0x10 }
  - { offset: 0x18DA1F, size: 0x8, addend: 0x0, symName: __ZNSt3__17__stateIcED1Ev, symObjAddr: 0xCD10, symBinAddr: 0x2FE60, symSize: 0x40 }
  - { offset: 0x18DCA1, size: 0x8, addend: 0x0, symName: __ZNSt3__16vectorINS_7__stateIcEENS_9allocatorIS2_EEE26__swap_out_circular_bufferERNS_14__split_bufferIS2_RS4_EE, symObjAddr: 0xD040, symBinAddr: 0x30190, symSize: 0x170 }
  - { offset: 0x18E26D, size: 0x8, addend: 0x0, symName: __ZNKSt3__16vectorINS_7__stateIcEENS_9allocatorIS2_EEE20__throw_length_errorB8ne190102Ev, symObjAddr: 0xD230, symBinAddr: 0x30380, symSize: 0x10 }
  - { offset: 0x18E297, size: 0x8, addend: 0x0, symName: __ZNSt3__16vectorINS_9sub_matchIPKcEENS_9allocatorIS4_EEE8__appendEmRKS4_, symObjAddr: 0xD240, symBinAddr: 0x30390, symSize: 0x1A0 }
  - { offset: 0x18E2A2, size: 0x8, addend: 0x0, symName: __ZNSt3__114__split_bufferINS_7__stateIcEERNS_9allocatorIS2_EEED1Ev, symObjAddr: 0xD1B0, symBinAddr: 0x30300, symSize: 0x80 }
  - { offset: 0x18EB23, size: 0x8, addend: 0x0, symName: __ZNKSt3__16vectorINS_4pairImPKcEENS_9allocatorIS4_EEE20__throw_length_errorB8ne190102Ev, symObjAddr: 0xD520, symBinAddr: 0x30670, symSize: 0x10 }
  - { offset: 0x18EB4D, size: 0x8, addend: 0x0, symName: __ZNSt3__17__stateIcEC2ERKS1_, symObjAddr: 0xD530, symBinAddr: 0x30680, symSize: 0x1A0 }
  - { offset: 0x18EF80, size: 0x8, addend: 0x0, symName: __ZNSt3__111basic_regexIcNS_12regex_traitsIcEEE11__push_charEc, symObjAddr: 0xE2F0, symBinAddr: 0x31440, symSize: 0x140 }
  - { offset: 0x18F31F, size: 0x8, addend: 0x0, symName: __ZNSt3__111basic_regexIcNS_12regex_traitsIcEEE15__push_back_refEi, symObjAddr: 0xE480, symBinAddr: 0x315D0, symSize: 0xD0 }
  - { offset: 0x18F573, size: 0x8, addend: 0x0, symName: __ZNSt3__111basic_regexIcNS_12regex_traitsIcEEE30__parse_character_class_escapeINS_11__wrap_iterIPKcEEEET_S9_S9_, symObjAddr: 0xDBE0, symBinAddr: 0x30D30, symSize: 0x2E0 }
  - { offset: 0x18FB16, size: 0x8, addend: 0x0, symName: __ZNSt3__111basic_regexIcNS_12regex_traitsIcEEE24__parse_character_escapeINS_11__wrap_iterIPKcEEEET_S9_S9_PNS_12basic_stringIcNS_11char_traitsIcEENS_9allocatorIcEEEE, symObjAddr: 0xDEC0, symBinAddr: 0x31010, symSize: 0x430 }
  - { offset: 0x19016B, size: 0x8, addend: 0x0, symName: __ZNSt3__120__bracket_expressionIcNS_12regex_traitsIcEEEC2B8ne190102ERKS2_PNS_6__nodeIcEEbbb, symObjAddr: 0xECF0, symBinAddr: 0x31E40, symSize: 0x1A0 }
  - { offset: 0x19088A, size: 0x8, addend: 0x0, symName: __ZNSt3__120__bracket_expressionIcNS_12regex_traitsIcEEE10__add_charB8ne190102Ec, symObjAddr: 0xEB70, symBinAddr: 0x31CC0, symSize: 0x180 }
  - { offset: 0x190B50, size: 0x8, addend: 0x0, symName: __ZNSt3__111basic_regexIcNS_12regex_traitsIcEEE23__parse_expression_termINS_11__wrap_iterIPKcEEEET_S9_S9_PNS_20__bracket_expressionIcS2_EE, symObjAddr: 0x10080, symBinAddr: 0x331C0, symSize: 0x420 }
  - { offset: 0x191B48, size: 0x8, addend: 0x0, symName: __ZNSt3__123__match_any_but_newlineIcED1Ev, symObjAddr: 0xDB20, symBinAddr: 0x30C70, symSize: 0x30 }
  - { offset: 0x191BD1, size: 0x8, addend: 0x0, symName: __ZNSt3__123__match_any_but_newlineIcED0Ev, symObjAddr: 0xDB50, symBinAddr: 0x30CA0, symSize: 0x40 }
  - { offset: 0x191C01, size: 0x8, addend: 0x0, symName: __ZNSt3__123__match_any_but_newlineIcED0Ev, symObjAddr: 0xDB50, symBinAddr: 0x30CA0, symSize: 0x40 }
  - { offset: 0x191C1F, size: 0x8, addend: 0x0, symName: __ZNSt3__123__match_any_but_newlineIcED0Ev, symObjAddr: 0xDB50, symBinAddr: 0x30CA0, symSize: 0x40 }
  - { offset: 0x191C3D, size: 0x8, addend: 0x0, symName: __ZNSt3__123__match_any_but_newlineIcED0Ev, symObjAddr: 0xDB50, symBinAddr: 0x30CA0, symSize: 0x40 }
  - { offset: 0x19206F, size: 0x8, addend: 0x0, symName: __ZNSt3__118__match_char_icaseIcNS_12regex_traitsIcEEED1Ev, symObjAddr: 0xE550, symBinAddr: 0x316A0, symSize: 0x50 }
  - { offset: 0x192132, size: 0x8, addend: 0x0, symName: __ZNSt3__118__match_char_icaseIcNS_12regex_traitsIcEEED0Ev, symObjAddr: 0xE5A0, symBinAddr: 0x316F0, symSize: 0x50 }
  - { offset: 0x1921FD, size: 0x8, addend: 0x0, symName: __ZNKSt3__118__match_char_icaseIcNS_12regex_traitsIcEEE6__execERNS_7__stateIcEE, symObjAddr: 0xE5F0, symBinAddr: 0x31740, symSize: 0x50 }
  - { offset: 0x1922B6, size: 0x8, addend: 0x0, symName: __ZNSt3__120__match_char_collateIcNS_12regex_traitsIcEEED1Ev, symObjAddr: 0xE640, symBinAddr: 0x31790, symSize: 0x50 }
  - { offset: 0x192379, size: 0x8, addend: 0x0, symName: __ZNSt3__120__match_char_collateIcNS_12regex_traitsIcEEED0Ev, symObjAddr: 0xE690, symBinAddr: 0x317E0, symSize: 0x50 }
  - { offset: 0x192444, size: 0x8, addend: 0x0, symName: __ZNKSt3__120__match_char_collateIcNS_12regex_traitsIcEEE6__execERNS_7__stateIcEE, symObjAddr: 0xE6E0, symBinAddr: 0x31830, symSize: 0x40 }
  - { offset: 0x1924B2, size: 0x8, addend: 0x0, symName: __ZNSt3__112__match_charIcED1Ev, symObjAddr: 0xE720, symBinAddr: 0x31870, symSize: 0x30 }
  - { offset: 0x19253B, size: 0x8, addend: 0x0, symName: __ZNSt3__112__match_charIcED0Ev, symObjAddr: 0xE750, symBinAddr: 0x318A0, symSize: 0x40 }
  - { offset: 0x19256B, size: 0x8, addend: 0x0, symName: __ZNSt3__112__match_charIcED0Ev, symObjAddr: 0xE750, symBinAddr: 0x318A0, symSize: 0x40 }
  - { offset: 0x192589, size: 0x8, addend: 0x0, symName: __ZNSt3__112__match_charIcED0Ev, symObjAddr: 0xE750, symBinAddr: 0x318A0, symSize: 0x40 }
  - { offset: 0x1925A7, size: 0x8, addend: 0x0, symName: __ZNSt3__112__match_charIcED0Ev, symObjAddr: 0xE750, symBinAddr: 0x318A0, symSize: 0x40 }
  - { offset: 0x1925D2, size: 0x8, addend: 0x0, symName: __ZNKSt3__112__match_charIcE6__execERNS_7__stateIcEE, symObjAddr: 0xE790, symBinAddr: 0x318E0, symSize: 0x40 }
  - { offset: 0x192640, size: 0x8, addend: 0x0, symName: __ZNSt3__116__back_ref_icaseIcNS_12regex_traitsIcEEED1Ev, symObjAddr: 0xE7D0, symBinAddr: 0x31920, symSize: 0x50 }
  - { offset: 0x192703, size: 0x8, addend: 0x0, symName: __ZNSt3__116__back_ref_icaseIcNS_12regex_traitsIcEEED0Ev, symObjAddr: 0xE820, symBinAddr: 0x31970, symSize: 0x50 }
  - { offset: 0x1927CE, size: 0x8, addend: 0x0, symName: __ZNKSt3__116__back_ref_icaseIcNS_12regex_traitsIcEEE6__execERNS_7__stateIcEE, symObjAddr: 0xE870, symBinAddr: 0x319C0, symSize: 0xC0 }
  - { offset: 0x19293C, size: 0x8, addend: 0x0, symName: __ZNSt3__118__back_ref_collateIcNS_12regex_traitsIcEEED1Ev, symObjAddr: 0xE930, symBinAddr: 0x31A80, symSize: 0x50 }
  - { offset: 0x1929FF, size: 0x8, addend: 0x0, symName: __ZNSt3__118__back_ref_collateIcNS_12regex_traitsIcEEED0Ev, symObjAddr: 0xE980, symBinAddr: 0x31AD0, symSize: 0x50 }
  - { offset: 0x192ACA, size: 0x8, addend: 0x0, symName: __ZNKSt3__118__back_ref_collateIcNS_12regex_traitsIcEEE6__execERNS_7__stateIcEE, symObjAddr: 0xE9D0, symBinAddr: 0x31B20, symSize: 0x80 }
  - { offset: 0x192BA3, size: 0x8, addend: 0x0, symName: __ZNSt3__110__back_refIcED1Ev, symObjAddr: 0xEA50, symBinAddr: 0x31BA0, symSize: 0x30 }
  - { offset: 0x192C2C, size: 0x8, addend: 0x0, symName: __ZNSt3__110__back_refIcED0Ev, symObjAddr: 0xEA80, symBinAddr: 0x31BD0, symSize: 0x40 }
  - { offset: 0x192C5C, size: 0x8, addend: 0x0, symName: __ZNSt3__110__back_refIcED0Ev, symObjAddr: 0xEA80, symBinAddr: 0x31BD0, symSize: 0x40 }
  - { offset: 0x192C7A, size: 0x8, addend: 0x0, symName: __ZNSt3__110__back_refIcED0Ev, symObjAddr: 0xEA80, symBinAddr: 0x31BD0, symSize: 0x40 }
  - { offset: 0x192C98, size: 0x8, addend: 0x0, symName: __ZNSt3__110__back_refIcED0Ev, symObjAddr: 0xEA80, symBinAddr: 0x31BD0, symSize: 0x40 }
  - { offset: 0x192CC3, size: 0x8, addend: 0x0, symName: __ZNKSt3__110__back_refIcE6__execERNS_7__stateIcEE, symObjAddr: 0xEAC0, symBinAddr: 0x31C10, symSize: 0xB0 }
  - { offset: 0x1930A2, size: 0x8, addend: 0x0, symName: __ZNKSt3__16vectorIcNS_9allocatorIcEEE20__throw_length_errorB8ne190102Ev, symObjAddr: 0x10020, symBinAddr: 0x33160, symSize: 0x10 }
  - { offset: 0x1930CC, size: 0x8, addend: 0x0, symName: __ZNSt3__119__throw_regex_errorB8ne190102ILNS_15regex_constants10error_typeE5EEEvv, symObjAddr: 0x10030, symBinAddr: 0x33170, symSize: 0x50 }
  - { offset: 0x193315, size: 0x8, addend: 0x0, symName: __ZNSt3__16vectorINS_12basic_stringIcNS_11char_traitsIcEENS_9allocatorIcEEEENS4_IS6_EEED1B8ne190102Ev, symObjAddr: 0xEE90, symBinAddr: 0x31FE0, symSize: 0x70 }
  - { offset: 0x19358D, size: 0x8, addend: 0x0, symName: __ZNSt3__16vectorINS_4pairINS_12basic_stringIcNS_11char_traitsIcEENS_9allocatorIcEEEES7_EENS5_IS8_EEED1B8ne190102Ev, symObjAddr: 0xEF00, symBinAddr: 0x32050, symSize: 0x90 }
  - { offset: 0x193BD9, size: 0x8, addend: 0x0, symName: __ZNSt3__120__bracket_expressionIcNS_12regex_traitsIcEEED1Ev, symObjAddr: 0xEF90, symBinAddr: 0x320E0, symSize: 0x10 }
  - { offset: 0x193C0F, size: 0x8, addend: 0x0, symName: __ZNSt3__120__bracket_expressionIcNS_12regex_traitsIcEEED2Ev, symObjAddr: 0xFA20, symBinAddr: 0x32B60, symSize: 0x150 }
  - { offset: 0x1946DD, size: 0x8, addend: 0x0, symName: __ZNSt3__120__bracket_expressionIcNS_12regex_traitsIcEEED0Ev, symObjAddr: 0xEFA0, symBinAddr: 0x320F0, symSize: 0x20 }
  - { offset: 0x194B41, size: 0x8, addend: 0x0, symName: __ZNKSt3__120__bracket_expressionIcNS_12regex_traitsIcEEE6__execERNS_7__stateIcEE, symObjAddr: 0xEFC0, symBinAddr: 0x32110, symSize: 0xA10 }
  - { offset: 0x1966E7, size: 0x8, addend: 0x0, symName: __ZNKSt3__112regex_traitsIcE20__lookup_collatenameIPcEENS_12basic_stringIcNS_11char_traitsIcEENS_9allocatorIcEEEET_SA_c, symObjAddr: 0xFC80, symBinAddr: 0x32DC0, symSize: 0x220 }
  - { offset: 0x197353, size: 0x8, addend: 0x0, symName: __ZNKSt3__112regex_traitsIcE9transformIPcEENS_12basic_stringIcNS_11char_traitsIcEENS_9allocatorIcEEEET_SA_, symObjAddr: 0xFB70, symBinAddr: 0x32CB0, symSize: 0x110 }
  - { offset: 0x1979D0, size: 0x8, addend: 0x0, symName: __ZNKSt3__112regex_traitsIcE19__transform_primaryIPcEENS_12basic_stringIcNS_11char_traitsIcEENS_9allocatorIcEEEET_SA_c, symObjAddr: 0xFEA0, symBinAddr: 0x32FE0, symSize: 0x180 }
  - { offset: 0x19818B, size: 0x8, addend: 0x0, symName: __ZNSt3__14pairINS_12basic_stringIcNS_11char_traitsIcEENS_9allocatorIcEEEES6_ED1Ev, symObjAddr: 0xF9E0, symBinAddr: 0x32B20, symSize: 0x40 }
  - { offset: 0x1984B8, size: 0x8, addend: 0x0, symName: __ZNSt3__111basic_regexIcNS_12regex_traitsIcEEE25__parse_equivalence_classINS_11__wrap_iterIPKcEEEET_S9_S9_PNS_20__bracket_expressionIcS2_EE, symObjAddr: 0x104A0, symBinAddr: 0x335E0, symSize: 0x250 }
  - { offset: 0x199050, size: 0x8, addend: 0x0, symName: __ZNSt3__111basic_regexIcNS_12regex_traitsIcEEE18__parse_awk_escapeINS_11__wrap_iterIPKcEEEET_S9_S9_PNS_12basic_stringIcNS_11char_traitsIcEENS_9allocatorIcEEEE, symObjAddr: 0x109F0, symBinAddr: 0x33B30, symSize: 0x2E0 }
  - { offset: 0x1991C3, size: 0x8, addend: 0x0, symName: __ZNSt3__111basic_regexIcNS_12regex_traitsIcEEE23__parse_character_classINS_11__wrap_iterIPKcEEEET_S9_S9_PNS_20__bracket_expressionIcS2_EE, symObjAddr: 0x106F0, symBinAddr: 0x33830, symSize: 0x90 }
  - { offset: 0x1994FA, size: 0x8, addend: 0x0, symName: __ZNSt3__111basic_regexIcNS_12regex_traitsIcEEE24__parse_collating_symbolINS_11__wrap_iterIPKcEEEET_S9_S9_RNS_12basic_stringIcNS_11char_traitsIcEENS_9allocatorIcEEEE, symObjAddr: 0x10780, symBinAddr: 0x338C0, symSize: 0xD0 }
  - { offset: 0x199938, size: 0x8, addend: 0x0, symName: __ZNSt3__111basic_regexIcNS_12regex_traitsIcEEE20__parse_class_escapeINS_11__wrap_iterIPKcEEEET_S9_S9_RNS_12basic_stringIcNS_11char_traitsIcEENS_9allocatorIcEEEEPNS_20__bracket_expressionIcS2_EE, symObjAddr: 0x10850, symBinAddr: 0x33990, symSize: 0x1A0 }
  - { offset: 0x199B17, size: 0x8, addend: 0x0, symName: __ZNSt3__120__bracket_expressionIcNS_12regex_traitsIcEEE13__add_digraphB8ne190102Ecc, symObjAddr: 0x11340, symBinAddr: 0x34480, symSize: 0x1E0 }
  - { offset: 0x19A10E, size: 0x8, addend: 0x0, symName: __ZNSt3__119__throw_regex_errorB8ne190102ILNS_15regex_constants10error_typeE1EEEvv, symObjAddr: 0x11520, symBinAddr: 0x34660, symSize: 0x50 }
  - { offset: 0x19A119, size: 0x8, addend: 0x0, symName: __ZNSt3__120__bracket_expressionIcNS_12regex_traitsIcEEE11__add_rangeB8ne190102ENS_12basic_stringIcNS_11char_traitsIcEENS_9allocatorIcEEEES9_, symObjAddr: 0x10CD0, symBinAddr: 0x33E10, symSize: 0x670 }
  - { offset: 0x19C028, size: 0x8, addend: 0x0, symName: __ZNKSt3__112regex_traitsIcE20__lookup_collatenameINS_11__wrap_iterIPKcEEEENS_12basic_stringIcNS_11char_traitsIcEENS_9allocatorIcEEEET_SD_c, symObjAddr: 0x11570, symBinAddr: 0x346B0, symSize: 0x220 }
  - { offset: 0x19CCA9, size: 0x8, addend: 0x0, symName: __ZNKSt3__112regex_traitsIcE19__transform_primaryINS_11__wrap_iterIPcEEEENS_12basic_stringIcNS_11char_traitsIcEENS_9allocatorIcEEEET_SC_c, symObjAddr: 0x11790, symBinAddr: 0x348D0, symSize: 0x180 }
  - { offset: 0x19D479, size: 0x8, addend: 0x0, symName: __ZNSt3__16vectorINS_12basic_stringIcNS_11char_traitsIcEENS_9allocatorIcEEEENS4_IS6_EEE21__push_back_slow_pathIRKS6_EEPS6_OT_, symObjAddr: 0x11910, symBinAddr: 0x34A50, symSize: 0x180 }
  - { offset: 0x19D99E, size: 0x8, addend: 0x0, symName: __ZNKSt3__112regex_traitsIcE18__lookup_classnameINS_11__wrap_iterIPKcEEEEjT_S7_bc, symObjAddr: 0x11B50, symBinAddr: 0x34C90, symSize: 0x120 }
  - { offset: 0x19E12D, size: 0x8, addend: 0x0, symName: __ZNSt3__120__bracket_expressionIcNS_12regex_traitsIcEEE14__add_neg_charB8ne190102Ec, symObjAddr: 0x11C70, symBinAddr: 0x34DB0, symSize: 0x180 }
  - { offset: 0x19E7BE, size: 0x8, addend: 0x0, symName: __ZNKSt3__112regex_traitsIcE9transformINS_11__wrap_iterIPcEEEENS_12basic_stringIcNS_11char_traitsIcEENS_9allocatorIcEEEET_SC_, symObjAddr: 0x11DF0, symBinAddr: 0x34F30, symSize: 0x110 }
  - { offset: 0x19EE74, size: 0x8, addend: 0x0, symName: __ZNKSt3__16vectorINS_4pairINS_12basic_stringIcNS_11char_traitsIcEENS_9allocatorIcEEEES7_EENS5_IS8_EEE20__throw_length_errorB8ne190102Ev, symObjAddr: 0x11F50, symBinAddr: 0x35090, symSize: 0x10 }
  - { offset: 0x19EE9E, size: 0x8, addend: 0x0, symName: __ZNKSt3__16vectorINS_4pairIccEENS_9allocatorIS2_EEE20__throw_length_errorB8ne190102Ev, symObjAddr: 0x11F60, symBinAddr: 0x350A0, symSize: 0x10 }
  - { offset: 0x19F17C, size: 0x8, addend: 0x0, symName: __ZNKSt3__16vectorINS_4pairIccEENS_9allocatorIS2_EEE20__throw_length_errorB8ne190102Ev, symObjAddr: 0x11F60, symBinAddr: 0x350A0, symSize: 0x10 }
  - { offset: 0x19F1A6, size: 0x8, addend: 0x0, symName: __ZNSt3__128__begin_marked_subexpressionIcED1Ev, symObjAddr: 0x11F70, symBinAddr: 0x350B0, symSize: 0x30 }
  - { offset: 0x19F6F0, size: 0x8, addend: 0x0, symName: __ZNKSt3__16vectorINS_12basic_stringIcNS_11char_traitsIcEENS_9allocatorIcEEEENS4_IS6_EEE20__throw_length_errorB8ne190102Ev, symObjAddr: 0x11AF0, symBinAddr: 0x34C30, symSize: 0x10 }
  - { offset: 0x19F71A, size: 0x8, addend: 0x0, symName: __ZNSt3__119__throw_regex_errorB8ne190102ILNS_15regex_constants10error_typeE2EEEvv, symObjAddr: 0x11B00, symBinAddr: 0x34C40, symSize: 0x50 }
  - { offset: 0x19F725, size: 0x8, addend: 0x0, symName: __ZNSt3__114__split_bufferINS_12basic_stringIcNS_11char_traitsIcEENS_9allocatorIcEEEERNS4_IS6_EEED1Ev, symObjAddr: 0x11A90, symBinAddr: 0x34BD0, symSize: 0x60 }
  - { offset: 0x19FA3B, size: 0x8, addend: 0x0, symName: __ZNSt3__128__begin_marked_subexpressionIcED1Ev, symObjAddr: 0x11F70, symBinAddr: 0x350B0, symSize: 0x30 }
  - { offset: 0x19FAC4, size: 0x8, addend: 0x0, symName: __ZNSt3__128__begin_marked_subexpressionIcED0Ev, symObjAddr: 0x11FA0, symBinAddr: 0x350E0, symSize: 0x40 }
  - { offset: 0x19FAF4, size: 0x8, addend: 0x0, symName: __ZNSt3__128__begin_marked_subexpressionIcED0Ev, symObjAddr: 0x11FA0, symBinAddr: 0x350E0, symSize: 0x40 }
  - { offset: 0x19FB12, size: 0x8, addend: 0x0, symName: __ZNSt3__128__begin_marked_subexpressionIcED0Ev, symObjAddr: 0x11FA0, symBinAddr: 0x350E0, symSize: 0x40 }
  - { offset: 0x19FB30, size: 0x8, addend: 0x0, symName: __ZNSt3__128__begin_marked_subexpressionIcED0Ev, symObjAddr: 0x11FA0, symBinAddr: 0x350E0, symSize: 0x40 }
  - { offset: 0x19FB5B, size: 0x8, addend: 0x0, symName: __ZNKSt3__128__begin_marked_subexpressionIcE6__execERNS_7__stateIcEE, symObjAddr: 0x11FE0, symBinAddr: 0x35120, symSize: 0x30 }
  - { offset: 0x19FBEF, size: 0x8, addend: 0x0, symName: __ZNSt3__126__end_marked_subexpressionIcED1Ev, symObjAddr: 0x12010, symBinAddr: 0x35150, symSize: 0x30 }
  - { offset: 0x19FC78, size: 0x8, addend: 0x0, symName: __ZNSt3__126__end_marked_subexpressionIcED0Ev, symObjAddr: 0x12040, symBinAddr: 0x35180, symSize: 0x40 }
  - { offset: 0x19FCA8, size: 0x8, addend: 0x0, symName: __ZNSt3__126__end_marked_subexpressionIcED0Ev, symObjAddr: 0x12040, symBinAddr: 0x35180, symSize: 0x40 }
  - { offset: 0x19FCC6, size: 0x8, addend: 0x0, symName: __ZNSt3__126__end_marked_subexpressionIcED0Ev, symObjAddr: 0x12040, symBinAddr: 0x35180, symSize: 0x40 }
  - { offset: 0x19FCE4, size: 0x8, addend: 0x0, symName: __ZNSt3__126__end_marked_subexpressionIcED0Ev, symObjAddr: 0x12040, symBinAddr: 0x35180, symSize: 0x40 }
  - { offset: 0x19FD0F, size: 0x8, addend: 0x0, symName: __ZNKSt3__126__end_marked_subexpressionIcE6__execERNS_7__stateIcEE, symObjAddr: 0x12080, symBinAddr: 0x351C0, symSize: 0x30 }
  - { offset: 0x1A001C, size: 0x8, addend: 0x0, symName: __ZNSt3__16__loopIcED0Ev, symObjAddr: 0x122F0, symBinAddr: 0x35430, symSize: 0x60 }
  - { offset: 0x1A010D, size: 0x8, addend: 0x0, symName: __ZNSt3__16__loopIcED1Ev, symObjAddr: 0x122A0, symBinAddr: 0x353E0, symSize: 0x50 }
  - { offset: 0x1A0235, size: 0x8, addend: 0x0, symName: __ZNKSt3__16__loopIcE6__execERNS_7__stateIcEE, symObjAddr: 0x12350, symBinAddr: 0x35490, symSize: 0x260 }
  - { offset: 0x1A039B, size: 0x8, addend: 0x0, symName: __ZNKSt3__16__loopIcE12__exec_splitEbRNS_7__stateIcEE, symObjAddr: 0x125B0, symBinAddr: 0x356F0, symSize: 0xF0 }
  - { offset: 0x1A0482, size: 0x8, addend: 0x0, symName: __ZNSt3__117__owns_two_statesIcED1Ev, symObjAddr: 0x126A0, symBinAddr: 0x357E0, symSize: 0x50 }
  - { offset: 0x1A0514, size: 0x8, addend: 0x0, symName: __ZNSt3__117__owns_two_statesIcED0Ev, symObjAddr: 0x126F0, symBinAddr: 0x35830, symSize: 0x60 }
  - { offset: 0x1A05AE, size: 0x8, addend: 0x0, symName: __ZNSt3__117__repeat_one_loopIcED1Ev, symObjAddr: 0x12750, symBinAddr: 0x35890, symSize: 0x10 }
  - { offset: 0x1A05DA, size: 0x8, addend: 0x0, symName: __ZNSt3__117__repeat_one_loopIcED0Ev, symObjAddr: 0x12760, symBinAddr: 0x358A0, symSize: 0x10 }
  - { offset: 0x1A0606, size: 0x8, addend: 0x0, symName: __ZNKSt3__117__repeat_one_loopIcE6__execERNS_7__stateIcEE, symObjAddr: 0x12770, symBinAddr: 0x358B0, symSize: 0x20 }
  - { offset: 0x1A0674, size: 0x8, addend: 0x0, symName: __ZNSt3__111__alternateIcED1Ev, symObjAddr: 0x12790, symBinAddr: 0x358D0, symSize: 0x50 }
  - { offset: 0x1A0728, size: 0x8, addend: 0x0, symName: __ZNSt3__111__alternateIcED0Ev, symObjAddr: 0x127E0, symBinAddr: 0x35920, symSize: 0x60 }
  - { offset: 0x1A07E2, size: 0x8, addend: 0x0, symName: __ZNKSt3__111__alternateIcE6__execERNS_7__stateIcEE, symObjAddr: 0x12840, symBinAddr: 0x35980, symSize: 0x10 }
  - { offset: 0x1A0816, size: 0x8, addend: 0x0, symName: __ZNKSt3__111__alternateIcE12__exec_splitEbRNS_7__stateIcEE, symObjAddr: 0x12850, symBinAddr: 0x35990, symSize: 0x20 }
  - { offset: 0x1A0865, size: 0x8, addend: 0x0, symName: __ZNSt3__121__empty_non_own_stateIcED1Ev, symObjAddr: 0x12870, symBinAddr: 0x359B0, symSize: 0x10 }
  - { offset: 0x1A0891, size: 0x8, addend: 0x0, symName: __ZNSt3__121__empty_non_own_stateIcED0Ev, symObjAddr: 0x12880, symBinAddr: 0x359C0, symSize: 0x10 }
  - { offset: 0x1A08BD, size: 0x8, addend: 0x0, symName: __ZNKSt3__121__empty_non_own_stateIcE6__execERNS_7__stateIcEE, symObjAddr: 0x12890, symBinAddr: 0x359D0, symSize: 0x20 }
  - { offset: 0x1A0A0D, size: 0x8, addend: 0x0, symName: __ZNSt3__111basic_regexIcNS_12regex_traitsIcEEE32__parse_one_char_or_coll_elem_REINS_11__wrap_iterIPKcEEEET_S9_S9_, symObjAddr: 0x12D40, symBinAddr: 0x35E80, symSize: 0xE0 }
  - { offset: 0x1A0E1A, size: 0x8, addend: 0x0, symName: __ZNSt3__111__match_anyIcED1Ev, symObjAddr: 0x12E20, symBinAddr: 0x35F60, symSize: 0x30 }
  - { offset: 0x1A0EA3, size: 0x8, addend: 0x0, symName: __ZNSt3__111__match_anyIcED0Ev, symObjAddr: 0x12E50, symBinAddr: 0x35F90, symSize: 0x40 }
  - { offset: 0x1A0ED3, size: 0x8, addend: 0x0, symName: __ZNSt3__111__match_anyIcED0Ev, symObjAddr: 0x12E50, symBinAddr: 0x35F90, symSize: 0x40 }
  - { offset: 0x1A0EF1, size: 0x8, addend: 0x0, symName: __ZNSt3__111__match_anyIcED0Ev, symObjAddr: 0x12E50, symBinAddr: 0x35F90, symSize: 0x40 }
  - { offset: 0x1A0F0F, size: 0x8, addend: 0x0, symName: __ZNSt3__111__match_anyIcED0Ev, symObjAddr: 0x12E50, symBinAddr: 0x35F90, symSize: 0x40 }
  - { offset: 0x1A0F3A, size: 0x8, addend: 0x0, symName: __ZNKSt3__111__match_anyIcE6__execERNS_7__stateIcEE, symObjAddr: 0x12E90, symBinAddr: 0x35FD0, symSize: 0x40 }
  - { offset: 0x1A0F8B, size: 0x8, addend: 0x0, symName: __ZNSt3__111basic_regexIcNS_12regex_traitsIcEEE15__test_back_refEc, symObjAddr: 0x12ED0, symBinAddr: 0x36010, symSize: 0x50 }
  - { offset: 0x1A10B5, size: 0x8, addend: 0x0, symName: __ZNSt3__111basic_regexIcNS_12regex_traitsIcEEE20__parse_ORD_CHAR_EREINS_11__wrap_iterIPKcEEEET_S9_S9_, symObjAddr: 0x13180, symBinAddr: 0x362C0, symSize: 0x1C0 }
  - { offset: 0x1A1152, size: 0x8, addend: 0x0, symName: __ZNSt3__111basic_regexIcNS_12regex_traitsIcEEE23__parse_QUOTED_CHAR_EREINS_11__wrap_iterIPKcEEEET_S9_S9_, symObjAddr: 0x13340, symBinAddr: 0x36480, symSize: 0x200 }
  - { offset: 0x1A13BE, size: 0x8, addend: 0x0, symName: __ZNSt3__128__exception_guard_exceptionsINS_29_AllocatorDestroyRangeReverseINS_9allocatorINS_6vectorI21llama_grammar_elementNS2_IS4_EEEEEEPS6_EEED1B8ne190102Ev, symObjAddr: 0x136C0, symBinAddr: 0x36780, symSize: 0x50 }
  - { offset: 0x1A13EB, size: 0x8, addend: 0x0, symName: __ZNSt3__128__exception_guard_exceptionsINS_29_AllocatorDestroyRangeReverseINS_9allocatorINS_6vectorI21llama_grammar_elementNS2_IS4_EEEEEEPS6_EEED1B8ne190102Ev, symObjAddr: 0x136C0, symBinAddr: 0x36780, symSize: 0x50 }
  - { offset: 0x1A16EC, size: 0x8, addend: 0x0, symName: __ZNSt3__128__exception_guard_exceptionsINS_29_AllocatorDestroyRangeReverseINS_9allocatorINS_6vectorIPK21llama_grammar_elementNS2_IS6_EEEEEEPS8_EEED1B8ne190102Ev, symObjAddr: 0x13880, symBinAddr: 0x36940, symSize: 0x50 }
  - { offset: 0x1A1719, size: 0x8, addend: 0x0, symName: __ZNSt3__128__exception_guard_exceptionsINS_29_AllocatorDestroyRangeReverseINS_9allocatorINS_6vectorIPK21llama_grammar_elementNS2_IS6_EEEEEEPS8_EEED1B8ne190102Ev, symObjAddr: 0x13880, symBinAddr: 0x36940, symSize: 0x50 }
  - { offset: 0x1A1ADA, size: 0x8, addend: 0x0, symName: __ZNKSt3__111basic_regexIcNS_12regex_traitsIcEEE27__match_at_start_posix_subsINS_9allocatorINS_9sub_matchIPKcEEEEEEbS8_S8_RNS_13match_resultsIS8_T_EENS_15regex_constants15match_flag_typeEb, symObjAddr: 0x14A00, symBinAddr: 0x37AC0, symSize: 0x6F0 }
  - { offset: 0x1A393E, size: 0x8, addend: 0x0, symName: __ZNKSt3__111basic_regexIcNS_12regex_traitsIcEEE29__match_at_start_posix_nosubsINS_9allocatorINS_9sub_matchIPKcEEEEEEbS8_S8_RNS_13match_resultsIS8_T_EENS_15regex_constants15match_flag_typeEb, symObjAddr: 0x13FB0, symBinAddr: 0x37070, symSize: 0xA50 }
  - { offset: 0x1A5AB9, size: 0x8, addend: 0x0, symName: __ZNSt3__16vectorINS_9sub_matchINS_11__wrap_iterIPKcEEEENS_9allocatorIS6_EEE8__appendEm, symObjAddr: 0x166D0, symBinAddr: 0x39790, symSize: 0x190 }
  - { offset: 0x1A641C, size: 0x8, addend: 0x0, symName: __ZNSt3__15dequeINS_7__stateIcEENS_9allocatorIS2_EEE19__add_back_capacityEv, symObjAddr: 0x152B0, symBinAddr: 0x38370, symSize: 0x700 }
  - { offset: 0x1A7A89, size: 0x8, addend: 0x0, symName: __ZNSt3__15dequeINS_7__stateIcEENS_9allocatorIS2_EEE20__add_front_capacityEv, symObjAddr: 0x15D60, symBinAddr: 0x38E20, symSize: 0x400 }
  - { offset: 0x1A88E4, size: 0x8, addend: 0x0, symName: __ZNSt3__15dequeINS_7__stateIcEENS_9allocatorIS2_EEED1B8ne190102Ev, symObjAddr: 0x15240, symBinAddr: 0x38300, symSize: 0x70 }
  - { offset: 0x1A8C7C, size: 0x8, addend: 0x0, symName: __ZNSt3__16vectorINS_9sub_matchIPKcEENS_9allocatorIS4_EEE18__assign_with_sizeB8ne190102IPS4_S9_EEvT_T0_l, symObjAddr: 0x16330, symBinAddr: 0x393F0, symSize: 0x1F0 }
  - { offset: 0x1A950C, size: 0x8, addend: 0x0, symName: __ZNSt3__16vectorINS_4pairImPKcEENS_9allocatorIS4_EEE18__assign_with_sizeB8ne190102IPS4_S9_EEvT_T0_l, symObjAddr: 0x16520, symBinAddr: 0x395E0, symSize: 0x1B0 }
  - { offset: 0x1A9D21, size: 0x8, addend: 0x0, symName: __ZNSt3__15dequeINS_7__stateIcEENS_9allocatorIS2_EEE5clearEv, symObjAddr: 0x150F0, symBinAddr: 0x381B0, symSize: 0x150 }
  - { offset: 0x1AA812, size: 0x8, addend: 0x0, symName: __ZNSt3__114__split_bufferIPNS_7__stateIcEENS_9allocatorIS3_EEE9push_backEOS3_, symObjAddr: 0x159B0, symBinAddr: 0x38A70, symSize: 0x1E0 }
  - { offset: 0x1AACA4, size: 0x8, addend: 0x0, symName: __ZNSt3__114__split_bufferIPNS_7__stateIcEENS_9allocatorIS3_EEE10push_frontEOS3_, symObjAddr: 0x15B90, symBinAddr: 0x38C50, symSize: 0x1D0 }
  - { offset: 0x1AB1B4, size: 0x8, addend: 0x0, symName: __ZNSt3__114__split_bufferIPNS_7__stateIcEENS_9allocatorIS3_EEE10push_frontERKS3_, symObjAddr: 0x16160, symBinAddr: 0x39220, symSize: 0x1D0 }
  - { offset: 0x1ABA74, size: 0x8, addend: 0x0, symName: __ZNKSt3__16vectorINS_9sub_matchINS_11__wrap_iterIPKcEEEENS_9allocatorIS6_EEE20__throw_length_errorB8ne190102Ev, symObjAddr: 0x16860, symBinAddr: 0x39920, symSize: 0x10 }
  - { offset: 0x1D3FD0, size: 0x8, addend: 0x0, symName: __ZNSt3__125__throw_bad_function_callB8ne190102Ev, symObjAddr: 0x76F0, symBinAddr: 0x40E90, symSize: 0x40 }
  - { offset: 0x1DC54F, size: 0x8, addend: 0x0, symName: __ZN20llm_graph_input_embd9set_inputEPK12llama_ubatch, symObjAddr: 0x0, symBinAddr: 0x39930, symSize: 0x90 }
  - { offset: 0x1DC66A, size: 0x8, addend: 0x0, symName: __ZN20llm_graph_input_embd9can_reuseERK16llm_graph_params, symObjAddr: 0x90, symBinAddr: 0x399C0, symSize: 0x50 }
  - { offset: 0x1DC8EF, size: 0x8, addend: 0x0, symName: __ZN19llm_graph_input_pos9set_inputEPK12llama_ubatch, symObjAddr: 0xE0, symBinAddr: 0x39A10, symSize: 0x290 }
  - { offset: 0x1DCCD0, size: 0x8, addend: 0x0, symName: __ZN19llm_graph_input_pos9can_reuseERK16llm_graph_params, symObjAddr: 0x370, symBinAddr: 0x39CA0, symSize: 0x20 }
  - { offset: 0x1DCF7C, size: 0x8, addend: 0x0, symName: __ZN25llm_graph_input_attn_temp9set_inputEPK12llama_ubatch, symObjAddr: 0x390, symBinAddr: 0x39CC0, symSize: 0x260 }
  - { offset: 0x1DD3F6, size: 0x8, addend: 0x0, symName: __ZN26llm_graph_input_pos_bucket9set_inputEPK12llama_ubatch, symObjAddr: 0x5F0, symBinAddr: 0x39F20, symSize: 0x530 }
  - { offset: 0x1DD58A, size: 0x8, addend: 0x0, symName: __Z30llama_relative_position_bucketiiyb, symObjAddr: 0xB20, symBinAddr: 0x3A450, symSize: 0xF0 }
  - { offset: 0x1DD5EF, size: 0x8, addend: 0x0, symName: __ZN29llm_graph_input_pos_bucket_kv9set_inputEPK12llama_ubatch, symObjAddr: 0xC10, symBinAddr: 0x3A540, symSize: 0x20 }
  - { offset: 0x1DD627, size: 0x8, addend: 0x0, symName: __ZN23llm_graph_input_out_ids9set_inputEPK12llama_ubatch, symObjAddr: 0xC30, symBinAddr: 0x3A560, symSize: 0x1C0 }
  - { offset: 0x1DD700, size: 0x8, addend: 0x0, symName: __ZN23llm_graph_input_out_ids9can_reuseERK16llm_graph_params, symObjAddr: 0xDF0, symBinAddr: 0x3A720, symSize: 0x20 }
  - { offset: 0x1DD9AC, size: 0x8, addend: 0x0, symName: __ZN20llm_graph_input_mean9set_inputEPK12llama_ubatch, symObjAddr: 0xE10, symBinAddr: 0x3A740, symSize: 0x650 }
  - { offset: 0x1DE1FD, size: 0x8, addend: 0x0, symName: __ZN19llm_graph_input_cls9set_inputEPK12llama_ubatch, symObjAddr: 0x1460, symBinAddr: 0x3AD90, symSize: 0x470 }
  - { offset: 0x1DE858, size: 0x8, addend: 0x0, symName: __ZN18llm_graph_input_rs9set_inputEPK12llama_ubatch, symObjAddr: 0x18D0, symBinAddr: 0x3B200, symSize: 0xA0 }
  - { offset: 0x1DE906, size: 0x8, addend: 0x0, symName: __ZN26llm_graph_input_cross_embd9set_inputEPK12llama_ubatch, symObjAddr: 0x1970, symBinAddr: 0x3B2A0, symSize: 0x40 }
  - { offset: 0x1DE993, size: 0x8, addend: 0x0, symName: __ZN29llm_graph_input_attn_no_cache9set_inputEPK12llama_ubatch, symObjAddr: 0x19B0, symBinAddr: 0x3B2E0, symSize: 0x150 }
  - { offset: 0x1DEAFA, size: 0x8, addend: 0x0, symName: __ZN31llm_graph_input_attn_kv_unified9set_inputEPK12llama_ubatch, symObjAddr: 0x1B00, symBinAddr: 0x3B430, symSize: 0x60 }
  - { offset: 0x1DEB34, size: 0x8, addend: 0x0, symName: __ZN31llm_graph_input_attn_kv_unified9can_reuseERK16llm_graph_params, symObjAddr: 0x1B60, symBinAddr: 0x3B490, symSize: 0x80 }
  - { offset: 0x1DEB8E, size: 0x8, addend: 0x0, symName: __ZN36llm_graph_input_attn_kv_unified_iswa9set_inputEPK12llama_ubatch, symObjAddr: 0x1BE0, symBinAddr: 0x3B510, symSize: 0xD0 }
  - { offset: 0x1DEBC8, size: 0x8, addend: 0x0, symName: __ZN36llm_graph_input_attn_kv_unified_iswa9can_reuseERK16llm_graph_params, symObjAddr: 0x1CB0, symBinAddr: 0x3B5E0, symSize: 0xE0 }
  - { offset: 0x1DECFB, size: 0x8, addend: 0x0, symName: __ZN26llm_graph_input_attn_cross9set_inputEPK12llama_ubatch, symObjAddr: 0x1D90, symBinAddr: 0x3B6C0, symSize: 0x280 }
  - { offset: 0x1DF011, size: 0x8, addend: 0x0, symName: __ZN26llm_graph_input_mem_hybrid9set_inputEPK12llama_ubatch, symObjAddr: 0x2010, symBinAddr: 0x3B940, symSize: 0x30 }
  - { offset: 0x1DF307, size: 0x8, addend: 0x0, symName: __ZN16llm_graph_resultC2Ex, symObjAddr: 0x2040, symBinAddr: 0x3B970, symSize: 0x1D0 }
  - { offset: 0x1DF67F, size: 0x8, addend: 0x0, symName: __ZN16llm_graph_result5resetEv, symObjAddr: 0x2210, symBinAddr: 0x3BB40, symSize: 0x610 }
  - { offset: 0x1E0171, size: 0x8, addend: 0x0, symName: __ZNSt3__16vectorINS_10unique_ptrI17llm_graph_input_iNS_14default_deleteIS2_EEEENS_9allocatorIS5_EEED1B8ne190102Ev, symObjAddr: 0x28D0, symBinAddr: 0x3C150, symSize: 0x80 }
  - { offset: 0x1E0BD2, size: 0x8, addend: 0x0, symName: __ZNKSt3__16vectorINS_10unique_ptrI17llm_graph_input_iNS_14default_deleteIS2_EEEENS_9allocatorIS5_EEE20__throw_length_errorB8ne190102Ev, symObjAddr: 0x76E0, symBinAddr: 0x40E80, symSize: 0x10 }
  - { offset: 0x1E0CBC, size: 0x8, addend: 0x0, symName: __ZN16llm_graph_resultC1Ex, symObjAddr: 0x2950, symBinAddr: 0x3C1D0, symSize: 0x10 }
  - { offset: 0x1E0D14, size: 0x8, addend: 0x0, symName: __ZNK16llm_graph_result13get_max_nodesEv, symObjAddr: 0x2960, symBinAddr: 0x3C1E0, symSize: 0x10 }
  - { offset: 0x1E0DA2, size: 0x8, addend: 0x0, symName: __ZN16llm_graph_result10set_inputsEPK12llama_ubatch, symObjAddr: 0x2970, symBinAddr: 0x3C1F0, symSize: 0x40 }
  - { offset: 0x1E0ED1, size: 0x8, addend: 0x0, symName: __ZN16llm_graph_result9can_reuseERK16llm_graph_params, symObjAddr: 0x29B0, symBinAddr: 0x3C230, symSize: 0x110 }
  - { offset: 0x1E10A2, size: 0x8, addend: 0x0, symName: __ZNK16llm_graph_params11allow_reuseERKS_, symObjAddr: 0x2AC0, symBinAddr: 0x3C340, symSize: 0x270 }
  - { offset: 0x1E1597, size: 0x8, addend: 0x0, symName: __ZN16llm_graph_result9add_inputENSt3__110unique_ptrI17llm_graph_input_iNS0_14default_deleteIS2_EEEE, symObjAddr: 0x2D30, symBinAddr: 0x3C5B0, symSize: 0x120 }
  - { offset: 0x1E1B4D, size: 0x8, addend: 0x0, symName: __ZNKSt3__16vectorINS_10unique_ptrI17llm_graph_input_iNS_14default_deleteIS2_EEEENS_9allocatorIS5_EEE20__throw_length_errorB8ne190102Ev, symObjAddr: 0x76E0, symBinAddr: 0x40E80, symSize: 0x10 }
  - { offset: 0x1E1B77, size: 0x8, addend: 0x0, symName: __ZNSt3__125__throw_bad_function_callB8ne190102Ev, symObjAddr: 0x76F0, symBinAddr: 0x40E90, symSize: 0x40 }
  - { offset: 0x1E1D3B, size: 0x8, addend: 0x0, symName: __ZN16llm_graph_result10set_paramsERK16llm_graph_params, symObjAddr: 0x2E50, symBinAddr: 0x3C6D0, symSize: 0x1C0 }
  - { offset: 0x1E20FC, size: 0x8, addend: 0x0, symName: __ZNSt3__110__function12__value_funcIFvRK12llama_ubatchP11ggml_tensorPKciEE4swapB8ne190102ERSA_, symObjAddr: 0x74D0, symBinAddr: 0x40D40, symSize: 0x140 }
  - { offset: 0x1E2B15, size: 0x8, addend: 0x0, symName: __ZN17llm_graph_contextC2ERK16llm_graph_params, symObjAddr: 0x3010, symBinAddr: 0x3C890, symSize: 0x1A0 }
  - { offset: 0x1E2BBB, size: 0x8, addend: 0x0, symName: __ZN17llm_graph_contextC1ERK16llm_graph_params, symObjAddr: 0x31B0, symBinAddr: 0x3CA30, symSize: 0x10 }
  - { offset: 0x1E2CD7, size: 0x8, addend: 0x0, symName: __ZNK17llm_graph_context2cbEP11ggml_tensorPKci, symObjAddr: 0x31C0, symBinAddr: 0x3CA40, symSize: 0x50 }
  - { offset: 0x1E2DE2, size: 0x8, addend: 0x0, symName: __ZNK17llm_graph_context10build_cvecEP11ggml_tensori, symObjAddr: 0x3210, symBinAddr: 0x3CA90, symSize: 0x20 }
  - { offset: 0x1E2E7D, size: 0x8, addend: 0x0, symName: __ZNK17llm_graph_context13build_lora_mmEP11ggml_tensorS1_, symObjAddr: 0x3230, symBinAddr: 0x3CAB0, symSize: 0x100 }
  - { offset: 0x1E30AA, size: 0x8, addend: 0x0, symName: __ZNK17llm_graph_context16build_lora_mm_idEP11ggml_tensorS1_S1_, symObjAddr: 0x3330, symBinAddr: 0x3CBB0, symSize: 0x140 }
  - { offset: 0x1E32D9, size: 0x8, addend: 0x0, symName: __ZNK17llm_graph_context10build_normEP11ggml_tensorS1_S1_13llm_norm_typei, symObjAddr: 0x3470, symBinAddr: 0x3CCF0, symSize: 0x1C0 }
  - { offset: 0x1E3678, size: 0x8, addend: 0x0, symName: __ZNK17llm_graph_context9build_ffnEP11ggml_tensorS1_S1_S1_S1_S1_S1_S1_S1_S1_S1_15llm_ffn_op_type17llm_ffn_gate_typei, symObjAddr: 0x3630, symBinAddr: 0x3CEB0, symSize: 0x750 }
  - { offset: 0x1E48E4, size: 0x8, addend: 0x0, symName: __ZNK17llm_graph_context13build_moe_ffnEP11ggml_tensorS1_S1_S1_S1_S1_xx15llm_ffn_op_typebbf29llama_expert_gating_func_typeiS1_, symObjAddr: 0x3D80, symBinAddr: 0x3D600, symSize: 0xA0 }
  - { offset: 0x1E4A3C, size: 0x8, addend: 0x0, symName: __ZNK17llm_graph_context13build_moe_ffnEP11ggml_tensorS1_S1_S1_S1_S1_S1_S1_S1_S1_xx15llm_ffn_op_typebbf29llama_expert_gating_func_typeiS1_, symObjAddr: 0x3E20, symBinAddr: 0x3D6A0, symSize: 0xD90 }
  - { offset: 0x1E6A28, size: 0x8, addend: 0x0, symName: __ZNK17llm_graph_context14build_inp_embdEP11ggml_tensor, symObjAddr: 0x4BB0, symBinAddr: 0x3E430, symSize: 0x260 }
  - { offset: 0x1E715C, size: 0x8, addend: 0x0, symName: __ZNK17llm_graph_context13build_inp_posEv, symObjAddr: 0x4E10, symBinAddr: 0x3E690, symSize: 0xD0 }
  - { offset: 0x1E7590, size: 0x8, addend: 0x0, symName: __ZNK17llm_graph_context20build_inp_attn_scaleEv, symObjAddr: 0x4EE0, symBinAddr: 0x3E760, symSize: 0xD0 }
  - { offset: 0x1E7A2B, size: 0x8, addend: 0x0, symName: __ZNK17llm_graph_context17build_inp_out_idsEv, symObjAddr: 0x4FB0, symBinAddr: 0x3E830, symSize: 0x110 }
  - { offset: 0x1E7E77, size: 0x8, addend: 0x0, symName: __ZNK17llm_graph_context14build_inp_meanEv, symObjAddr: 0x50C0, symBinAddr: 0x3E940, symSize: 0xE0 }
  - { offset: 0x1E8290, size: 0x8, addend: 0x0, symName: __ZNK17llm_graph_context13build_inp_clsEv, symObjAddr: 0x51A0, symBinAddr: 0x3EA20, symSize: 0xE0 }
  - { offset: 0x1E86B3, size: 0x8, addend: 0x0, symName: __ZNK17llm_graph_context20build_inp_cross_embdEv, symObjAddr: 0x5280, symBinAddr: 0x3EB00, symSize: 0xC0 }
  - { offset: 0x1E8B0E, size: 0x8, addend: 0x0, symName: __ZNK17llm_graph_context24build_inp_pos_bucket_encEv, symObjAddr: 0x5340, symBinAddr: 0x3EBC0, symSize: 0xC0 }
  - { offset: 0x1E8F42, size: 0x8, addend: 0x0, symName: __ZNK17llm_graph_context24build_inp_pos_bucket_decEv, symObjAddr: 0x5400, symBinAddr: 0x3EC80, symSize: 0xE0 }
  - { offset: 0x1E9209, size: 0x8, addend: 0x0, symName: __ZNK17llm_graph_context14build_pos_biasEP11ggml_tensorS1_, symObjAddr: 0x54E0, symBinAddr: 0x3ED60, symSize: 0x120 }
  - { offset: 0x1E9513, size: 0x8, addend: 0x0, symName: __ZNK17llm_graph_context14build_attn_mhaEP11ggml_tensorS1_S1_S1_S1_S1_S1_f, symObjAddr: 0x5600, symBinAddr: 0x3EE80, symSize: 0x490 }
  - { offset: 0x1E9C36, size: 0x8, addend: 0x0, symName: __ZNK17llm_graph_context23build_attn_inp_no_cacheEv, symObjAddr: 0x5A90, symBinAddr: 0x3F310, symSize: 0x160 }
  - { offset: 0x1E9F3A, size: 0x8, addend: 0x0, symName: __ZNK17llm_graph_context10build_attnEP29llm_graph_input_attn_no_cacheP11ggml_tensorS3_S3_S3_S3_S3_S3_fi, symObjAddr: 0x5BF0, symBinAddr: 0x3F470, symSize: 0x100 }
  - { offset: 0x1EA356, size: 0x8, addend: 0x0, symName: __ZNK17llm_graph_context25build_attn_inp_kv_unifiedEv, symObjAddr: 0x5CF0, symBinAddr: 0x3F570, symSize: 0x80 }
  - { offset: 0x1EA5E1, size: 0x8, addend: 0x0, symName: __ZL30build_attn_inp_kv_unified_implP12ggml_contextRK12llama_ubatchRK13llama_hparamsRK13llama_cparamsPK30llama_kv_cache_unified_context, symObjAddr: 0x5D70, symBinAddr: 0x3F5F0, symSize: 0x1D0 }
  - { offset: 0x1EAB34, size: 0x8, addend: 0x0, symName: __ZNK17llm_graph_context10build_attnEP31llm_graph_input_attn_kv_unifiedP11ggml_tensorS3_S3_S3_S3_S3_S3_fi, symObjAddr: 0x5F40, symBinAddr: 0x3F7C0, symSize: 0x1C0 }
  - { offset: 0x1EAE9F, size: 0x8, addend: 0x0, symName: __ZNK17llm_graph_context10build_attnEP36llm_graph_input_attn_kv_unified_iswaP11ggml_tensorS3_S3_S3_S3_S3_S3_fi, symObjAddr: 0x6100, symBinAddr: 0x3F980, symSize: 0x40 }
  - { offset: 0x1EAFA8, size: 0x8, addend: 0x0, symName: __ZNK17llm_graph_context21build_attn_with_sinksEP36llm_graph_input_attn_kv_unified_iswaP11ggml_tensorS3_S3_S3_S3_S3_S3_S3_fi, symObjAddr: 0x6140, symBinAddr: 0x3F9C0, symSize: 0x230 }
  - { offset: 0x1EB45D, size: 0x8, addend: 0x0, symName: __ZNK17llm_graph_context20build_attn_inp_crossEv, symObjAddr: 0x6370, symBinAddr: 0x3FBF0, symSize: 0x110 }
  - { offset: 0x1EB753, size: 0x8, addend: 0x0, symName: __ZNK17llm_graph_context10build_attnEP26llm_graph_input_attn_crossP11ggml_tensorS3_S3_S3_S3_S3_S3_fi, symObjAddr: 0x6480, symBinAddr: 0x3FD00, symSize: 0x100 }
  - { offset: 0x1EBBC9, size: 0x8, addend: 0x0, symName: __ZNK17llm_graph_context30build_attn_inp_kv_unified_iswaEv, symObjAddr: 0x6580, symBinAddr: 0x3FE00, symSize: 0x2F0 }
  - { offset: 0x1EBFB6, size: 0x8, addend: 0x0, symName: __ZNK17llm_graph_context8build_rsEP11ggml_tensorS1_S1_iijjjiRKNSt3__18functionIFS1_P12ggml_contextS1_S1_EEE, symObjAddr: 0x6870, symBinAddr: 0x400F0, symSize: 0x180 }
  - { offset: 0x1EC40C, size: 0x8, addend: 0x0, symName: __ZNK17llm_graph_context12build_rs_inpEv, symObjAddr: 0x69F0, symBinAddr: 0x40270, symSize: 0x80 }
  - { offset: 0x1EC697, size: 0x8, addend: 0x0, symName: __ZL17build_rs_inp_implP12ggml_contextRK12llama_ubatchPK30llama_memory_recurrent_context, symObjAddr: 0x6A70, symBinAddr: 0x402F0, symSize: 0xD0 }
  - { offset: 0x1ECAFF, size: 0x8, addend: 0x0, symName: __ZNK17llm_graph_context8build_rsEP18llm_graph_input_rsP11ggml_tensoriiRKNSt3__18functionIFS3_P12ggml_contextS3_S3_EEE, symObjAddr: 0x6B40, symBinAddr: 0x403C0, symSize: 0xA0 }
  - { offset: 0x1ECF79, size: 0x8, addend: 0x0, symName: __ZNK17llm_graph_context27build_rwkv_token_shift_loadEP18llm_graph_input_rsRK12llama_ubatchi, symObjAddr: 0x6BE0, symBinAddr: 0x40460, symSize: 0x1B0 }
  - { offset: 0x1ED339, size: 0x8, addend: 0x0, symName: __ZNK17llm_graph_context28build_rwkv_token_shift_storeEP11ggml_tensorRK12llama_ubatchi, symObjAddr: 0x6D90, symBinAddr: 0x40610, symSize: 0xF0 }
  - { offset: 0x1ED7FF, size: 0x8, addend: 0x0, symName: __ZNK17llm_graph_context20build_inp_mem_hybridEv, symObjAddr: 0x6E80, symBinAddr: 0x40700, symSize: 0x140 }
  - { offset: 0x1EDDC9, size: 0x8, addend: 0x0, symName: __ZNK17llm_graph_context13build_poolingEP11ggml_tensorS1_S1_S1_, symObjAddr: 0x6FC0, symBinAddr: 0x40840, symSize: 0x240 }
  - { offset: 0x1EE0F2, size: 0x8, addend: 0x0, symName: __ZN19llm_graph_input_posD1Ev, symObjAddr: 0x7200, symBinAddr: 0x40A80, symSize: 0x10 }
  - { offset: 0x1EE11B, size: 0x8, addend: 0x0, symName: __ZN19llm_graph_input_posD0Ev, symObjAddr: 0x7210, symBinAddr: 0x40A90, symSize: 0x10 }
  - { offset: 0x1EE144, size: 0x8, addend: 0x0, symName: __ZN25llm_graph_input_attn_tempD1Ev, symObjAddr: 0x7220, symBinAddr: 0x40AA0, symSize: 0x10 }
  - { offset: 0x1EE16D, size: 0x8, addend: 0x0, symName: __ZN25llm_graph_input_attn_tempD0Ev, symObjAddr: 0x7230, symBinAddr: 0x40AB0, symSize: 0x10 }
  - { offset: 0x1EE196, size: 0x8, addend: 0x0, symName: __ZN17llm_graph_input_i9can_reuseERK16llm_graph_params, symObjAddr: 0x7240, symBinAddr: 0x40AC0, symSize: 0x10 }
  - { offset: 0x1EE1C9, size: 0x8, addend: 0x0, symName: __ZN26llm_graph_input_pos_bucketD1Ev, symObjAddr: 0x7250, symBinAddr: 0x40AD0, symSize: 0x10 }
  - { offset: 0x1EE1F2, size: 0x8, addend: 0x0, symName: __ZN26llm_graph_input_pos_bucketD0Ev, symObjAddr: 0x7260, symBinAddr: 0x40AE0, symSize: 0x10 }
  - { offset: 0x1EE21B, size: 0x8, addend: 0x0, symName: __ZN29llm_graph_input_pos_bucket_kvD1Ev, symObjAddr: 0x7270, symBinAddr: 0x40AF0, symSize: 0x10 }
  - { offset: 0x1EE244, size: 0x8, addend: 0x0, symName: __ZN29llm_graph_input_pos_bucket_kvD0Ev, symObjAddr: 0x7280, symBinAddr: 0x40B00, symSize: 0x10 }
  - { offset: 0x1EE26D, size: 0x8, addend: 0x0, symName: __ZN23llm_graph_input_out_idsD1Ev, symObjAddr: 0x7290, symBinAddr: 0x40B10, symSize: 0x10 }
  - { offset: 0x1EE296, size: 0x8, addend: 0x0, symName: __ZN23llm_graph_input_out_idsD0Ev, symObjAddr: 0x72A0, symBinAddr: 0x40B20, symSize: 0x10 }
  - { offset: 0x1EE2BF, size: 0x8, addend: 0x0, symName: __ZN20llm_graph_input_meanD1Ev, symObjAddr: 0x72B0, symBinAddr: 0x40B30, symSize: 0x10 }
  - { offset: 0x1EE2E8, size: 0x8, addend: 0x0, symName: __ZN20llm_graph_input_meanD0Ev, symObjAddr: 0x72C0, symBinAddr: 0x40B40, symSize: 0x10 }
  - { offset: 0x1EE311, size: 0x8, addend: 0x0, symName: __ZN19llm_graph_input_clsD1Ev, symObjAddr: 0x72D0, symBinAddr: 0x40B50, symSize: 0x10 }
  - { offset: 0x1EE33A, size: 0x8, addend: 0x0, symName: __ZN19llm_graph_input_clsD0Ev, symObjAddr: 0x72E0, symBinAddr: 0x40B60, symSize: 0x10 }
  - { offset: 0x1EE363, size: 0x8, addend: 0x0, symName: __ZN18llm_graph_input_rsD1Ev, symObjAddr: 0x72F0, symBinAddr: 0x40B70, symSize: 0x10 }
  - { offset: 0x1EE38C, size: 0x8, addend: 0x0, symName: __ZN18llm_graph_input_rsD0Ev, symObjAddr: 0x7300, symBinAddr: 0x40B80, symSize: 0x10 }
  - { offset: 0x1EE3B5, size: 0x8, addend: 0x0, symName: __ZN26llm_graph_input_cross_embdD1Ev, symObjAddr: 0x7310, symBinAddr: 0x40B90, symSize: 0x10 }
  - { offset: 0x1EE3DE, size: 0x8, addend: 0x0, symName: __ZN26llm_graph_input_cross_embdD0Ev, symObjAddr: 0x7320, symBinAddr: 0x40BA0, symSize: 0x10 }
  - { offset: 0x1EE407, size: 0x8, addend: 0x0, symName: __ZN29llm_graph_input_attn_no_cacheD1Ev, symObjAddr: 0x7330, symBinAddr: 0x40BB0, symSize: 0x10 }
  - { offset: 0x1EE430, size: 0x8, addend: 0x0, symName: __ZN29llm_graph_input_attn_no_cacheD0Ev, symObjAddr: 0x7340, symBinAddr: 0x40BC0, symSize: 0x10 }
  - { offset: 0x1EE459, size: 0x8, addend: 0x0, symName: __ZN31llm_graph_input_attn_kv_unifiedD1Ev, symObjAddr: 0x7350, symBinAddr: 0x40BD0, symSize: 0x10 }
  - { offset: 0x1EE482, size: 0x8, addend: 0x0, symName: __ZN31llm_graph_input_attn_kv_unifiedD0Ev, symObjAddr: 0x7360, symBinAddr: 0x40BE0, symSize: 0x10 }
  - { offset: 0x1EE4AB, size: 0x8, addend: 0x0, symName: __ZN36llm_graph_input_attn_kv_unified_iswaD1Ev, symObjAddr: 0x7370, symBinAddr: 0x40BF0, symSize: 0x10 }
  - { offset: 0x1EE4D4, size: 0x8, addend: 0x0, symName: __ZN36llm_graph_input_attn_kv_unified_iswaD0Ev, symObjAddr: 0x7380, symBinAddr: 0x40C00, symSize: 0x10 }
  - { offset: 0x1EE4FD, size: 0x8, addend: 0x0, symName: __ZN26llm_graph_input_attn_crossD1Ev, symObjAddr: 0x7390, symBinAddr: 0x40C10, symSize: 0x10 }
  - { offset: 0x1EE526, size: 0x8, addend: 0x0, symName: __ZN26llm_graph_input_attn_crossD0Ev, symObjAddr: 0x73A0, symBinAddr: 0x40C20, symSize: 0x10 }
  - { offset: 0x1EE569, size: 0x8, addend: 0x0, symName: __ZN26llm_graph_input_mem_hybridD1Ev, symObjAddr: 0x73B0, symBinAddr: 0x40C30, symSize: 0x50 }
  - { offset: 0x1EE6F9, size: 0x8, addend: 0x0, symName: __ZN26llm_graph_input_mem_hybridD0Ev, symObjAddr: 0x7400, symBinAddr: 0x40C80, symSize: 0x50 }
  - { offset: 0x1EE89C, size: 0x8, addend: 0x0, symName: __ZN20llm_graph_input_embdD1Ev, symObjAddr: 0x7450, symBinAddr: 0x40CD0, symSize: 0x10 }
  - { offset: 0x1EE8C5, size: 0x8, addend: 0x0, symName: __ZN20llm_graph_input_embdD0Ev, symObjAddr: 0x7460, symBinAddr: 0x40CE0, symSize: 0x10 }
  - { offset: 0x1EE8EE, size: 0x8, addend: 0x0, symName: __ZN16llm_graph_resultD1Ev, symObjAddr: 0x7470, symBinAddr: 0x40CF0, symSize: 0x10 }
  - { offset: 0x1EE924, size: 0x8, addend: 0x0, symName: __ZN16llm_graph_resultD2Ev, symObjAddr: 0x7840, symBinAddr: 0x40FE0, symSize: 0x10C }
  - { offset: 0x1EEE9D, size: 0x8, addend: 0x0, symName: __ZN16llm_graph_resultD0Ev, symObjAddr: 0x7480, symBinAddr: 0x40D00, symSize: 0x20 }
  - { offset: 0x1EEEFA, size: 0x8, addend: 0x0, symName: __ZN17llm_graph_contextD1Ev, symObjAddr: 0x74A0, symBinAddr: 0x40D20, symSize: 0x10 }
  - { offset: 0x1EEF23, size: 0x8, addend: 0x0, symName: __ZN17llm_graph_contextD0Ev, symObjAddr: 0x74B0, symBinAddr: 0x40D30, symSize: 0x10 }
  - { offset: 0x1EF01C, size: 0x8, addend: 0x0, symName: __ZNSt3__117bad_function_callD1Ev, symObjAddr: 0x7730, symBinAddr: 0x40ED0, symSize: 0x10 }
  - { offset: 0x1EF072, size: 0x8, addend: 0x0, symName: __ZNSt3__117bad_function_callD0Ev, symObjAddr: 0x7740, symBinAddr: 0x40EE0, symSize: 0x20 }
  - { offset: 0x1EF0D5, size: 0x8, addend: 0x0, symName: __ZNSt3__110__function6__funcIPFP11ggml_tensorP12ggml_contextS3_S3_ENS_9allocatorIS7_EES6_ED1Ev, symObjAddr: 0x7760, symBinAddr: 0x40F00, symSize: 0x10 }
  - { offset: 0x1EF100, size: 0x8, addend: 0x0, symName: __ZNSt3__110__function6__funcIPFP11ggml_tensorP12ggml_contextS3_S3_ENS_9allocatorIS7_EES6_ED0Ev, symObjAddr: 0x7770, symBinAddr: 0x40F10, symSize: 0x10 }
  - { offset: 0x1EF303, size: 0x8, addend: 0x0, symName: __ZNKSt3__110__function6__funcIPFP11ggml_tensorP12ggml_contextS3_S3_ENS_9allocatorIS7_EES6_E7__cloneEv, symObjAddr: 0x7780, symBinAddr: 0x40F20, symSize: 0x30 }
  - { offset: 0x1EF625, size: 0x8, addend: 0x0, symName: __ZNKSt3__110__function6__funcIPFP11ggml_tensorP12ggml_contextS3_S3_ENS_9allocatorIS7_EES6_E7__cloneEPNS0_6__baseIS6_EE, symObjAddr: 0x77B0, symBinAddr: 0x40F50, symSize: 0x20 }
  - { offset: 0x1EF79F, size: 0x8, addend: 0x0, symName: __ZNSt3__110__function6__funcIPFP11ggml_tensorP12ggml_contextS3_S3_ENS_9allocatorIS7_EES6_E7destroyEv, symObjAddr: 0x77D0, symBinAddr: 0x40F70, symSize: 0x10 }
  - { offset: 0x1EF7F0, size: 0x8, addend: 0x0, symName: __ZNSt3__110__function6__funcIPFP11ggml_tensorP12ggml_contextS3_S3_ENS_9allocatorIS7_EES6_E18destroy_deallocateEv, symObjAddr: 0x77E0, symBinAddr: 0x40F80, symSize: 0x10 }
  - { offset: 0x1EF947, size: 0x8, addend: 0x0, symName: __ZNSt3__110__function6__funcIPFP11ggml_tensorP12ggml_contextS3_S3_ENS_9allocatorIS7_EES6_EclEOS5_OS3_SC_, symObjAddr: 0x77F0, symBinAddr: 0x40F90, symSize: 0x20 }
  - { offset: 0x1EFA94, size: 0x8, addend: 0x0, symName: __ZNKSt3__110__function6__funcIPFP11ggml_tensorP12ggml_contextS3_S3_ENS_9allocatorIS7_EES6_E6targetERKSt9type_info, symObjAddr: 0x7810, symBinAddr: 0x40FB0, symSize: 0x20 }
  - { offset: 0x1EFB02, size: 0x8, addend: 0x0, symName: __ZNKSt3__110__function6__funcIPFP11ggml_tensorP12ggml_contextS3_S3_ENS_9allocatorIS7_EES6_E11target_typeEv, symObjAddr: 0x7830, symBinAddr: 0x40FD0, symSize: 0x10 }
  - { offset: 0x1F1AB1, size: 0x8, addend: 0x0, symName: __ZN13llama_hparams15set_swa_patternEjb, symObjAddr: 0x0, symBinAddr: 0x410F0, symSize: 0x110 }
  - { offset: 0x1F34D2, size: 0x8, addend: 0x0, symName: __ZN13llama_hparams15set_swa_patternEjb, symObjAddr: 0x0, symBinAddr: 0x410F0, symSize: 0x110 }
  - { offset: 0x1F3545, size: 0x8, addend: 0x0, symName: __ZNK13llama_hparams10is_swa_anyEv, symObjAddr: 0x110, symBinAddr: 0x41200, symSize: 0x50 }
  - { offset: 0x1F358B, size: 0x8, addend: 0x0, symName: __ZNK13llama_hparams6n_headEj, symObjAddr: 0x160, symBinAddr: 0x41250, symSize: 0x30 }
  - { offset: 0x1F35E9, size: 0x8, addend: 0x0, symName: __ZNK13llama_hparams9n_head_kvEj, symObjAddr: 0x190, symBinAddr: 0x41280, symSize: 0x30 }
  - { offset: 0x1F3628, size: 0x8, addend: 0x0, symName: __ZNK13llama_hparams4n_ffEj, symObjAddr: 0x1C0, symBinAddr: 0x412B0, symSize: 0x30 }
  - { offset: 0x1F36BF, size: 0x8, addend: 0x0, symName: __ZNK13llama_hparams5n_gqaEj, symObjAddr: 0x1F0, symBinAddr: 0x412E0, symSize: 0x40 }
  - { offset: 0x1F3766, size: 0x8, addend: 0x0, symName: __ZNK13llama_hparams12n_embd_k_gqaEj, symObjAddr: 0x230, symBinAddr: 0x41320, symSize: 0x40 }
  - { offset: 0x1F37CA, size: 0x8, addend: 0x0, symName: __ZNK13llama_hparams12n_embd_v_gqaEj, symObjAddr: 0x270, symBinAddr: 0x41360, symSize: 0x40 }
  - { offset: 0x1F3861, size: 0x8, addend: 0x0, symName: __ZNK13llama_hparams24is_n_embd_k_gqa_variableEv, symObjAddr: 0x2B0, symBinAddr: 0x413A0, symSize: 0x70 }
  - { offset: 0x1F3955, size: 0x8, addend: 0x0, symName: __ZNK13llama_hparams24is_n_embd_v_gqa_variableEv, symObjAddr: 0x320, symBinAddr: 0x41410, symSize: 0x70 }
  - { offset: 0x1F3A1B, size: 0x8, addend: 0x0, symName: __ZNK13llama_hparams16n_embd_k_gqa_maxEv, symObjAddr: 0x390, symBinAddr: 0x41480, symSize: 0x100 }
  - { offset: 0x1F3AF9, size: 0x8, addend: 0x0, symName: __ZNK13llama_hparams16n_embd_v_gqa_maxEv, symObjAddr: 0x490, symBinAddr: 0x41580, symSize: 0x100 }
  - { offset: 0x1F3BD7, size: 0x8, addend: 0x0, symName: __ZNK13llama_hparams8n_embd_rEv, symObjAddr: 0x590, symBinAddr: 0x41680, symSize: 0x50 }
  - { offset: 0x1F3BFE, size: 0x8, addend: 0x0, symName: __ZNK13llama_hparams8n_embd_sEv, symObjAddr: 0x5E0, symBinAddr: 0x416D0, symSize: 0x30 }
  - { offset: 0x1F3C25, size: 0x8, addend: 0x0, symName: __ZNK13llama_hparams12is_recurrentEj, symObjAddr: 0x610, symBinAddr: 0x41700, symSize: 0x10 }
  - { offset: 0x1F3C5A, size: 0x8, addend: 0x0, symName: __ZNK13llama_hparams14n_pos_per_embdEv, symObjAddr: 0x620, symBinAddr: 0x41710, symSize: 0x20 }
  - { offset: 0x1F3C81, size: 0x8, addend: 0x0, symName: __ZNK13llama_hparams6is_swaEj, symObjAddr: 0x640, symBinAddr: 0x41730, symSize: 0x2E }
  - { offset: 0x1F57B6, size: 0x8, addend: 0x0, symName: __ZL14g_logger_state.0, symObjAddr: 0x1790, symBinAddr: 0x2943A0, symSize: 0x0 }
  - { offset: 0x1F57C1, size: 0x8, addend: 0x0, symName: __ZL14g_logger_state.1, symObjAddr: 0x2F2E0, symBinAddr: 0x309378, symSize: 0x0 }
  - { offset: 0x1FCC67, size: 0x8, addend: 0x0, symName: __ZN9time_measC2ERxb, symObjAddr: 0x0, symBinAddr: 0x41760, symSize: 0x30 }
  - { offset: 0x1FCCED, size: 0x8, addend: 0x0, symName: __ZN9time_measC1ERxb, symObjAddr: 0x30, symBinAddr: 0x41790, symSize: 0x30 }
  - { offset: 0x1FCD72, size: 0x8, addend: 0x0, symName: __ZN9time_measD2Ev, symObjAddr: 0x60, symBinAddr: 0x417C0, symSize: 0x30 }
  - { offset: 0x1FCDBE, size: 0x8, addend: 0x0, symName: __ZN9time_measD1Ev, symObjAddr: 0xA0, symBinAddr: 0x417F0, symSize: 0x30 }
  - { offset: 0x1FCE0F, size: 0x8, addend: 0x0, symName: _llama_log_set, symObjAddr: 0xD0, symBinAddr: 0x41820, symSize: 0x40 }
  - { offset: 0x1FCE73, size: 0x8, addend: 0x0, symName: __Z26llama_log_callback_default14ggml_log_levelPKcPv, symObjAddr: 0x110, symBinAddr: 0x41860, symSize: 0x30 }
  - { offset: 0x1FD106, size: 0x8, addend: 0x0, symName: __Z18llama_log_internal14ggml_log_levelPKcz, symObjAddr: 0x140, symBinAddr: 0x41890, symSize: 0x170 }
  - { offset: 0x1FD578, size: 0x8, addend: 0x0, symName: __Z11replace_allRNSt3__112basic_stringIcNS_11char_traitsIcEENS_9allocatorIcEEEERKS5_S8_, symObjAddr: 0x2B0, symBinAddr: 0x41A00, symSize: 0x250 }
  - { offset: 0x1FDFFA, size: 0x8, addend: 0x0, symName: __Z6formatPKcz, symObjAddr: 0x500, symBinAddr: 0x41C50, symSize: 0x200 }
  - { offset: 0x1FE747, size: 0x8, addend: 0x0, symName: __Z25llama_format_tensor_shapeRKNSt3__16vectorIxNS_9allocatorIxEEEE, symObjAddr: 0x700, symBinAddr: 0x41E50, symSize: 0x180 }
  - { offset: 0x1FEB56, size: 0x8, addend: 0x0, symName: __ZNKSt3__16vectorIxNS_9allocatorIxEEE20__throw_out_of_rangeB8ne190102Ev, symObjAddr: 0x1300, symBinAddr: 0x42800, symSize: 0x10 }
  - { offset: 0x1FEBAE, size: 0x8, addend: 0x0, symName: __Z25llama_format_tensor_shapePK11ggml_tensor, symObjAddr: 0x880, symBinAddr: 0x41FD0, symSize: 0x180 }
  - { offset: 0x1FF108, size: 0x8, addend: 0x0, symName: __Z14gguf_kv_to_strPK12gguf_contexti, symObjAddr: 0xA00, symBinAddr: 0x42150, symSize: 0x580 }
  - { offset: 0x20075D, size: 0x8, addend: 0x0, symName: __ZL16gguf_data_to_str9gguf_typePKvi, symObjAddr: 0x10C0, symBinAddr: 0x426D0, symSize: 0x130 }
  - { offset: 0x202F7B, size: 0x8, addend: 0x0, symName: __ZN16llama_io_write_i12write_stringERKNSt3__112basic_stringIcNS0_11char_traitsIcEENS0_9allocatorIcEEEE, symObjAddr: 0x0, symBinAddr: 0x42810, symSize: 0x60 }
  - { offset: 0x2059CC, size: 0x8, addend: 0x0, symName: __ZN16llama_io_write_i12write_stringERKNSt3__112basic_stringIcNS0_11char_traitsIcEENS0_9allocatorIcEEEE, symObjAddr: 0x0, symBinAddr: 0x42810, symSize: 0x60 }
  - { offset: 0x205AE5, size: 0x8, addend: 0x0, symName: __ZN15llama_io_read_i11read_stringERNSt3__112basic_stringIcNS0_11char_traitsIcEENS0_9allocatorIcEEEE, symObjAddr: 0x60, symBinAddr: 0x42870, symSize: 0x43 }
  - { offset: 0x207A36, size: 0x8, addend: 0x0, symName: __ZN27llama_kv_cache_unified_iswaC2ERK11llama_model9ggml_typeS3_bbbbjjjj, symObjAddr: 0x0, symBinAddr: 0x428C0, symSize: 0x370 }
  - { offset: 0x225989, size: 0x8, addend: 0x0, symName: __ZNSt3__111make_uniqueB8ne190102I35llama_kv_cache_unified_iswa_contextJP27llama_kv_cache_unified_iswaNS_6vectorIN22llama_kv_cache_unified9slot_infoENS_9allocatorIS6_EEEES9_NS4_I12llama_ubatchNS7_ISA_EEEEEEENS_11__unique_ifIT_E15__unique_singleEDpOT0_, symObjAddr: 0xD50, symBinAddr: 0x435D0, symSize: 0x260 }
  - { offset: 0x22D690, size: 0x8, addend: 0x0, symName: __ZN27llama_kv_cache_unified_iswaC1ERK11llama_model9ggml_typeS3_bbbbjjjj, symObjAddr: 0x370, symBinAddr: 0x42C30, symSize: 0x10 }
  - { offset: 0x22E6F0, size: 0x8, addend: 0x0, symName: __ZN27llama_kv_cache_unified_iswaC2ERK11llama_model9ggml_typeS3_bbbbjjjj, symObjAddr: 0x0, symBinAddr: 0x428C0, symSize: 0x370 }
  - { offset: 0x22EFAF, size: 0x8, addend: 0x0, symName: __ZN27llama_kv_cache_unified_iswa5clearEb, symObjAddr: 0x380, symBinAddr: 0x42C40, symSize: 0x30 }
  - { offset: 0x22F043, size: 0x8, addend: 0x0, symName: __ZN27llama_kv_cache_unified_iswa6seq_rmEiii, symObjAddr: 0x3B0, symBinAddr: 0x42C70, symSize: 0x50 }
  - { offset: 0x22F126, size: 0x8, addend: 0x0, symName: __ZN27llama_kv_cache_unified_iswa6seq_cpEiiii, symObjAddr: 0x400, symBinAddr: 0x42CC0, symSize: 0x50 }
  - { offset: 0x22F1FC, size: 0x8, addend: 0x0, symName: __ZN27llama_kv_cache_unified_iswa8seq_keepEi, symObjAddr: 0x450, symBinAddr: 0x42D10, symSize: 0x30 }
  - { offset: 0x22F290, size: 0x8, addend: 0x0, symName: __ZN27llama_kv_cache_unified_iswa7seq_addEiiii, symObjAddr: 0x480, symBinAddr: 0x42D40, symSize: 0x50 }
  - { offset: 0x22F366, size: 0x8, addend: 0x0, symName: __ZN27llama_kv_cache_unified_iswa7seq_divEiiii, symObjAddr: 0x4D0, symBinAddr: 0x42D90, symSize: 0x50 }
  - { offset: 0x22F43C, size: 0x8, addend: 0x0, symName: __ZNK27llama_kv_cache_unified_iswa11seq_pos_minEi, symObjAddr: 0x520, symBinAddr: 0x42DE0, symSize: 0x20 }
  - { offset: 0x22F4A5, size: 0x8, addend: 0x0, symName: __ZNK27llama_kv_cache_unified_iswa11seq_pos_maxEi, symObjAddr: 0x540, symBinAddr: 0x42E00, symSize: 0x20 }
  - { offset: 0x22FF47, size: 0x8, addend: 0x0, symName: __ZN27llama_kv_cache_unified_iswa10init_batchER18llama_batch_allocrjb, symObjAddr: 0x560, symBinAddr: 0x42E20, symSize: 0x7B0 }
  - { offset: 0x2324F4, size: 0x8, addend: 0x0, symName: __ZNSt3__16vectorI12llama_ubatchNS_9allocatorIS1_EEE21__push_back_slow_pathIS1_EEPS1_OT_, symObjAddr: 0x2000, symBinAddr: 0x44840, symSize: 0x230 }
  - { offset: 0x232BA1, size: 0x8, addend: 0x0, symName: __ZNSt3__16vectorIN22llama_kv_cache_unified9slot_infoENS_9allocatorIS2_EEED1B8ne190102Ev, symObjAddr: 0xFB0, symBinAddr: 0x43830, symSize: 0xC0 }
  - { offset: 0x233127, size: 0x8, addend: 0x0, symName: __ZNSt3__16vectorI12llama_ubatchNS_9allocatorIS1_EEED1B8ne190102Ev, symObjAddr: 0x1070, symBinAddr: 0x438F0, symSize: 0x90 }
  - { offset: 0x2335D7, size: 0x8, addend: 0x0, symName: __ZN35llama_kv_cache_unified_iswa_contextC2EP27llama_kv_cache_unified_iswaNSt3__16vectorIN22llama_kv_cache_unified9slot_infoENS2_9allocatorIS5_EEEES8_NS3_I12llama_ubatchNS6_IS9_EEEE, symObjAddr: 0x14A0, symBinAddr: 0x43D20, symSize: 0x5B0 }
  - { offset: 0x2352AB, size: 0x8, addend: 0x0, symName: __ZN27llama_kv_cache_unified_iswa9init_fullEv, symObjAddr: 0x1100, symBinAddr: 0x43980, symSize: 0x50 }
  - { offset: 0x2353A5, size: 0x8, addend: 0x0, symName: __ZN35llama_kv_cache_unified_iswa_contextC2EP27llama_kv_cache_unified_iswa, symObjAddr: 0x12E0, symBinAddr: 0x43B60, symSize: 0xC0 }
  - { offset: 0x235690, size: 0x8, addend: 0x0, symName: __ZN27llama_kv_cache_unified_iswa11init_updateEP13llama_contextb, symObjAddr: 0x1150, symBinAddr: 0x439D0, symSize: 0x60 }
  - { offset: 0x2357CE, size: 0x8, addend: 0x0, symName: __ZN35llama_kv_cache_unified_iswa_contextC2EP27llama_kv_cache_unified_iswaP13llama_contextb, symObjAddr: 0x13B0, symBinAddr: 0x43C30, symSize: 0xE0 }
  - { offset: 0x235AAB, size: 0x8, addend: 0x0, symName: __ZNK27llama_kv_cache_unified_iswa13get_can_shiftEv, symObjAddr: 0x11B0, symBinAddr: 0x43A30, symSize: 0x30 }
  - { offset: 0x235B10, size: 0x8, addend: 0x0, symName: __ZNK27llama_kv_cache_unified_iswa11state_writeER16llama_io_write_ii, symObjAddr: 0x11E0, symBinAddr: 0x43A60, symSize: 0x40 }
  - { offset: 0x235BBA, size: 0x8, addend: 0x0, symName: __ZN27llama_kv_cache_unified_iswa10state_readER15llama_io_read_ii, symObjAddr: 0x1220, symBinAddr: 0x43AA0, symSize: 0x40 }
  - { offset: 0x235C7A, size: 0x8, addend: 0x0, symName: __ZNK27llama_kv_cache_unified_iswa8get_baseEv, symObjAddr: 0x1260, symBinAddr: 0x43AE0, symSize: 0x10 }
  - { offset: 0x235CB8, size: 0x8, addend: 0x0, symName: __ZNK27llama_kv_cache_unified_iswa7get_swaEv, symObjAddr: 0x1270, symBinAddr: 0x43AF0, symSize: 0x10 }
  - { offset: 0x235CF6, size: 0x8, addend: 0x0, symName: __ZN35llama_kv_cache_unified_iswa_contextC2E19llama_memory_status, symObjAddr: 0x1280, symBinAddr: 0x43B00, symSize: 0x30 }
  - { offset: 0x235D5A, size: 0x8, addend: 0x0, symName: __ZN35llama_kv_cache_unified_iswa_contextC1E19llama_memory_status, symObjAddr: 0x12B0, symBinAddr: 0x43B30, symSize: 0x30 }
  - { offset: 0x235ED3, size: 0x8, addend: 0x0, symName: __ZN35llama_kv_cache_unified_iswa_contextC1EP27llama_kv_cache_unified_iswa, symObjAddr: 0x13A0, symBinAddr: 0x43C20, symSize: 0x10 }
  - { offset: 0x235F17, size: 0x8, addend: 0x0, symName: __ZN35llama_kv_cache_unified_iswa_contextC1EP27llama_kv_cache_unified_iswaP13llama_contextb, symObjAddr: 0x1490, symBinAddr: 0x43D10, symSize: 0x10 }
  - { offset: 0x2363E7, size: 0x8, addend: 0x0, symName: __ZNKSt3__16vectorI12llama_ubatchNS_9allocatorIS1_EEE20__throw_length_errorB8ne190102Ev, symObjAddr: 0x2230, symBinAddr: 0x44A70, symSize: 0x10 }
  - { offset: 0x23641C, size: 0x8, addend: 0x0, symName: __ZNSt3__128__exception_guard_exceptionsINS_6vectorI12llama_ubatchNS_9allocatorIS2_EEE16__destroy_vectorEED1B8ne190102Ev, symObjAddr: 0x22C0, symBinAddr: 0x44A80, symSize: 0x93 }
  - { offset: 0x236647, size: 0x8, addend: 0x0, symName: __ZN35llama_kv_cache_unified_iswa_contextC1EP27llama_kv_cache_unified_iswaNSt3__16vectorIN22llama_kv_cache_unified9slot_infoENS2_9allocatorIS5_EEEES8_NS3_I12llama_ubatchNS6_IS9_EEEE, symObjAddr: 0x1A50, symBinAddr: 0x442D0, symSize: 0x10 }
  - { offset: 0x2366B8, size: 0x8, addend: 0x0, symName: __ZN35llama_kv_cache_unified_iswa_contextD2Ev, symObjAddr: 0x1A60, symBinAddr: 0x442E0, symSize: 0xC0 }
  - { offset: 0x236A5D, size: 0x8, addend: 0x0, symName: __ZN35llama_kv_cache_unified_iswa_contextD1Ev, symObjAddr: 0x1B20, symBinAddr: 0x443A0, symSize: 0xC0 }
  - { offset: 0x236E20, size: 0x8, addend: 0x0, symName: __ZN35llama_kv_cache_unified_iswa_contextD0Ev, symObjAddr: 0x1BE0, symBinAddr: 0x44460, symSize: 0xC0 }
  - { offset: 0x2371EC, size: 0x8, addend: 0x0, symName: __ZN35llama_kv_cache_unified_iswa_context4nextEv, symObjAddr: 0x1CA0, symBinAddr: 0x44520, symSize: 0x50 }
  - { offset: 0x237280, size: 0x8, addend: 0x0, symName: __ZN35llama_kv_cache_unified_iswa_context5applyEv, symObjAddr: 0x1CF0, symBinAddr: 0x44570, symSize: 0x30 }
  - { offset: 0x237310, size: 0x8, addend: 0x0, symName: __ZNK35llama_kv_cache_unified_iswa_context10get_statusEv, symObjAddr: 0x1D20, symBinAddr: 0x445A0, symSize: 0x10 }
  - { offset: 0x23735C, size: 0x8, addend: 0x0, symName: __ZNK35llama_kv_cache_unified_iswa_context10get_ubatchEv, symObjAddr: 0x1D30, symBinAddr: 0x445B0, symSize: 0x10 }
  - { offset: 0x2373B9, size: 0x8, addend: 0x0, symName: __ZNK35llama_kv_cache_unified_iswa_context8get_baseEv, symObjAddr: 0x1D40, symBinAddr: 0x445C0, symSize: 0x10 }
  - { offset: 0x237400, size: 0x8, addend: 0x0, symName: __ZNK35llama_kv_cache_unified_iswa_context7get_swaEv, symObjAddr: 0x1D50, symBinAddr: 0x445D0, symSize: 0x10 }
  - { offset: 0x237461, size: 0x8, addend: 0x0, symName: __ZN27llama_kv_cache_unified_iswaD1Ev, symObjAddr: 0x1D60, symBinAddr: 0x445E0, symSize: 0x50 }
  - { offset: 0x2375EE, size: 0x8, addend: 0x0, symName: __ZN27llama_kv_cache_unified_iswaD0Ev, symObjAddr: 0x1DB0, symBinAddr: 0x44630, symSize: 0x50 }
  - { offset: 0x23778D, size: 0x8, addend: 0x0, symName: '__ZNSt3__110__function6__funcIZN27llama_kv_cache_unified_iswaC1ERK11llama_model9ggml_typeS6_bbbbjjjjE3$_0NS_9allocatorIS7_EEFbiEED1Ev', symObjAddr: 0x1E00, symBinAddr: 0x44680, symSize: 0x10 }
  - { offset: 0x2377B6, size: 0x8, addend: 0x0, symName: '__ZNSt3__110__function6__funcIZN27llama_kv_cache_unified_iswaC1ERK11llama_model9ggml_typeS6_bbbbjjjjE3$_0NS_9allocatorIS7_EEFbiEED0Ev', symObjAddr: 0x1E10, symBinAddr: 0x44690, symSize: 0x10 }
  - { offset: 0x2379B9, size: 0x8, addend: 0x0, symName: '__ZNKSt3__110__function6__funcIZN27llama_kv_cache_unified_iswaC1ERK11llama_model9ggml_typeS6_bbbbjjjjE3$_0NS_9allocatorIS7_EEFbiEE7__cloneEv', symObjAddr: 0x1E20, symBinAddr: 0x446A0, symSize: 0x30 }
  - { offset: 0x237C9C, size: 0x8, addend: 0x0, symName: '__ZNKSt3__110__function6__funcIZN27llama_kv_cache_unified_iswaC1ERK11llama_model9ggml_typeS6_bbbbjjjjE3$_0NS_9allocatorIS7_EEFbiEE7__cloneEPNS0_6__baseISA_EE', symObjAddr: 0x1E50, symBinAddr: 0x446D0, symSize: 0x20 }
  - { offset: 0x237DA1, size: 0x8, addend: 0x0, symName: '__ZNSt3__110__function6__funcIZN27llama_kv_cache_unified_iswaC1ERK11llama_model9ggml_typeS6_bbbbjjjjE3$_0NS_9allocatorIS7_EEFbiEE7destroyEv', symObjAddr: 0x1E70, symBinAddr: 0x446F0, symSize: 0x10 }
  - { offset: 0x237DF0, size: 0x8, addend: 0x0, symName: '__ZNSt3__110__function6__funcIZN27llama_kv_cache_unified_iswaC1ERK11llama_model9ggml_typeS6_bbbbjjjjE3$_0NS_9allocatorIS7_EEFbiEE18destroy_deallocateEv', symObjAddr: 0x1E80, symBinAddr: 0x44700, symSize: 0x10 }
  - { offset: 0x237F3B, size: 0x8, addend: 0x0, symName: '__ZNSt3__110__function6__funcIZN27llama_kv_cache_unified_iswaC1ERK11llama_model9ggml_typeS6_bbbbjjjjE3$_0NS_9allocatorIS7_EEFbiEEclEOi', symObjAddr: 0x1E90, symBinAddr: 0x44710, symSize: 0x20 }
  - { offset: 0x238015, size: 0x8, addend: 0x0, symName: '__ZNKSt3__110__function6__funcIZN27llama_kv_cache_unified_iswaC1ERK11llama_model9ggml_typeS6_bbbbjjjjE3$_0NS_9allocatorIS7_EEFbiEE6targetERKSt9type_info', symObjAddr: 0x1EB0, symBinAddr: 0x44730, symSize: 0x20 }
  - { offset: 0x238085, size: 0x8, addend: 0x0, symName: '__ZNKSt3__110__function6__funcIZN27llama_kv_cache_unified_iswaC1ERK11llama_model9ggml_typeS6_bbbbjjjjE3$_0NS_9allocatorIS7_EEFbiEE11target_typeEv', symObjAddr: 0x1ED0, symBinAddr: 0x44750, symSize: 0x10 }
  - { offset: 0x2380A8, size: 0x8, addend: 0x0, symName: '__ZNSt3__110__function6__funcIZN27llama_kv_cache_unified_iswaC1ERK11llama_model9ggml_typeS6_bbbbjjjjE3$_1NS_9allocatorIS7_EEFbiEED1Ev', symObjAddr: 0x1F20, symBinAddr: 0x44760, symSize: 0x10 }
  - { offset: 0x2380D1, size: 0x8, addend: 0x0, symName: '__ZNSt3__110__function6__funcIZN27llama_kv_cache_unified_iswaC1ERK11llama_model9ggml_typeS6_bbbbjjjjE3$_1NS_9allocatorIS7_EEFbiEED0Ev', symObjAddr: 0x1F30, symBinAddr: 0x44770, symSize: 0x10 }
  - { offset: 0x2382D4, size: 0x8, addend: 0x0, symName: '__ZNKSt3__110__function6__funcIZN27llama_kv_cache_unified_iswaC1ERK11llama_model9ggml_typeS6_bbbbjjjjE3$_1NS_9allocatorIS7_EEFbiEE7__cloneEv', symObjAddr: 0x1F40, symBinAddr: 0x44780, symSize: 0x30 }
  - { offset: 0x2385B7, size: 0x8, addend: 0x0, symName: '__ZNKSt3__110__function6__funcIZN27llama_kv_cache_unified_iswaC1ERK11llama_model9ggml_typeS6_bbbbjjjjE3$_1NS_9allocatorIS7_EEFbiEE7__cloneEPNS0_6__baseISA_EE', symObjAddr: 0x1F70, symBinAddr: 0x447B0, symSize: 0x20 }
  - { offset: 0x2386BC, size: 0x8, addend: 0x0, symName: '__ZNSt3__110__function6__funcIZN27llama_kv_cache_unified_iswaC1ERK11llama_model9ggml_typeS6_bbbbjjjjE3$_1NS_9allocatorIS7_EEFbiEE7destroyEv', symObjAddr: 0x1F90, symBinAddr: 0x447D0, symSize: 0x10 }
  - { offset: 0x23870B, size: 0x8, addend: 0x0, symName: '__ZNSt3__110__function6__funcIZN27llama_kv_cache_unified_iswaC1ERK11llama_model9ggml_typeS6_bbbbjjjjE3$_1NS_9allocatorIS7_EEFbiEE18destroy_deallocateEv', symObjAddr: 0x1FA0, symBinAddr: 0x447E0, symSize: 0x10 }
  - { offset: 0x238856, size: 0x8, addend: 0x0, symName: '__ZNSt3__110__function6__funcIZN27llama_kv_cache_unified_iswaC1ERK11llama_model9ggml_typeS6_bbbbjjjjE3$_1NS_9allocatorIS7_EEFbiEEclEOi', symObjAddr: 0x1FB0, symBinAddr: 0x447F0, symSize: 0x20 }
  - { offset: 0x2388E9, size: 0x8, addend: 0x0, symName: '__ZNKSt3__110__function6__funcIZN27llama_kv_cache_unified_iswaC1ERK11llama_model9ggml_typeS6_bbbbjjjjE3$_1NS_9allocatorIS7_EEFbiEE6targetERKSt9type_info', symObjAddr: 0x1FD0, symBinAddr: 0x44810, symSize: 0x20 }
  - { offset: 0x238959, size: 0x8, addend: 0x0, symName: '__ZNKSt3__110__function6__funcIZN27llama_kv_cache_unified_iswaC1ERK11llama_model9ggml_typeS6_bbbbjjjjE3$_1NS_9allocatorIS7_EEFbiEE11target_typeEv', symObjAddr: 0x1FF0, symBinAddr: 0x44830, symSize: 0x10 }
  - { offset: 0x26977C, size: 0x8, addend: 0x0, symName: __ZNSt3__113__tree_removeB8ne190102IPNS_16__tree_node_baseIPvEEEEvT_S5_, symObjAddr: 0xD1A0, symBinAddr: 0x516D0, symSize: 0x380 }
  - { offset: 0x26B2C4, size: 0x8, addend: 0x0, symName: __ZNSt3__135__uninitialized_allocator_copy_implB8ne190102INS_9allocatorINS_6vectorIjNS1_IjEEEEEEPS4_S6_S6_EET2_RT_T0_T1_S7_, symObjAddr: 0xD910, symBinAddr: 0x51E40, symSize: 0x100 }
  - { offset: 0x26BAEF, size: 0x8, addend: 0x0, symName: __ZNSt3__134__uninitialized_allocator_relocateB8ne190102INS_9allocatorI22llama_kv_cells_unifiedEES2_EEvRT_PT0_S7_S7_, symObjAddr: 0xEA70, symBinAddr: 0x52D20, symSize: 0x280 }
  - { offset: 0x26C9C4, size: 0x8, addend: 0x0, symName: __ZNSt3__134__uninitialized_allocator_relocateB8ne190102INS_9allocatorIN22llama_kv_cache_unified9slot_infoEEES3_EEvRT_PT0_S8_S8_, symObjAddr: 0xFE50, symBinAddr: 0x53EA0, symSize: 0x110 }
  - { offset: 0x26CA1F, size: 0x8, addend: 0x0, symName: __ZNSt3__134__uninitialized_allocator_relocateB8ne190102INS_9allocatorIN22llama_kv_cache_unified9slot_infoEEES3_EEvRT_PT0_S8_S8_, symObjAddr: 0xFE50, symBinAddr: 0x53EA0, symSize: 0x110 }
  - { offset: 0x274FE2, size: 0x8, addend: 0x0, symName: __ZN22llama_kv_cache_unified7prepareERKNSt3__16vectorI12llama_ubatchNS0_9allocatorIS2_EEEE, symObjAddr: 0x3470, symBinAddr: 0x47F50, symSize: 0x1640 }
  - { offset: 0x279B8C, size: 0x8, addend: 0x0, symName: __ZN22llama_kv_cache_unifiedC2ERK11llama_modelONSt3__18functionIFbiEEE9ggml_typeS8_bbbjjjj14llama_swa_type, symObjAddr: 0x0, symBinAddr: 0x44B20, symSize: 0x16A0 }
  - { offset: 0x27F0CF, size: 0x8, addend: 0x0, symName: __ZNSt3__16vectorIjNS_9allocatorIjEEE8__appendEm, symObjAddr: 0xE6E0, symBinAddr: 0x529A0, symSize: 0x150 }
  - { offset: 0x27F50C, size: 0x8, addend: 0x0, symName: __ZNSt3__16vectorI22llama_kv_cells_unifiedNS_9allocatorIS1_EEE8__appendEm, symObjAddr: 0xE840, symBinAddr: 0x52AF0, symSize: 0x1F0 }
  - { offset: 0x27FB44, size: 0x8, addend: 0x0, symName: __ZNSt3__16vectorI22llama_kv_cells_unifiedNS_9allocatorIS1_EEE22__base_destruct_at_endB8ne190102EPS1_, symObjAddr: 0xE5B0, symBinAddr: 0x528B0, symSize: 0xF0 }
  - { offset: 0x2800FF, size: 0x8, addend: 0x0, symName: __ZN22llama_kv_cells_unified6resizeEj, symObjAddr: 0x16A0, symBinAddr: 0x461C0, symSize: 0x140 }
  - { offset: 0x28053F, size: 0x8, addend: 0x0, symName: __ZNSt3__16vectorIjNS_9allocatorIjEEE8__appendEmRKj, symObjAddr: 0xEEC0, symBinAddr: 0x53170, symSize: 0x200 }
  - { offset: 0x280AB7, size: 0x8, addend: 0x0, symName: __ZNSt3__112__hash_tableINS_17__hash_value_typeIiiEENS_22__unordered_map_hasherIiS2_NS_4hashIiEENS_8equal_toIiEELb1EEENS_21__unordered_map_equalIiS2_S7_S5_Lb1EEENS_9allocatorIS2_EEE25__emplace_unique_key_argsIiJRKNS_21piecewise_construct_tENS_5tupleIJOiEEENSI_IJEEEEEENS_4pairINS_15__hash_iteratorIPNS_11__hash_nodeIS2_PvEEEEbEERKT_DpOT0_, symObjAddr: 0xF0D0, symBinAddr: 0x53370, symSize: 0x4A0 }
  - { offset: 0x281238, size: 0x8, addend: 0x0, symName: __ZNSt3__16vectorIN22llama_kv_cache_unified8kv_layerENS_9allocatorIS2_EEE21__push_back_slow_pathIS2_EEPS2_OT_, symObjAddr: 0xF7A0, symBinAddr: 0x53A40, symSize: 0x240 }
  - { offset: 0x281D0D, size: 0x8, addend: 0x0, symName: __ZNSt3__112__hash_tableINS_17__hash_value_typeIiiEENS_22__unordered_map_hasherIiS2_NS_4hashIiEENS_8equal_toIiEELb1EEENS_21__unordered_map_equalIiS2_S7_S5_Lb1EEENS_9allocatorIS2_EEE25__emplace_unique_key_argsIiJRKNS_21piecewise_construct_tENS_5tupleIJOiEEENSI_IJEEEEEENS_4pairINS_15__hash_iteratorIPNS_11__hash_nodeIS2_PvEEEEbEERKT_DpOT0_, symObjAddr: 0xF0D0, symBinAddr: 0x53370, symSize: 0x4A0 }
  - { offset: 0x281D53, size: 0x8, addend: 0x0, symName: __ZNSt3__16__treeIjNS_4lessIjEENS_9allocatorIjEEE7destroyEPNS_11__tree_nodeIjPvEE, symObjAddr: 0xD0A0, symBinAddr: 0x51650, symSize: 0x40 }
  - { offset: 0x281D5E, size: 0x8, addend: 0x0, symName: __ZN22llama_kv_cache_unified8kv_layerD1Ev, symObjAddr: 0x17E0, symBinAddr: 0x46300, symSize: 0x40 }
  - { offset: 0x282012, size: 0x8, addend: 0x0, symName: __ZNSt3__113unordered_mapIiiNS_4hashIiEENS_8equal_toIiEENS_9allocatorINS_4pairIKiiEEEEED1B8ne190102Ev, symObjAddr: 0x18C0, symBinAddr: 0x463E0, symSize: 0x50 }
  - { offset: 0x2822D7, size: 0x8, addend: 0x0, symName: __ZNSt3__16vectorIN22llama_kv_cache_unified8kv_layerENS_9allocatorIS2_EEED1B8ne190102Ev, symObjAddr: 0x1910, symBinAddr: 0x46430, symSize: 0x80 }
  - { offset: 0x282706, size: 0x8, addend: 0x0, symName: __ZN22llama_kv_cache_unified16stream_copy_infoD1Ev, symObjAddr: 0x1990, symBinAddr: 0x464B0, symSize: 0x40 }
  - { offset: 0x2829B6, size: 0x8, addend: 0x0, symName: __ZNSt3__16vectorI22llama_kv_cells_unifiedNS_9allocatorIS1_EEED1B8ne190102Ev, symObjAddr: 0x19D0, symBinAddr: 0x464F0, symSize: 0x30 }
  - { offset: 0x2829DA, size: 0x8, addend: 0x0, symName: __ZNSt3__16vectorI22llama_kv_cells_unifiedNS_9allocatorIS1_EEED1B8ne190102Ev, symObjAddr: 0x19D0, symBinAddr: 0x464F0, symSize: 0x30 }
  - { offset: 0x2829F8, size: 0x8, addend: 0x0, symName: __ZNSt3__16vectorI22llama_kv_cells_unifiedNS_9allocatorIS1_EEED1B8ne190102Ev, symObjAddr: 0x19D0, symBinAddr: 0x464F0, symSize: 0x30 }
  - { offset: 0x282ACF, size: 0x8, addend: 0x0, symName: __ZNSt3__16vectorINS_10unique_ptrI19ggml_backend_buffer27ggml_backend_buffer_deleterEENS_9allocatorIS4_EEED1B8ne190102Ev, symObjAddr: 0x1A00, symBinAddr: 0x46520, symSize: 0x80 }
  - { offset: 0x282C8A, size: 0x8, addend: 0x0, symName: __ZNSt3__16vectorINS_10unique_ptrI12ggml_context20ggml_context_deleterEENS_9allocatorIS4_EEED1B8ne190102Ev, symObjAddr: 0x1A80, symBinAddr: 0x465A0, symSize: 0x80 }
  - { offset: 0x283364, size: 0x8, addend: 0x0, symName: __ZNSt3__16vectorINS_6bitsetILm64EEENS_9allocatorIS2_EEE8__appendEm, symObjAddr: 0xCDB0, symBinAddr: 0x51500, symSize: 0x150 }
  - { offset: 0x283807, size: 0x8, addend: 0x0, symName: __ZNSt3__16__treeIjNS_4lessIjEENS_9allocatorIjEEE7destroyEPNS_11__tree_nodeIjPvEE, symObjAddr: 0xD0A0, symBinAddr: 0x51650, symSize: 0x40 }
  - { offset: 0x283940, size: 0x8, addend: 0x0, symName: __ZNSt3__16__treeINS_12__value_typeIiiEENS_19__map_value_compareIiS2_NS_4lessIiEELb1EEENS_9allocatorIS2_EEE7destroyEPNS_11__tree_nodeIS2_PvEE, symObjAddr: 0xD0E0, symBinAddr: 0x51690, symSize: 0x40 }
  - { offset: 0x283A7B, size: 0x8, addend: 0x0, symName: __ZNK22llama_kv_cache_unified12size_k_bytesEv, symObjAddr: 0x1820, symBinAddr: 0x46340, symSize: 0x50 }
  - { offset: 0x283B64, size: 0x8, addend: 0x0, symName: __ZNK22llama_kv_cache_unified12size_v_bytesEv, symObjAddr: 0x1870, symBinAddr: 0x46390, symSize: 0x50 }
  - { offset: 0x2842D5, size: 0x8, addend: 0x0, symName: __ZN22llama_kv_cache_unifiedC1ERK11llama_modelONSt3__18functionIFbiEEE9ggml_typeS8_bbbjjjj14llama_swa_type, symObjAddr: 0x1B00, symBinAddr: 0x46620, symSize: 0x10 }
  - { offset: 0x28449B, size: 0x8, addend: 0x0, symName: __ZN22llama_kv_cache_unified5clearEb, symObjAddr: 0x1B10, symBinAddr: 0x46630, symSize: 0x150 }
  - { offset: 0x284957, size: 0x8, addend: 0x0, symName: __ZN22llama_kv_cache_unified6seq_rmEiii, symObjAddr: 0x1C60, symBinAddr: 0x46780, symSize: 0x1D0 }
  - { offset: 0x284BBC, size: 0x8, addend: 0x0, symName: __ZN22llama_kv_cells_unified6seq_rmEji, symObjAddr: 0x1E30, symBinAddr: 0x46950, symSize: 0x1D0 }
  - { offset: 0x285DEF, size: 0x8, addend: 0x0, symName: __ZN22llama_kv_cache_unified6seq_cpEiiii, symObjAddr: 0x2000, symBinAddr: 0x46B20, symSize: 0x6D0 }
  - { offset: 0x28703F, size: 0x8, addend: 0x0, symName: __ZN22llama_kv_cells_unified7seq_addEji, symObjAddr: 0x26D0, symBinAddr: 0x471F0, symSize: 0x100 }
  - { offset: 0x2873F8, size: 0x8, addend: 0x0, symName: __ZN22llama_kv_cells_unified7pos_addEji, symObjAddr: 0x2800, symBinAddr: 0x47320, symSize: 0x110 }
  - { offset: 0x2878CB, size: 0x8, addend: 0x0, symName: __ZNSt3__16vectorI22llama_kv_cells_unifiedNS_9allocatorIS1_EEE8__appendEm, symObjAddr: 0xE840, symBinAddr: 0x52AF0, symSize: 0x1F0 }
  - { offset: 0x287D89, size: 0x8, addend: 0x0, symName: __ZNK22llama_kv_cache_unified8get_sizeEv, symObjAddr: 0x27D0, symBinAddr: 0x472F0, symSize: 0x30 }
  - { offset: 0x287E3F, size: 0x8, addend: 0x0, symName: __ZN22llama_kv_cells_unified10seq_pos_rmEj, symObjAddr: 0xD520, symBinAddr: 0x51A50, symSize: 0x100 }
  - { offset: 0x2881E8, size: 0x8, addend: 0x0, symName: __ZN22llama_kv_cells_unified11seq_pos_addEj, symObjAddr: 0xD620, symBinAddr: 0x51B50, symSize: 0x120 }
  - { offset: 0x28855E, size: 0x8, addend: 0x0, symName: __ZN22llama_kv_cache_unified8seq_keepEi, symObjAddr: 0x2910, symBinAddr: 0x47430, symSize: 0xF0 }
  - { offset: 0x2886F3, size: 0x8, addend: 0x0, symName: __ZN22llama_kv_cells_unified8seq_keepEji, symObjAddr: 0x2A00, symBinAddr: 0x47520, symSize: 0x1E0 }
  - { offset: 0x289056, size: 0x8, addend: 0x0, symName: __ZN22llama_kv_cache_unified7seq_addEiiii, symObjAddr: 0x2BE0, symBinAddr: 0x47700, symSize: 0x1F0 }
  - { offset: 0x2892B1, size: 0x8, addend: 0x0, symName: __ZN22llama_kv_cache_unified7seq_divEiiii, symObjAddr: 0x2DD0, symBinAddr: 0x478F0, symSize: 0x1C0 }
  - { offset: 0x289576, size: 0x8, addend: 0x0, symName: __ZNK22llama_kv_cache_unified11seq_pos_minEi, symObjAddr: 0x2F90, symBinAddr: 0x47AB0, symSize: 0x80 }
  - { offset: 0x2896EA, size: 0x8, addend: 0x0, symName: __ZNK22llama_kv_cache_unified11seq_pos_maxEi, symObjAddr: 0x3010, symBinAddr: 0x47B30, symSize: 0xC0 }
  - { offset: 0x289FCB, size: 0x8, addend: 0x0, symName: __ZN22llama_kv_cache_unified10init_batchER18llama_batch_allocrjb, symObjAddr: 0x30D0, symBinAddr: 0x47BF0, symSize: 0x360 }
  - { offset: 0x28CEA8, size: 0x8, addend: 0x0, symName: __ZNK22llama_kv_cache_unified9find_slotERK12llama_ubatchb, symObjAddr: 0x5720, symBinAddr: 0x4A0B0, symSize: 0xDD0 }
  - { offset: 0x28F597, size: 0x8, addend: 0x0, symName: __ZN22llama_kv_cache_unified9slot_infoC2ERKS0_, symObjAddr: 0xD740, symBinAddr: 0x51C70, symSize: 0x150 }
  - { offset: 0x28FB6A, size: 0x8, addend: 0x0, symName: __ZNSt3__16vectorIN22llama_kv_cache_unified9slot_infoENS_9allocatorIS2_EEE21__push_back_slow_pathIRKS2_EEPS2_OT_, symObjAddr: 0xFD00, symBinAddr: 0x53D50, symSize: 0x140 }
  - { offset: 0x29000E, size: 0x8, addend: 0x0, symName: __ZNSt3__16vectorI22llama_kv_cells_unifiedNS_9allocatorIS1_EEE21__push_back_slow_pathIS1_EEPS1_OT_, symObjAddr: 0x10020, symBinAddr: 0x54070, symSize: 0x280 }
  - { offset: 0x2906C8, size: 0x8, addend: 0x0, symName: __ZN22llama_kv_cache_unified12apply_ubatchERKNS_9slot_infoERK12llama_ubatch, symObjAddr: 0x66D0, symBinAddr: 0x4B060, symSize: 0xB20 }
  - { offset: 0x291F7F, size: 0x8, addend: 0x0, symName: __ZN22llama_kv_cells_unified3setERKNSt3__16vectorIjNS0_9allocatorIjEEEERKS_, symObjAddr: 0x71F0, symBinAddr: 0x4BB80, symSize: 0x230 }
  - { offset: 0x292684, size: 0x8, addend: 0x0, symName: __ZNSt3__116allocator_traitsINS_9allocatorIZN22llama_kv_cache_unified7prepareERKNS_6vectorI12llama_ubatchNS1_IS4_EEEEE7state_tEEE7destroyB8ne190102IS9_Li0EEEvRSA_PT_, symObjAddr: 0xFC40, symBinAddr: 0x53C90, symSize: 0xC0 }
  - { offset: 0x292D5B, size: 0x8, addend: 0x0, symName: __ZNKSt3__16vectorIZN22llama_kv_cache_unified7prepareERKNS0_I12llama_ubatchNS_9allocatorIS2_EEEEE7state_tNS3_IS8_EEE20__throw_length_errorB8ne190102Ev, symObjAddr: 0x102A0, symBinAddr: 0x542F0, symSize: 0x10 }
  - { offset: 0x292D81, size: 0x8, addend: 0x0, symName: __ZNKSt3__16vectorINS_4pairIjjEENS_9allocatorIS2_EEE20__throw_length_errorB8ne190102Ev, symObjAddr: 0x102B0, symBinAddr: 0x54300, symSize: 0x10 }
  - { offset: 0x292D8C, size: 0x8, addend: 0x0, symName: __ZN22llama_kv_cache_unified9slot_infoD1Ev, symObjAddr: 0x64F0, symBinAddr: 0x4AE80, symSize: 0x90 }
  - { offset: 0x29319C, size: 0x8, addend: 0x0, symName: __ZN22llama_kv_cells_unifiedD1Ev, symObjAddr: 0x6580, symBinAddr: 0x4AF10, symSize: 0x90 }
  - { offset: 0x293732, size: 0x8, addend: 0x0, symName: __ZZN22llama_kv_cache_unified7prepareERKNSt3__16vectorI12llama_ubatchNS0_9allocatorIS2_EEEEEN7state_tD1Ev, symObjAddr: 0x6610, symBinAddr: 0x4AFA0, symSize: 0xC0 }
  - { offset: 0x293DCA, size: 0x8, addend: 0x0, symName: __ZNSt3__16vectorIZN22llama_kv_cache_unified7prepareERKNS0_I12llama_ubatchNS_9allocatorIS2_EEEEE7state_tNS3_IS8_EEED1B8ne190102Ev, symObjAddr: 0x7420, symBinAddr: 0x4BDB0, symSize: 0x70 }
  - { offset: 0x293F35, size: 0x8, addend: 0x0, symName: __ZN22llama_kv_cache_unified9init_fullEv, symObjAddr: 0x4C00, symBinAddr: 0x49590, symSize: 0x50 }
  - { offset: 0x294032, size: 0x8, addend: 0x0, symName: __ZN30llama_kv_cache_unified_contextC2EP22llama_kv_cache_unified, symObjAddr: 0xBDF0, symBinAddr: 0x50780, symSize: 0x320 }
  - { offset: 0x294C6F, size: 0x8, addend: 0x0, symName: __ZN22llama_kv_cache_unified11init_updateEP13llama_contextb, symObjAddr: 0x4C50, symBinAddr: 0x495E0, symSize: 0x520 }
  - { offset: 0x2952EF, size: 0x8, addend: 0x0, symName: __ZNK22llama_kv_cache_unified14defrag_prepareEi, symObjAddr: 0x5400, symBinAddr: 0x49D90, symSize: 0x320 }
  - { offset: 0x295A52, size: 0x8, addend: 0x0, symName: __ZNK22llama_kv_cache_unified13get_has_shiftEv, symObjAddr: 0x5170, symBinAddr: 0x49B00, symSize: 0x290 }
  - { offset: 0x295FAF, size: 0x8, addend: 0x0, symName: __ZNSt3__16vectorINS0_IjNS_9allocatorIjEEEENS1_IS3_EEE8__appendEm, symObjAddr: 0xE410, symBinAddr: 0x52710, symSize: 0x1A0 }
  - { offset: 0x2965F7, size: 0x8, addend: 0x0, symName: __ZN22llama_kv_cache_unified6updateEP13llama_contextbRKNS_11defrag_infoERKNS_16stream_copy_infoE, symObjAddr: 0x7490, symBinAddr: 0x4BE20, symSize: 0x4A0 }
  - { offset: 0x296BF8, size: 0x8, addend: 0x0, symName: __ZNK22llama_kv_cache_unified17build_graph_shiftEP16llm_graph_resultP13llama_context, symObjAddr: 0x7930, symBinAddr: 0x4C2C0, symSize: 0x280 }
  - { offset: 0x297298, size: 0x8, addend: 0x0, symName: __ZN22llama_kv_cells_unified2mvEjj, symObjAddr: 0x7BB0, symBinAddr: 0x4C540, symSize: 0x160 }
  - { offset: 0x2979BC, size: 0x8, addend: 0x0, symName: __ZNK22llama_kv_cache_unified18build_graph_defragEP16llm_graph_resultP13llama_contextRKNS_11defrag_infoE, symObjAddr: 0x7D10, symBinAddr: 0x4C6A0, symSize: 0x3B0 }
  - { offset: 0x29817E, size: 0x8, addend: 0x0, symName: __ZNK22llama_kv_cache_unified16build_rope_shiftERK13llama_cparamsP12ggml_contextP11ggml_tensorS6_S6_ff, symObjAddr: 0xA080, symBinAddr: 0x4EA10, symSize: 0x160 }
  - { offset: 0x298399, size: 0x8, addend: 0x0, symName: __ZNK22llama_kv_cache_unified13is_masked_swaEii, symObjAddr: 0x80C0, symBinAddr: 0x4CA50, symSize: 0x40 }
  - { offset: 0x2983E1, size: 0x8, addend: 0x0, symName: __ZNK22llama_kv_cache_unified13get_can_shiftEv, symObjAddr: 0x8100, symBinAddr: 0x4CA90, symSize: 0x10 }
  - { offset: 0x298407, size: 0x8, addend: 0x0, symName: __ZNK22llama_kv_cache_unified12get_n_streamEv, symObjAddr: 0x8110, symBinAddr: 0x4CAA0, symSize: 0x10 }
  - { offset: 0x298465, size: 0x8, addend: 0x0, symName: __ZNK22llama_kv_cache_unified8get_n_kvEv, symObjAddr: 0x8120, symBinAddr: 0x4CAB0, symSize: 0xD0 }
  - { offset: 0x2985E9, size: 0x8, addend: 0x0, symName: __ZNK22llama_kv_cache_unified21get_supports_set_rowsEv, symObjAddr: 0x81F0, symBinAddr: 0x4CB80, symSize: 0x10 }
  - { offset: 0x2986E1, size: 0x8, addend: 0x0, symName: __ZNK22llama_kv_cache_unified5get_kEP12ggml_contextijRKNS_9slot_infoE, symObjAddr: 0x8200, symBinAddr: 0x4CB90, symSize: 0x2C0 }
  - { offset: 0x298AA5, size: 0x8, addend: 0x0, symName: __ZNK22llama_kv_cache_unified5get_vEP12ggml_contextijRKNS_9slot_infoE, symObjAddr: 0x84C0, symBinAddr: 0x4CE50, symSize: 0x360 }
  - { offset: 0x298E6C, size: 0x8, addend: 0x0, symName: __ZNK22llama_kv_cache_unified5cpy_kEP12ggml_contextP11ggml_tensorS3_iRKNS_9slot_infoE, symObjAddr: 0x8820, symBinAddr: 0x4D1B0, symSize: 0x330 }
  - { offset: 0x29924E, size: 0x8, addend: 0x0, symName: __ZNK22llama_kv_cache_unified5cpy_vEP12ggml_contextP11ggml_tensorS3_iRKNS_9slot_infoE, symObjAddr: 0x8B50, symBinAddr: 0x4D4E0, symSize: 0x440 }
  - { offset: 0x299767, size: 0x8, addend: 0x0, symName: __ZNK22llama_kv_cache_unified18build_input_k_idxsEP12ggml_contextRK12llama_ubatch, symObjAddr: 0x8F90, symBinAddr: 0x4D920, symSize: 0x30 }
  - { offset: 0x2997D2, size: 0x8, addend: 0x0, symName: __ZNK22llama_kv_cache_unified18build_input_v_idxsEP12ggml_contextRK12llama_ubatch, symObjAddr: 0x8FC0, symBinAddr: 0x4D950, symSize: 0x50 }
  - { offset: 0x299845, size: 0x8, addend: 0x0, symName: __ZNK22llama_kv_cache_unified16set_input_k_idxsEP11ggml_tensorPK12llama_ubatchRKNS_9slot_infoE, symObjAddr: 0x9010, symBinAddr: 0x4D9A0, symSize: 0x420 }
  - { offset: 0x299A0D, size: 0x8, addend: 0x0, symName: __ZNK22llama_kv_cache_unified16set_input_v_idxsEP11ggml_tensorPK12llama_ubatchRKNS_9slot_infoE, symObjAddr: 0x9430, symBinAddr: 0x4DDC0, symSize: 0x6A0 }
  - { offset: 0x299CDF, size: 0x8, addend: 0x0, symName: __ZNK22llama_kv_cache_unified17set_input_k_shiftEP11ggml_tensor, symObjAddr: 0x9AD0, symBinAddr: 0x4E460, symSize: 0x140 }
  - { offset: 0x299CF2, size: 0x8, addend: 0x0, symName: __ZNK22llama_kv_cache_unified17set_input_k_shiftEP11ggml_tensor, symObjAddr: 0x9AD0, symBinAddr: 0x4E460, symSize: 0x140 }
  - { offset: 0x299E06, size: 0x8, addend: 0x0, symName: __ZNK22llama_kv_cache_unified17set_input_kq_maskEP11ggml_tensorPK12llama_ubatchb, symObjAddr: 0x9C10, symBinAddr: 0x4E5A0, symSize: 0x2C0 }
  - { offset: 0x29A190, size: 0x8, addend: 0x0, symName: __ZNK22llama_kv_cache_unified20set_input_pos_bucketEP11ggml_tensorPK12llama_ubatch, symObjAddr: 0x9ED0, symBinAddr: 0x4E860, symSize: 0x160 }
  - { offset: 0x29A3E4, size: 0x8, addend: 0x0, symName: __ZNK22llama_kv_cache_unified10total_sizeEv, symObjAddr: 0xA030, symBinAddr: 0x4E9C0, symSize: 0x50 }
  - { offset: 0x29A639, size: 0x8, addend: 0x0, symName: __ZN23llm_graph_input_k_shift9set_inputEPK12llama_ubatch, symObjAddr: 0xA1E0, symBinAddr: 0x4EB70, symSize: 0x150 }
  - { offset: 0x29AF05, size: 0x8, addend: 0x0, symName: __ZNK22llama_kv_cache_unified11state_writeER16llama_io_write_ii, symObjAddr: 0xA330, symBinAddr: 0x4ECC0, symSize: 0x530 }
  - { offset: 0x29BC95, size: 0x8, addend: 0x0, symName: __ZNK22llama_kv_cache_unified16state_write_metaER16llama_io_write_iRKNS_13cell_ranges_tEi, symObjAddr: 0xA860, symBinAddr: 0x4F1F0, symSize: 0x2E0 }
  - { offset: 0x29C68C, size: 0x8, addend: 0x0, symName: __ZNK22llama_kv_cache_unified16state_write_dataER16llama_io_write_iRKNS_13cell_ranges_tE, symObjAddr: 0xAB40, symBinAddr: 0x4F4D0, symSize: 0x3D0 }
  - { offset: 0x29CFCC, size: 0x8, addend: 0x0, symName: __ZNKSt3__16vectorINS_4pairIjjEENS_9allocatorIS2_EEE20__throw_length_errorB8ne190102Ev, symObjAddr: 0x102B0, symBinAddr: 0x54300, symSize: 0x10 }
  - { offset: 0x29CFF6, size: 0x8, addend: 0x0, symName: __ZNSt3__16vectorIN22llama_kv_cache_unified9slot_infoENS_9allocatorIS2_EEE8__appendEm, symObjAddr: 0x102C0, symBinAddr: 0x54310, symSize: 0x1AA }
  - { offset: 0x29D1D9, size: 0x8, addend: 0x0, symName: __ZN22llama_kv_cache_unified10state_readER15llama_io_read_ii, symObjAddr: 0xAF10, symBinAddr: 0x4F8A0, symSize: 0x200 }
  - { offset: 0x29D3FE, size: 0x8, addend: 0x0, symName: __ZN22llama_kv_cache_unified15state_read_metaER15llama_io_read_ijji, symObjAddr: 0xB110, symBinAddr: 0x4FAA0, symSize: 0x620 }
  - { offset: 0x29E293, size: 0x8, addend: 0x0, symName: __ZN22llama_kv_cache_unified15state_read_dataER15llama_io_read_ijj, symObjAddr: 0xB730, symBinAddr: 0x500C0, symSize: 0x640 }
  - { offset: 0x29F685, size: 0x8, addend: 0x0, symName: __ZN30llama_kv_cache_unified_contextC2E19llama_memory_status, symObjAddr: 0xBD70, symBinAddr: 0x50700, symSize: 0x40 }
  - { offset: 0x29F726, size: 0x8, addend: 0x0, symName: __ZN30llama_kv_cache_unified_contextC1E19llama_memory_status, symObjAddr: 0xBDB0, symBinAddr: 0x50740, symSize: 0x40 }
  - { offset: 0x29F95A, size: 0x8, addend: 0x0, symName: __ZNSt3__16vectorIN22llama_kv_cache_unified9slot_infoENS_9allocatorIS2_EEE6resizeEm, symObjAddr: 0xC110, symBinAddr: 0x50AA0, symSize: 0xE0 }
  - { offset: 0x29FEBB, size: 0x8, addend: 0x0, symName: __ZNSt3__16vectorIN22llama_kv_cache_unified9slot_infoENS_9allocatorIS2_EEE8__appendEm, symObjAddr: 0x102C0, symBinAddr: 0x54310, symSize: 0x1AA }
  - { offset: 0x2A0483, size: 0x8, addend: 0x0, symName: __ZN30llama_kv_cache_unified_contextC1EP22llama_kv_cache_unified, symObjAddr: 0xC1F0, symBinAddr: 0x50B80, symSize: 0x10 }
  - { offset: 0x2A04C7, size: 0x8, addend: 0x0, symName: __ZN30llama_kv_cache_unified_contextC2EP22llama_kv_cache_unifiedP13llama_contextbNS0_11defrag_infoENS0_16stream_copy_infoE, symObjAddr: 0xC200, symBinAddr: 0x50B90, symSize: 0xE0 }
  - { offset: 0x2A0749, size: 0x8, addend: 0x0, symName: __ZN30llama_kv_cache_unified_contextC1EP22llama_kv_cache_unifiedP13llama_contextbNS0_11defrag_infoENS0_16stream_copy_infoE, symObjAddr: 0xC2E0, symBinAddr: 0x50C70, symSize: 0xE0 }
  - { offset: 0x2A0A1B, size: 0x8, addend: 0x0, symName: __ZN30llama_kv_cache_unified_contextC2EP22llama_kv_cache_unifiedNSt3__16vectorINS0_9slot_infoENS2_9allocatorIS4_EEEENS3_I12llama_ubatchNS5_IS8_EEEE, symObjAddr: 0xC3C0, symBinAddr: 0x50D50, symSize: 0xA0 }
  - { offset: 0x2A0B68, size: 0x8, addend: 0x0, symName: __ZN30llama_kv_cache_unified_contextC1EP22llama_kv_cache_unifiedNSt3__16vectorINS0_9slot_infoENS2_9allocatorIS4_EEEENS3_I12llama_ubatchNS5_IS8_EEEE, symObjAddr: 0xC460, symBinAddr: 0x50DF0, symSize: 0xA0 }
  - { offset: 0x2A0D05, size: 0x8, addend: 0x0, symName: __ZN30llama_kv_cache_unified_contextD2Ev, symObjAddr: 0xC500, symBinAddr: 0x50E90, symSize: 0x180 }
  - { offset: 0x2A192B, size: 0x8, addend: 0x0, symName: __ZN30llama_kv_cache_unified_contextD1Ev, symObjAddr: 0xC680, symBinAddr: 0x51010, symSize: 0x10 }
  - { offset: 0x2A197E, size: 0x8, addend: 0x0, symName: __ZN30llama_kv_cache_unified_contextD0Ev, symObjAddr: 0xC690, symBinAddr: 0x51020, symSize: 0x20 }
  - { offset: 0x2A19F4, size: 0x8, addend: 0x0, symName: __ZN30llama_kv_cache_unified_context4nextEv, symObjAddr: 0xC6B0, symBinAddr: 0x51040, symSize: 0x40 }
  - { offset: 0x2A1AAF, size: 0x8, addend: 0x0, symName: __ZN30llama_kv_cache_unified_context5applyEv, symObjAddr: 0xC6F0, symBinAddr: 0x51080, symSize: 0x120 }
  - { offset: 0x2A1CE2, size: 0x8, addend: 0x0, symName: __ZNK30llama_kv_cache_unified_context10get_statusEv, symObjAddr: 0xC810, symBinAddr: 0x511A0, symSize: 0x10 }
  - { offset: 0x2A1D2E, size: 0x8, addend: 0x0, symName: __ZNK30llama_kv_cache_unified_context10get_ubatchEv, symObjAddr: 0xC820, symBinAddr: 0x511B0, symSize: 0x20 }
  - { offset: 0x2A1D76, size: 0x8, addend: 0x0, symName: __ZNK30llama_kv_cache_unified_context8get_n_kvEv, symObjAddr: 0xC840, symBinAddr: 0x511D0, symSize: 0x10 }
  - { offset: 0x2A1DB7, size: 0x8, addend: 0x0, symName: __ZNK30llama_kv_cache_unified_context21get_supports_set_rowsEv, symObjAddr: 0xC850, symBinAddr: 0x511E0, symSize: 0x10 }
  - { offset: 0x2A1E20, size: 0x8, addend: 0x0, symName: __ZNK30llama_kv_cache_unified_context5get_kEP12ggml_contexti, symObjAddr: 0xC860, symBinAddr: 0x511F0, symSize: 0x20 }
  - { offset: 0x2A1E93, size: 0x8, addend: 0x0, symName: __ZNK30llama_kv_cache_unified_context5get_vEP12ggml_contexti, symObjAddr: 0xC880, symBinAddr: 0x51210, symSize: 0x20 }
  - { offset: 0x2A1F06, size: 0x8, addend: 0x0, symName: __ZNK30llama_kv_cache_unified_context5cpy_kEP12ggml_contextP11ggml_tensorS3_i, symObjAddr: 0xC8A0, symBinAddr: 0x51230, symSize: 0x20 }
  - { offset: 0x2A1FAC, size: 0x8, addend: 0x0, symName: __ZNK30llama_kv_cache_unified_context5cpy_vEP12ggml_contextP11ggml_tensorS3_i, symObjAddr: 0xC8C0, symBinAddr: 0x51250, symSize: 0x20 }
  - { offset: 0x2A209B, size: 0x8, addend: 0x0, symName: __ZNK30llama_kv_cache_unified_context18build_input_k_idxsEP12ggml_contextRK12llama_ubatch, symObjAddr: 0xC8E0, symBinAddr: 0x51270, symSize: 0x30 }
  - { offset: 0x2A2187, size: 0x8, addend: 0x0, symName: __ZNK30llama_kv_cache_unified_context18build_input_v_idxsEP12ggml_contextRK12llama_ubatch, symObjAddr: 0xC910, symBinAddr: 0x512A0, symSize: 0x50 }
  - { offset: 0x2A2238, size: 0x8, addend: 0x0, symName: __ZNK30llama_kv_cache_unified_context17set_input_k_shiftEP11ggml_tensor, symObjAddr: 0xC960, symBinAddr: 0x512F0, symSize: 0x140 }
  - { offset: 0x2A237B, size: 0x8, addend: 0x0, symName: __ZNK30llama_kv_cache_unified_context16set_input_k_idxsEP11ggml_tensorPK12llama_ubatch, symObjAddr: 0xCAA0, symBinAddr: 0x51430, symSize: 0x20 }
  - { offset: 0x2A23F5, size: 0x8, addend: 0x0, symName: __ZNK30llama_kv_cache_unified_context16set_input_v_idxsEP11ggml_tensorPK12llama_ubatch, symObjAddr: 0xCAC0, symBinAddr: 0x51450, symSize: 0x20 }
  - { offset: 0x2A246F, size: 0x8, addend: 0x0, symName: __ZNK30llama_kv_cache_unified_context17set_input_kq_maskEP11ggml_tensorPK12llama_ubatchb, symObjAddr: 0xCAE0, symBinAddr: 0x51470, symSize: 0x10 }
  - { offset: 0x2A24F6, size: 0x8, addend: 0x0, symName: __ZNK30llama_kv_cache_unified_context20set_input_pos_bucketEP11ggml_tensorPK12llama_ubatch, symObjAddr: 0xCAF0, symBinAddr: 0x51480, symSize: 0x10 }
  - { offset: 0x2A255B, size: 0x8, addend: 0x0, symName: __ZN22llama_kv_cache_unified11get_paddingERK13llama_cparams, symObjAddr: 0xCB00, symBinAddr: 0x51490, symSize: 0x20 }
  - { offset: 0x2A2582, size: 0x8, addend: 0x0, symName: __ZN22llama_kv_cache_unifiedD1Ev, symObjAddr: 0xCB20, symBinAddr: 0x514B0, symSize: 0x10 }
  - { offset: 0x2A25B8, size: 0x8, addend: 0x0, symName: __ZN22llama_kv_cache_unifiedD2Ev, symObjAddr: 0xE200, symBinAddr: 0x52500, symSize: 0x210 }
  - { offset: 0x2A36DE, size: 0x8, addend: 0x0, symName: __ZN22llama_kv_cache_unifiedD0Ev, symObjAddr: 0xCB30, symBinAddr: 0x514C0, symSize: 0x20 }
  - { offset: 0x2A373A, size: 0x8, addend: 0x0, symName: __ZN23llm_graph_input_k_shiftD1Ev, symObjAddr: 0xCB50, symBinAddr: 0x514E0, symSize: 0x10 }
  - { offset: 0x2A3763, size: 0x8, addend: 0x0, symName: __ZN23llm_graph_input_k_shiftD0Ev, symObjAddr: 0xCB60, symBinAddr: 0x514F0, symSize: 0x10 }
  - { offset: 0x2A3C70, size: 0x8, addend: 0x0, symName: __ZNKSt3__16vectorINS0_IjNS_9allocatorIjEEEENS1_IS3_EEE20__throw_length_errorB8ne190102Ev, symObjAddr: 0xD900, symBinAddr: 0x51E30, symSize: 0x10 }
  - { offset: 0x2A3C9A, size: 0x8, addend: 0x0, symName: __ZNSt3__135__uninitialized_allocator_copy_implB8ne190102INS_9allocatorINS_6vectorIjNS1_IjEEEEEEPS4_S6_S6_EET2_RT_T0_T1_S7_, symObjAddr: 0xD910, symBinAddr: 0x51E40, symSize: 0x100 }
  - { offset: 0x2A3CA5, size: 0x8, addend: 0x0, symName: __ZNSt3__128__exception_guard_exceptionsINS_6vectorINS1_IjNS_9allocatorIjEEEENS2_IS4_EEE16__destroy_vectorEED1B8ne190102Ev, symObjAddr: 0xD890, symBinAddr: 0x51DC0, symSize: 0x70 }
  - { offset: 0x2A4035, size: 0x8, addend: 0x0, symName: __ZNSt3__128__exception_guard_exceptionsINS_29_AllocatorDestroyRangeReverseINS_9allocatorINS_6vectorIjNS2_IjEEEEEEPS5_EEED1B8ne190102Ev, symObjAddr: 0xDA10, symBinAddr: 0x51F40, symSize: 0x50 }
  - { offset: 0x2A4062, size: 0x8, addend: 0x0, symName: __ZNSt3__128__exception_guard_exceptionsINS_29_AllocatorDestroyRangeReverseINS_9allocatorINS_6vectorIjNS2_IjEEEEEEPS5_EEED1B8ne190102Ev, symObjAddr: 0xDA10, symBinAddr: 0x51F40, symSize: 0x50 }
  - { offset: 0x2A4274, size: 0x8, addend: 0x0, symName: __ZN22llama_kv_cells_unifiedC2Ev, symObjAddr: 0xDA60, symBinAddr: 0x51F90, symSize: 0x570 }
  - { offset: 0x2A55B0, size: 0x8, addend: 0x0, symName: __ZNSt3__114__split_bufferI22llama_kv_cells_unifiedRNS_9allocatorIS1_EEE17__destruct_at_endB8ne190102EPS1_, symObjAddr: 0xEDD0, symBinAddr: 0x53080, symSize: 0xF0 }
  - { offset: 0x2A5BB0, size: 0x8, addend: 0x0, symName: __ZNKSt3__16vectorI22llama_kv_cells_unifiedNS_9allocatorIS1_EEE20__throw_length_errorB8ne190102Ev, symObjAddr: 0xEA60, symBinAddr: 0x52D10, symSize: 0x10 }
  - { offset: 0x2A5BDA, size: 0x8, addend: 0x0, symName: __ZNSt3__134__uninitialized_allocator_relocateB8ne190102INS_9allocatorI22llama_kv_cells_unifiedEES2_EEvRT_PT0_S7_S7_, symObjAddr: 0xEA70, symBinAddr: 0x52D20, symSize: 0x280 }
  - { offset: 0x2A5BE5, size: 0x8, addend: 0x0, symName: __ZNSt3__114__split_bufferI22llama_kv_cells_unifiedRNS_9allocatorIS1_EEED1Ev, symObjAddr: 0xEA30, symBinAddr: 0x52CE0, symSize: 0x30 }
  - { offset: 0x2A5D16, size: 0x8, addend: 0x0, symName: __ZNKSt3__129_AllocatorDestroyRangeReverseINS_9allocatorI22llama_kv_cells_unifiedEEPS2_EclB8ne190102Ev, symObjAddr: 0xECF0, symBinAddr: 0x52FA0, symSize: 0xE0 }
  - { offset: 0x2A68E2, size: 0x8, addend: 0x0, symName: __ZNSt3__112__hash_tableINS_17__hash_value_typeIiiEENS_22__unordered_map_hasherIiS2_NS_4hashIiEENS_8equal_toIiEELb1EEENS_21__unordered_map_equalIiS2_S7_S5_Lb1EEENS_9allocatorIS2_EEE11__do_rehashILb1EEEvm, symObjAddr: 0xF570, symBinAddr: 0x53810, symSize: 0x230 }
  - { offset: 0x2A6F3F, size: 0x8, addend: 0x0, symName: __ZNKSt3__16vectorIN22llama_kv_cache_unified8kv_layerENS_9allocatorIS2_EEE20__throw_length_errorB8ne190102Ev, symObjAddr: 0xF9E0, symBinAddr: 0x53C80, symSize: 0x10 }
  - { offset: 0x2A70F9, size: 0x8, addend: 0x0, symName: __ZNSt3__116allocator_traitsINS_9allocatorIZN22llama_kv_cache_unified7prepareERKNS_6vectorI12llama_ubatchNS1_IS4_EEEEE7state_tEEE7destroyB8ne190102IS9_Li0EEEvRSA_PT_, symObjAddr: 0xFC40, symBinAddr: 0x53C90, symSize: 0xC0 }
  - { offset: 0x2A7329, size: 0x8, addend: 0x0, symName: __ZNKSt3__16vectorIN22llama_kv_cache_unified9slot_infoENS_9allocatorIS2_EEE20__throw_length_errorB8ne190102Ev, symObjAddr: 0xFE40, symBinAddr: 0x53E90, symSize: 0x10 }
  - { offset: 0x2A7353, size: 0x8, addend: 0x0, symName: __ZNSt3__134__uninitialized_allocator_relocateB8ne190102INS_9allocatorIN22llama_kv_cache_unified9slot_infoEEES3_EEvRT_PT0_S8_S8_, symObjAddr: 0xFE50, symBinAddr: 0x53EA0, symSize: 0x110 }
  - { offset: 0x2A735E, size: 0x8, addend: 0x0, symName: __ZNSt3__114__split_bufferIN22llama_kv_cache_unified9slot_infoERNS_9allocatorIS2_EEED2Ev, symObjAddr: 0xFF60, symBinAddr: 0x53FB0, symSize: 0xC0 }
  - { offset: 0x2A99C5, size: 0x8, addend: 0x0, symName: __ZN19llama_memory_hybridC2ERK11llama_model9ggml_typeS3_bjjj14llama_swa_typeS3_S3_jjbbONSt3__18functionIFbiEEES9_, symObjAddr: 0x0, symBinAddr: 0x544C0, symSize: 0x270 }
  - { offset: 0x2CF2A6, size: 0x8, addend: 0x0, symName: __ZNSt3__111make_uniqueB8ne190102I27llama_memory_hybrid_contextJP19llama_memory_hybridNS_6vectorIN22llama_kv_cache_unified9slot_infoENS_9allocatorIS6_EEEENS4_I12llama_ubatchNS7_ISA_EEEEEEENS_11__unique_ifIT_E15__unique_singleEDpOT0_, symObjAddr: 0x980, symBinAddr: 0x54E00, symSize: 0x1A0 }
  - { offset: 0x2D8418, size: 0x8, addend: 0x0, symName: __ZN19llama_memory_hybridC1ERK11llama_model9ggml_typeS3_bjjj14llama_swa_typeS3_S3_jjbbONSt3__18functionIFbiEEES9_, symObjAddr: 0x270, symBinAddr: 0x54730, symSize: 0x10 }
  - { offset: 0x2D9696, size: 0x8, addend: 0x0, symName: __ZN19llama_memory_hybridC2ERK11llama_model9ggml_typeS3_bjjj14llama_swa_typeS3_S3_jjbbONSt3__18functionIFbiEEES9_, symObjAddr: 0x0, symBinAddr: 0x544C0, symSize: 0x270 }
  - { offset: 0x2DABAF, size: 0x8, addend: 0x0, symName: __ZN19llama_memory_hybrid10init_batchER18llama_batch_allocrjb, symObjAddr: 0x280, symBinAddr: 0x54740, symSize: 0x6C0 }
  - { offset: 0x2DCA71, size: 0x8, addend: 0x0, symName: __ZN27llama_memory_hybrid_contextC2EP19llama_memory_hybridNSt3__16vectorIN22llama_kv_cache_unified9slot_infoENS2_9allocatorIS5_EEEENS3_I12llama_ubatchNS6_IS9_EEEE, symObjAddr: 0x1210, symBinAddr: 0x55540, symSize: 0x4D0 }
  - { offset: 0x2DE14A, size: 0x8, addend: 0x0, symName: __ZN19llama_memory_hybrid9init_fullEv, symObjAddr: 0xC70, symBinAddr: 0x54FA0, symSize: 0x50 }
  - { offset: 0x2DE244, size: 0x8, addend: 0x0, symName: __ZN27llama_memory_hybrid_contextC2EP19llama_memory_hybrid, symObjAddr: 0x1050, symBinAddr: 0x55380, symSize: 0xC0 }
  - { offset: 0x2DE52F, size: 0x8, addend: 0x0, symName: __ZN19llama_memory_hybrid11init_updateEP13llama_contextb, symObjAddr: 0xCC0, symBinAddr: 0x54FF0, symSize: 0x60 }
  - { offset: 0x2DE66D, size: 0x8, addend: 0x0, symName: __ZN27llama_memory_hybrid_contextC2EP19llama_memory_hybridP13llama_contextb, symObjAddr: 0x1120, symBinAddr: 0x55450, symSize: 0xE0 }
  - { offset: 0x2DE94A, size: 0x8, addend: 0x0, symName: __ZNK19llama_memory_hybrid13get_can_shiftEv, symObjAddr: 0xD20, symBinAddr: 0x55050, symSize: 0x10 }
  - { offset: 0x2DE99D, size: 0x8, addend: 0x0, symName: __ZN19llama_memory_hybrid5clearEb, symObjAddr: 0xD30, symBinAddr: 0x55060, symSize: 0x30 }
  - { offset: 0x2DEA31, size: 0x8, addend: 0x0, symName: __ZN19llama_memory_hybrid6seq_rmEiii, symObjAddr: 0xD60, symBinAddr: 0x55090, symSize: 0x50 }
  - { offset: 0x2DEAF1, size: 0x8, addend: 0x0, symName: __ZN19llama_memory_hybrid6seq_cpEiiii, symObjAddr: 0xDB0, symBinAddr: 0x550E0, symSize: 0x50 }
  - { offset: 0x2DEBC7, size: 0x8, addend: 0x0, symName: __ZN19llama_memory_hybrid8seq_keepEi, symObjAddr: 0xE00, symBinAddr: 0x55130, symSize: 0x30 }
  - { offset: 0x2DEC5B, size: 0x8, addend: 0x0, symName: __ZN19llama_memory_hybrid7seq_addEiiii, symObjAddr: 0xE30, symBinAddr: 0x55160, symSize: 0x50 }
  - { offset: 0x2DED31, size: 0x8, addend: 0x0, symName: __ZN19llama_memory_hybrid7seq_divEiiii, symObjAddr: 0xE80, symBinAddr: 0x551B0, symSize: 0x50 }
  - { offset: 0x2DEE07, size: 0x8, addend: 0x0, symName: __ZNK19llama_memory_hybrid11seq_pos_minEi, symObjAddr: 0xED0, symBinAddr: 0x55200, symSize: 0x40 }
  - { offset: 0x2DEEA2, size: 0x8, addend: 0x0, symName: __ZNK19llama_memory_hybrid11seq_pos_maxEi, symObjAddr: 0xF10, symBinAddr: 0x55240, symSize: 0x40 }
  - { offset: 0x2DEF3D, size: 0x8, addend: 0x0, symName: __ZNK19llama_memory_hybrid11state_writeER16llama_io_write_ii, symObjAddr: 0xF50, symBinAddr: 0x55280, symSize: 0x40 }
  - { offset: 0x2DEFE7, size: 0x8, addend: 0x0, symName: __ZN19llama_memory_hybrid10state_readER15llama_io_read_ii, symObjAddr: 0xF90, symBinAddr: 0x552C0, symSize: 0x40 }
  - { offset: 0x2DF0A7, size: 0x8, addend: 0x0, symName: __ZNK19llama_memory_hybrid12get_mem_attnEv, symObjAddr: 0xFD0, symBinAddr: 0x55300, symSize: 0x10 }
  - { offset: 0x2DF0FB, size: 0x8, addend: 0x0, symName: __ZNK19llama_memory_hybrid12get_mem_recrEv, symObjAddr: 0xFE0, symBinAddr: 0x55310, symSize: 0x10 }
  - { offset: 0x2DF139, size: 0x8, addend: 0x0, symName: __ZN27llama_memory_hybrid_contextC2E19llama_memory_status, symObjAddr: 0xFF0, symBinAddr: 0x55320, symSize: 0x30 }
  - { offset: 0x2DF19D, size: 0x8, addend: 0x0, symName: __ZN27llama_memory_hybrid_contextC1E19llama_memory_status, symObjAddr: 0x1020, symBinAddr: 0x55350, symSize: 0x30 }
  - { offset: 0x2DF316, size: 0x8, addend: 0x0, symName: __ZN27llama_memory_hybrid_contextC1EP19llama_memory_hybrid, symObjAddr: 0x1110, symBinAddr: 0x55440, symSize: 0x10 }
  - { offset: 0x2DF35A, size: 0x8, addend: 0x0, symName: __ZN27llama_memory_hybrid_contextC1EP19llama_memory_hybridP13llama_contextb, symObjAddr: 0x1200, symBinAddr: 0x55530, symSize: 0x10 }
  - { offset: 0x2DF99D, size: 0x8, addend: 0x0, symName: __ZN27llama_memory_hybrid_contextC1EP19llama_memory_hybridNSt3__16vectorIN22llama_kv_cache_unified9slot_infoENS2_9allocatorIS5_EEEENS3_I12llama_ubatchNS6_IS9_EEEE, symObjAddr: 0x16E0, symBinAddr: 0x55A10, symSize: 0x10 }
  - { offset: 0x2DF9FF, size: 0x8, addend: 0x0, symName: __ZN27llama_memory_hybrid_context4nextEv, symObjAddr: 0x16F0, symBinAddr: 0x55A20, symSize: 0x50 }
  - { offset: 0x2DFA92, size: 0x8, addend: 0x0, symName: __ZN27llama_memory_hybrid_context5applyEv, symObjAddr: 0x1740, symBinAddr: 0x55A70, symSize: 0x30 }
  - { offset: 0x2DFB1F, size: 0x8, addend: 0x0, symName: __ZNK27llama_memory_hybrid_context10get_statusEv, symObjAddr: 0x1770, symBinAddr: 0x55AA0, symSize: 0x10 }
  - { offset: 0x2DFB6A, size: 0x8, addend: 0x0, symName: __ZNK27llama_memory_hybrid_context10get_ubatchEv, symObjAddr: 0x1780, symBinAddr: 0x55AB0, symSize: 0x10 }
  - { offset: 0x2DFBC5, size: 0x8, addend: 0x0, symName: __ZNK27llama_memory_hybrid_context8get_attnEv, symObjAddr: 0x1790, symBinAddr: 0x55AC0, symSize: 0x10 }
  - { offset: 0x2DFC0A, size: 0x8, addend: 0x0, symName: __ZNK27llama_memory_hybrid_context8get_recrEv, symObjAddr: 0x17A0, symBinAddr: 0x55AD0, symSize: 0x10 }
  - { offset: 0x2DFCF1, size: 0x8, addend: 0x0, symName: __ZN19llama_memory_hybridD1Ev, symObjAddr: 0x17B0, symBinAddr: 0x55AE0, symSize: 0x50 }
  - { offset: 0x2DFE7E, size: 0x8, addend: 0x0, symName: __ZN19llama_memory_hybridD0Ev, symObjAddr: 0x1800, symBinAddr: 0x55B30, symSize: 0x50 }
  - { offset: 0x2E0037, size: 0x8, addend: 0x0, symName: __ZN27llama_memory_hybrid_contextD1Ev, symObjAddr: 0x1850, symBinAddr: 0x55B80, symSize: 0xC0 }
  - { offset: 0x2E03F8, size: 0x8, addend: 0x0, symName: __ZN27llama_memory_hybrid_contextD0Ev, symObjAddr: 0x1910, symBinAddr: 0x55C40, symSize: 0xC0 }
  - { offset: 0x2E07C2, size: 0x8, addend: 0x0, symName: '__ZNSt3__110__function6__funcIZN19llama_memory_hybridC1ERK11llama_model9ggml_typeS6_bjjj14llama_swa_typeS6_S6_jjbbONS_8functionIFbiEEESB_E3$_0NS_9allocatorISC_EES9_ED1Ev', symObjAddr: 0x19D0, symBinAddr: 0x55D00, symSize: 0x10 }
  - { offset: 0x2E07EB, size: 0x8, addend: 0x0, symName: '__ZNSt3__110__function6__funcIZN19llama_memory_hybridC1ERK11llama_model9ggml_typeS6_bjjj14llama_swa_typeS6_S6_jjbbONS_8functionIFbiEEESB_E3$_0NS_9allocatorISC_EES9_ED0Ev', symObjAddr: 0x19E0, symBinAddr: 0x55D10, symSize: 0x10 }
  - { offset: 0x2E09EE, size: 0x8, addend: 0x0, symName: '__ZNKSt3__110__function6__funcIZN19llama_memory_hybridC1ERK11llama_model9ggml_typeS6_bjjj14llama_swa_typeS6_S6_jjbbONS_8functionIFbiEEESB_E3$_0NS_9allocatorISC_EES9_E7__cloneEv', symObjAddr: 0x19F0, symBinAddr: 0x55D20, symSize: 0x30 }
  - { offset: 0x2E0CD1, size: 0x8, addend: 0x0, symName: '__ZNKSt3__110__function6__funcIZN19llama_memory_hybridC1ERK11llama_model9ggml_typeS6_bjjj14llama_swa_typeS6_S6_jjbbONS_8functionIFbiEEESB_E3$_0NS_9allocatorISC_EES9_E7__cloneEPNS0_6__baseIS9_EE', symObjAddr: 0x1A20, symBinAddr: 0x55D50, symSize: 0x20 }
  - { offset: 0x2E0DD6, size: 0x8, addend: 0x0, symName: '__ZNSt3__110__function6__funcIZN19llama_memory_hybridC1ERK11llama_model9ggml_typeS6_bjjj14llama_swa_typeS6_S6_jjbbONS_8functionIFbiEEESB_E3$_0NS_9allocatorISC_EES9_E7destroyEv', symObjAddr: 0x1A40, symBinAddr: 0x55D70, symSize: 0x10 }
  - { offset: 0x2E0E25, size: 0x8, addend: 0x0, symName: '__ZNSt3__110__function6__funcIZN19llama_memory_hybridC1ERK11llama_model9ggml_typeS6_bjjj14llama_swa_typeS6_S6_jjbbONS_8functionIFbiEEESB_E3$_0NS_9allocatorISC_EES9_E18destroy_deallocateEv', symObjAddr: 0x1A50, symBinAddr: 0x55D80, symSize: 0x10 }
  - { offset: 0x2E0F70, size: 0x8, addend: 0x0, symName: '__ZNSt3__110__function6__funcIZN19llama_memory_hybridC1ERK11llama_model9ggml_typeS6_bjjj14llama_swa_typeS6_S6_jjbbONS_8functionIFbiEEESB_E3$_0NS_9allocatorISC_EES9_EclEOi', symObjAddr: 0x1A60, symBinAddr: 0x55D90, symSize: 0x20 }
  - { offset: 0x2E104A, size: 0x8, addend: 0x0, symName: '__ZNKSt3__110__function6__funcIZN19llama_memory_hybridC1ERK11llama_model9ggml_typeS6_bjjj14llama_swa_typeS6_S6_jjbbONS_8functionIFbiEEESB_E3$_0NS_9allocatorISC_EES9_E6targetERKSt9type_info', symObjAddr: 0x1A80, symBinAddr: 0x55DB0, symSize: 0x20 }
  - { offset: 0x2E10BA, size: 0x8, addend: 0x0, symName: '__ZNKSt3__110__function6__funcIZN19llama_memory_hybridC1ERK11llama_model9ggml_typeS6_bjjj14llama_swa_typeS6_S6_jjbbONS_8functionIFbiEEESB_E3$_0NS_9allocatorISC_EES9_E11target_typeEv', symObjAddr: 0x1AA0, symBinAddr: 0x55DD0, symSize: 0x10 }
  - { offset: 0x2E10DD, size: 0x8, addend: 0x0, symName: '__ZNSt3__110__function6__funcIZN19llama_memory_hybridC1ERK11llama_model9ggml_typeS6_bjjj14llama_swa_typeS6_S6_jjbbONS_8functionIFbiEEESB_E3$_1NS_9allocatorISC_EES9_ED1Ev', symObjAddr: 0x1AF0, symBinAddr: 0x55DE0, symSize: 0x10 }
  - { offset: 0x2E1106, size: 0x8, addend: 0x0, symName: '__ZNSt3__110__function6__funcIZN19llama_memory_hybridC1ERK11llama_model9ggml_typeS6_bjjj14llama_swa_typeS6_S6_jjbbONS_8functionIFbiEEESB_E3$_1NS_9allocatorISC_EES9_ED0Ev', symObjAddr: 0x1B00, symBinAddr: 0x55DF0, symSize: 0x10 }
  - { offset: 0x2E1309, size: 0x8, addend: 0x0, symName: '__ZNKSt3__110__function6__funcIZN19llama_memory_hybridC1ERK11llama_model9ggml_typeS6_bjjj14llama_swa_typeS6_S6_jjbbONS_8functionIFbiEEESB_E3$_1NS_9allocatorISC_EES9_E7__cloneEv', symObjAddr: 0x1B10, symBinAddr: 0x55E00, symSize: 0x30 }
  - { offset: 0x2E15EC, size: 0x8, addend: 0x0, symName: '__ZNKSt3__110__function6__funcIZN19llama_memory_hybridC1ERK11llama_model9ggml_typeS6_bjjj14llama_swa_typeS6_S6_jjbbONS_8functionIFbiEEESB_E3$_1NS_9allocatorISC_EES9_E7__cloneEPNS0_6__baseIS9_EE', symObjAddr: 0x1B40, symBinAddr: 0x55E30, symSize: 0x20 }
  - { offset: 0x2E16F1, size: 0x8, addend: 0x0, symName: '__ZNSt3__110__function6__funcIZN19llama_memory_hybridC1ERK11llama_model9ggml_typeS6_bjjj14llama_swa_typeS6_S6_jjbbONS_8functionIFbiEEESB_E3$_1NS_9allocatorISC_EES9_E7destroyEv', symObjAddr: 0x1B60, symBinAddr: 0x55E50, symSize: 0x10 }
  - { offset: 0x2E1740, size: 0x8, addend: 0x0, symName: '__ZNSt3__110__function6__funcIZN19llama_memory_hybridC1ERK11llama_model9ggml_typeS6_bjjj14llama_swa_typeS6_S6_jjbbONS_8functionIFbiEEESB_E3$_1NS_9allocatorISC_EES9_E18destroy_deallocateEv', symObjAddr: 0x1B70, symBinAddr: 0x55E60, symSize: 0x10 }
  - { offset: 0x2E188B, size: 0x8, addend: 0x0, symName: '__ZNSt3__110__function6__funcIZN19llama_memory_hybridC1ERK11llama_model9ggml_typeS6_bjjj14llama_swa_typeS6_S6_jjbbONS_8functionIFbiEEESB_E3$_1NS_9allocatorISC_EES9_EclEOi', symObjAddr: 0x1B80, symBinAddr: 0x55E70, symSize: 0x20 }
  - { offset: 0x2E191E, size: 0x8, addend: 0x0, symName: '__ZNKSt3__110__function6__funcIZN19llama_memory_hybridC1ERK11llama_model9ggml_typeS6_bjjj14llama_swa_typeS6_S6_jjbbONS_8functionIFbiEEESB_E3$_1NS_9allocatorISC_EES9_E6targetERKSt9type_info', symObjAddr: 0x1BA0, symBinAddr: 0x55E90, symSize: 0x20 }
  - { offset: 0x2E198E, size: 0x8, addend: 0x0, symName: '__ZNKSt3__110__function6__funcIZN19llama_memory_hybridC1ERK11llama_model9ggml_typeS6_bjjj14llama_swa_typeS6_S6_jjbbONS_8functionIFbiEEESB_E3$_1NS_9allocatorISC_EES9_E11target_typeEv', symObjAddr: 0x1BC0, symBinAddr: 0x55EB0, symSize: 0x10 }
  - { offset: 0x30395A, size: 0x8, addend: 0x0, symName: __ZN22llama_memory_recurrentC2ERK11llama_modelONSt3__18functionIFbiEEE9ggml_typeS8_bjj, symObjAddr: 0x0, symBinAddr: 0x55EC0, symSize: 0x9C0 }
  - { offset: 0x3066E7, size: 0x8, addend: 0x0, symName: __ZNSt3__16vectorIN22llama_memory_recurrent8mem_cellENS_9allocatorIS2_EEE8__appendEm, symObjAddr: 0x4920, symBinAddr: 0x5A180, symSize: 0x240 }
  - { offset: 0x306FA5, size: 0x8, addend: 0x0, symName: __ZNSt3__16vectorIP11ggml_tensorNS_9allocatorIS2_EEE8__appendEm, symObjAddr: 0x4BF0, symBinAddr: 0x5A410, symSize: 0x150 }
  - { offset: 0x30785D, size: 0x8, addend: 0x0, symName: __ZNSt3__16vectorIN22llama_memory_recurrent8mem_cellENS_9allocatorIS2_EEED1B8ne190102Ev, symObjAddr: 0xB60, symBinAddr: 0x56920, symSize: 0x70 }
  - { offset: 0x307A95, size: 0x8, addend: 0x0, symName: __ZNK22llama_memory_recurrent12size_r_bytesEv, symObjAddr: 0x9C0, symBinAddr: 0x56880, symSize: 0x50 }
  - { offset: 0x307B8C, size: 0x8, addend: 0x0, symName: __ZNK22llama_memory_recurrent12size_s_bytesEv, symObjAddr: 0xA10, symBinAddr: 0x568D0, symSize: 0x50 }
  - { offset: 0x3081B4, size: 0x8, addend: 0x0, symName: __ZN22llama_memory_recurrentC1ERK11llama_modelONSt3__18functionIFbiEEE9ggml_typeS8_bjj, symObjAddr: 0xBD0, symBinAddr: 0x56990, symSize: 0x10 }
  - { offset: 0x308340, size: 0x8, addend: 0x0, symName: __ZN22llama_memory_recurrent5clearEb, symObjAddr: 0xBE0, symBinAddr: 0x569A0, symSize: 0xE0 }
  - { offset: 0x30884D, size: 0x8, addend: 0x0, symName: __ZN22llama_memory_recurrent6seq_rmEiii, symObjAddr: 0xCC0, symBinAddr: 0x56A80, symSize: 0x310 }
  - { offset: 0x3090C6, size: 0x8, addend: 0x0, symName: __ZN22llama_memory_recurrent6seq_cpEiiii, symObjAddr: 0xFD0, symBinAddr: 0x56D90, symSize: 0x1F0 }
  - { offset: 0x30970C, size: 0x8, addend: 0x0, symName: __ZN22llama_memory_recurrent8seq_keepEi, symObjAddr: 0x11C0, symBinAddr: 0x56F80, symSize: 0x1D0 }
  - { offset: 0x309BCA, size: 0x8, addend: 0x0, symName: __ZN22llama_memory_recurrent7seq_addEiiii, symObjAddr: 0x1390, symBinAddr: 0x57150, symSize: 0xB0 }
  - { offset: 0x309DD4, size: 0x8, addend: 0x0, symName: __ZN22llama_memory_recurrent7seq_divEiiii, symObjAddr: 0x1440, symBinAddr: 0x57200, symSize: 0xB0 }
  - { offset: 0x30A04F, size: 0x8, addend: 0x0, symName: __ZNK22llama_memory_recurrent11seq_pos_minEi, symObjAddr: 0x14F0, symBinAddr: 0x572B0, symSize: 0x90 }
  - { offset: 0x30A24D, size: 0x8, addend: 0x0, symName: __ZNK22llama_memory_recurrent11seq_pos_maxEi, symObjAddr: 0x1580, symBinAddr: 0x57340, symSize: 0x90 }
  - { offset: 0x30AB3B, size: 0x8, addend: 0x0, symName: __ZN22llama_memory_recurrent10init_batchER18llama_batch_allocrjb, symObjAddr: 0x1610, symBinAddr: 0x573D0, symSize: 0x540 }
  - { offset: 0x30BBAB, size: 0x8, addend: 0x0, symName: __ZN22llama_memory_recurrent7prepareERKNSt3__16vectorI12llama_ubatchNS0_9allocatorIS2_EEEE, symObjAddr: 0x1B90, symBinAddr: 0x57910, symSize: 0x140 }
  - { offset: 0x30C2D4, size: 0x8, addend: 0x0, symName: __ZNSt3__16vectorIN22llama_memory_recurrent8mem_cellENS_9allocatorIS2_EEE16__init_with_sizeB8ne190102IPS2_S7_EEvT_T0_m, symObjAddr: 0x5320, symBinAddr: 0x5A560, symSize: 0x150 }
  - { offset: 0x30C912, size: 0x8, addend: 0x0, symName: __ZN22llama_memory_recurrent9find_slotERK12llama_ubatch, symObjAddr: 0x1DF0, symBinAddr: 0x57AE0, symSize: 0xBE0 }
  - { offset: 0x30E4D9, size: 0x8, addend: 0x0, symName: __ZN22llama_memory_recurrent9init_fullEv, symObjAddr: 0x1D60, symBinAddr: 0x57A50, symSize: 0x50 }
  - { offset: 0x30E62C, size: 0x8, addend: 0x0, symName: __ZN22llama_memory_recurrent11init_updateEP13llama_contextb, symObjAddr: 0x1DB0, symBinAddr: 0x57AA0, symSize: 0x40 }
  - { offset: 0x30EB4A, size: 0x8, addend: 0x0, symName: __ZNK22llama_memory_recurrent13get_can_shiftEv, symObjAddr: 0x29D0, symBinAddr: 0x586C0, symSize: 0x10 }
  - { offset: 0x30EBC0, size: 0x8, addend: 0x0, symName: __ZNK22llama_memory_recurrent10total_sizeEv, symObjAddr: 0x29E0, symBinAddr: 0x586D0, symSize: 0x50 }
  - { offset: 0x30F43A, size: 0x8, addend: 0x0, symName: __ZNK22llama_memory_recurrent11state_writeER16llama_io_write_ii, symObjAddr: 0x2A30, symBinAddr: 0x58720, symSize: 0x4E0 }
  - { offset: 0x31031E, size: 0x8, addend: 0x0, symName: __ZNK22llama_memory_recurrent16state_write_metaER16llama_io_write_iRKNSt3__16vectorINS2_4pairIjjEENS2_9allocatorIS5_EEEEi, symObjAddr: 0x2F10, symBinAddr: 0x58C00, symSize: 0x130 }
  - { offset: 0x3106A2, size: 0x8, addend: 0x0, symName: __ZNK22llama_memory_recurrent16state_write_dataER16llama_io_write_iRKNSt3__16vectorINS2_4pairIjjEENS2_9allocatorIS5_EEEE, symObjAddr: 0x3040, symBinAddr: 0x58D30, symSize: 0x230 }
  - { offset: 0x310CAB, size: 0x8, addend: 0x0, symName: __ZN22llama_memory_recurrent10state_readER15llama_io_read_ii, symObjAddr: 0x3270, symBinAddr: 0x58F60, symSize: 0xC0 }
  - { offset: 0x310D9E, size: 0x8, addend: 0x0, symName: __ZN22llama_memory_recurrent15state_read_metaER15llama_io_read_iji, symObjAddr: 0x3330, symBinAddr: 0x59020, symSize: 0x610 }
  - { offset: 0x3117B2, size: 0x8, addend: 0x0, symName: __ZN22llama_memory_recurrent15state_read_dataER15llama_io_read_ij, symObjAddr: 0x3940, symBinAddr: 0x59630, symSize: 0x560 }
  - { offset: 0x3129DF, size: 0x8, addend: 0x0, symName: __ZN30llama_memory_recurrent_contextC2E19llama_memory_status, symObjAddr: 0x3EA0, symBinAddr: 0x59B90, symSize: 0x30 }
  - { offset: 0x312A44, size: 0x8, addend: 0x0, symName: __ZN30llama_memory_recurrent_contextC1E19llama_memory_status, symObjAddr: 0x3ED0, symBinAddr: 0x59BC0, symSize: 0x30 }
  - { offset: 0x312ACD, size: 0x8, addend: 0x0, symName: __ZN30llama_memory_recurrent_contextC2EP22llama_memory_recurrent, symObjAddr: 0x3F00, symBinAddr: 0x59BF0, symSize: 0x30 }
  - { offset: 0x312B32, size: 0x8, addend: 0x0, symName: __ZN30llama_memory_recurrent_contextC1EP22llama_memory_recurrent, symObjAddr: 0x3F30, symBinAddr: 0x59C20, symSize: 0x30 }
  - { offset: 0x312BBB, size: 0x8, addend: 0x0, symName: __ZN30llama_memory_recurrent_contextC2EP22llama_memory_recurrentNSt3__16vectorI12llama_ubatchNS2_9allocatorIS4_EEEE, symObjAddr: 0x3F60, symBinAddr: 0x59C50, symSize: 0x50 }
  - { offset: 0x312C36, size: 0x8, addend: 0x0, symName: __ZN30llama_memory_recurrent_contextC1EP22llama_memory_recurrentNSt3__16vectorI12llama_ubatchNS2_9allocatorIS4_EEEE, symObjAddr: 0x3FB0, symBinAddr: 0x59CA0, symSize: 0x50 }
  - { offset: 0x312CDD, size: 0x8, addend: 0x0, symName: __ZN30llama_memory_recurrent_contextD2Ev, symObjAddr: 0x4000, symBinAddr: 0x59CF0, symSize: 0x90 }
  - { offset: 0x312F48, size: 0x8, addend: 0x0, symName: __ZN30llama_memory_recurrent_contextD1Ev, symObjAddr: 0x4090, symBinAddr: 0x59D80, symSize: 0x90 }
  - { offset: 0x3131D2, size: 0x8, addend: 0x0, symName: __ZN30llama_memory_recurrent_contextD0Ev, symObjAddr: 0x4120, symBinAddr: 0x59E10, symSize: 0x90 }
  - { offset: 0x31347C, size: 0x8, addend: 0x0, symName: __ZN30llama_memory_recurrent_context4nextEv, symObjAddr: 0x41B0, symBinAddr: 0x59EA0, symSize: 0x40 }
  - { offset: 0x3134F5, size: 0x8, addend: 0x0, symName: __ZN30llama_memory_recurrent_context5applyEv, symObjAddr: 0x41F0, symBinAddr: 0x59EE0, symSize: 0x30 }
  - { offset: 0x313521, size: 0x8, addend: 0x0, symName: __ZN30llama_memory_recurrent_context5applyEv, symObjAddr: 0x41F0, symBinAddr: 0x59EE0, symSize: 0x30 }
  - { offset: 0x31356B, size: 0x8, addend: 0x0, symName: __ZNK30llama_memory_recurrent_context10get_statusEv, symObjAddr: 0x4220, symBinAddr: 0x59F10, symSize: 0x10 }
  - { offset: 0x3135B7, size: 0x8, addend: 0x0, symName: __ZNK30llama_memory_recurrent_context10get_ubatchEv, symObjAddr: 0x4230, symBinAddr: 0x59F20, symSize: 0x10 }
  - { offset: 0x3135FE, size: 0x8, addend: 0x0, symName: __ZNK30llama_memory_recurrent_context8get_n_rsEv, symObjAddr: 0x4240, symBinAddr: 0x59F30, symSize: 0x20 }
  - { offset: 0x313626, size: 0x8, addend: 0x0, symName: __ZNK30llama_memory_recurrent_context8get_headEv, symObjAddr: 0x4260, symBinAddr: 0x59F50, symSize: 0x20 }
  - { offset: 0x31364E, size: 0x8, addend: 0x0, symName: __ZNK30llama_memory_recurrent_context8get_rs_zEv, symObjAddr: 0x4280, symBinAddr: 0x59F70, symSize: 0x20 }
  - { offset: 0x313676, size: 0x8, addend: 0x0, symName: __ZNK30llama_memory_recurrent_context8get_sizeEv, symObjAddr: 0x42A0, symBinAddr: 0x59F90, symSize: 0x10 }
  - { offset: 0x31369E, size: 0x8, addend: 0x0, symName: __ZNK30llama_memory_recurrent_context7get_r_lEi, symObjAddr: 0x42B0, symBinAddr: 0x59FA0, symSize: 0x20 }
  - { offset: 0x3136FB, size: 0x8, addend: 0x0, symName: __ZNK30llama_memory_recurrent_context7get_s_lEi, symObjAddr: 0x42D0, symBinAddr: 0x59FC0, symSize: 0x20 }
  - { offset: 0x313759, size: 0x8, addend: 0x0, symName: __ZNK30llama_memory_recurrent_context6s_copyEi, symObjAddr: 0x42F0, symBinAddr: 0x59FE0, symSize: 0x20 }
  - { offset: 0x3137B7, size: 0x8, addend: 0x0, symName: __ZN22llama_memory_recurrentD1Ev, symObjAddr: 0x4310, symBinAddr: 0x5A000, symSize: 0x10 }
  - { offset: 0x3137ED, size: 0x8, addend: 0x0, symName: __ZN22llama_memory_recurrentD2Ev, symObjAddr: 0x47D0, symBinAddr: 0x5A030, symSize: 0x150 }
  - { offset: 0x314054, size: 0x8, addend: 0x0, symName: __ZN22llama_memory_recurrentD0Ev, symObjAddr: 0x4320, symBinAddr: 0x5A010, symSize: 0x20 }
  - { offset: 0x314FDE, size: 0x8, addend: 0x0, symName: __ZNKSt3__16vectorIN22llama_memory_recurrent8mem_cellENS_9allocatorIS2_EEE20__throw_length_errorB8ne190102Ev, symObjAddr: 0x4B60, symBinAddr: 0x5A3C0, symSize: 0x10 }
  - { offset: 0x315008, size: 0x8, addend: 0x0, symName: __ZNSt3__128__exception_guard_exceptionsINS_29_AllocatorDestroyRangeReverseINS_9allocatorIN22llama_memory_recurrent8mem_cellEEEPS4_EEED1B8ne190102Ev, symObjAddr: 0x4B70, symBinAddr: 0x5A3D0, symSize: 0x40 }
  - { offset: 0x3150A1, size: 0x8, addend: 0x0, symName: __ZNSt3__128__exception_guard_exceptionsINS_29_AllocatorDestroyRangeReverseINS_9allocatorIN22llama_memory_recurrent8mem_cellEEEPS4_EEED1B8ne190102Ev, symObjAddr: 0x4B70, symBinAddr: 0x5A3D0, symSize: 0x40 }
  - { offset: 0x3150CE, size: 0x8, addend: 0x0, symName: __ZNSt3__128__exception_guard_exceptionsINS_29_AllocatorDestroyRangeReverseINS_9allocatorIN22llama_memory_recurrent8mem_cellEEEPS4_EEED1B8ne190102Ev, symObjAddr: 0x4B70, symBinAddr: 0x5A3D0, symSize: 0x40 }
  - { offset: 0x315739, size: 0x8, addend: 0x0, symName: __ZNSt3__16vectorIN22llama_memory_recurrent8mem_cellENS_9allocatorIS2_EEE16__init_with_sizeB8ne190102IPS2_S7_EEvT_T0_m, symObjAddr: 0x5320, symBinAddr: 0x5A560, symSize: 0x150 }
  - { offset: 0x315ADD, size: 0x8, addend: 0x0, symName: __ZNSt3__13setIiNS_4lessIiEENS_9allocatorIiEEE6insertB8ne190102INS_21__tree_const_iteratorIiPNS_11__tree_nodeIiPvEElEEEEvT_SD_, symObjAddr: 0x54E0, symBinAddr: 0x5A720, symSize: 0x170 }
  - { offset: 0x315B23, size: 0x8, addend: 0x0, symName: __ZNSt3__13setIiNS_4lessIiEENS_9allocatorIiEEE6insertB8ne190102INS_21__tree_const_iteratorIiPNS_11__tree_nodeIiPvEElEEEEvT_SD_, symObjAddr: 0x54E0, symBinAddr: 0x5A720, symSize: 0x170 }
  - { offset: 0x315F26, size: 0x8, addend: 0x0, symName: __ZNSt3__128__exception_guard_exceptionsINS_6vectorIN22llama_memory_recurrent8mem_cellENS_9allocatorIS3_EEE16__destroy_vectorEED1B8ne190102Ev, symObjAddr: 0x5470, symBinAddr: 0x5A6B0, symSize: 0x70 }
  - { offset: 0x31819D, size: 0x8, addend: 0x0, symName: __Z27llama_memory_status_combine19llama_memory_statusS_, symObjAddr: 0x0, symBinAddr: 0x5A890, symSize: 0x40 }
  - { offset: 0x3181B2, size: 0x8, addend: 0x0, symName: __Z27llama_memory_status_combine19llama_memory_statusS_, symObjAddr: 0x0, symBinAddr: 0x5A890, symSize: 0x40 }
  - { offset: 0x3181FE, size: 0x8, addend: 0x0, symName: __Z27llama_memory_status_is_fail19llama_memory_status, symObjAddr: 0x40, symBinAddr: 0x5A8D0, symSize: 0xF }
  - { offset: 0x319A5F, size: 0x8, addend: 0x0, symName: __ZN10llama_mmap9SUPPORTEDE, symObjAddr: 0x15BC, symBinAddr: 0x233B52, symSize: 0x0 }
  - { offset: 0x31F629, size: 0x8, addend: 0x0, symName: __ZN11llama_mlock9SUPPORTEDE, symObjAddr: 0x15BD, symBinAddr: 0x233B53, symSize: 0x0 }
  - { offset: 0x31FA06, size: 0x8, addend: 0x0, symName: __ZN10llama_fileC2EPKcS1_, symObjAddr: 0x0, symBinAddr: 0x5A8E0, symSize: 0x50 }
  - { offset: 0x31FB27, size: 0x8, addend: 0x0, symName: __ZN10llama_file4implC2EPKcS2_, symObjAddr: 0x1000, symBinAddr: 0x5B810, symSize: 0xF0 }
  - { offset: 0x31FD53, size: 0x8, addend: 0x0, symName: __ZN10llama_fileC1EPKcS1_, symObjAddr: 0x50, symBinAddr: 0x5A930, symSize: 0x50 }
  - { offset: 0x31FF6F, size: 0x8, addend: 0x0, symName: __ZN10llama_fileD2Ev, symObjAddr: 0xA0, symBinAddr: 0x5A980, symSize: 0x40 }
  - { offset: 0x320090, size: 0x8, addend: 0x0, symName: __ZN10llama_fileD1Ev, symObjAddr: 0xE0, symBinAddr: 0x5A9C0, symSize: 0x40 }
  - { offset: 0x3201C7, size: 0x8, addend: 0x0, symName: __ZNK10llama_file4tellEv, symObjAddr: 0x120, symBinAddr: 0x5AA00, symSize: 0x10 }
  - { offset: 0x32021A, size: 0x8, addend: 0x0, symName: __ZNK10llama_file4impl4tellEv, symObjAddr: 0x130, symBinAddr: 0x5AA10, symSize: 0xC0 }
  - { offset: 0x3204BD, size: 0x8, addend: 0x0, symName: __ZNK10llama_file4sizeEv, symObjAddr: 0x1F0, symBinAddr: 0x5AAD0, symSize: 0x10 }
  - { offset: 0x3204F9, size: 0x8, addend: 0x0, symName: __ZNK10llama_file7file_idEv, symObjAddr: 0x200, symBinAddr: 0x5AAE0, symSize: 0x10 }
  - { offset: 0x320559, size: 0x8, addend: 0x0, symName: __ZNK10llama_file4seekEmi, symObjAddr: 0x210, symBinAddr: 0x5AAF0, symSize: 0x10 }
  - { offset: 0x3205DB, size: 0x8, addend: 0x0, symName: __ZNK10llama_file4impl4seekEmi, symObjAddr: 0x220, symBinAddr: 0x5AB00, symSize: 0xC0 }
  - { offset: 0x3207AC, size: 0x8, addend: 0x0, symName: __ZNK10llama_file8read_rawEPvm, symObjAddr: 0x2E0, symBinAddr: 0x5ABC0, symSize: 0x10 }
  - { offset: 0x32082E, size: 0x8, addend: 0x0, symName: __ZNK10llama_file4impl8read_rawEPvm, symObjAddr: 0x2F0, symBinAddr: 0x5ABD0, symSize: 0x130 }
  - { offset: 0x320A5B, size: 0x8, addend: 0x0, symName: __ZNK10llama_file8read_u32Ev, symObjAddr: 0x420, symBinAddr: 0x5AD00, symSize: 0x30 }
  - { offset: 0x320AE5, size: 0x8, addend: 0x0, symName: __ZNK10llama_file9write_rawEPKvm, symObjAddr: 0x450, symBinAddr: 0x5AD30, symSize: 0x10 }
  - { offset: 0x320B67, size: 0x8, addend: 0x0, symName: __ZNK10llama_file4impl9write_rawEPKvm, symObjAddr: 0x460, symBinAddr: 0x5AD40, symSize: 0xE0 }
  - { offset: 0x320D72, size: 0x8, addend: 0x0, symName: __ZNK10llama_file9write_u32Ej, symObjAddr: 0x540, symBinAddr: 0x5AE20, symSize: 0x30 }
  - { offset: 0x320F73, size: 0x8, addend: 0x0, symName: __ZN10llama_mmapC2EP10llama_filemb, symObjAddr: 0x570, symBinAddr: 0x5AE50, symSize: 0x60 }
  - { offset: 0x3210B7, size: 0x8, addend: 0x0, symName: __ZN10llama_mmap4implC2EP10llama_filemb, symObjAddr: 0x10F0, symBinAddr: 0x5B900, symSize: 0x2E0 }
  - { offset: 0x321A71, size: 0x8, addend: 0x0, symName: __ZN10llama_mmapC1EP10llama_filemb, symObjAddr: 0x5D0, symBinAddr: 0x5AEB0, symSize: 0x60 }
  - { offset: 0x321CAA, size: 0x8, addend: 0x0, symName: __ZN10llama_mmapD2Ev, symObjAddr: 0x630, symBinAddr: 0x5AF10, symSize: 0x40 }
  - { offset: 0x321D88, size: 0x8, addend: 0x0, symName: __ZN10llama_mmap4implD2Ev, symObjAddr: 0x13D0, symBinAddr: 0x5BBE0, symSize: 0xA0 }
  - { offset: 0x321FF9, size: 0x8, addend: 0x0, symName: __ZN10llama_mmapD1Ev, symObjAddr: 0x670, symBinAddr: 0x5AF50, symSize: 0x40 }
  - { offset: 0x32211D, size: 0x8, addend: 0x0, symName: __ZNK10llama_mmap4sizeEv, symObjAddr: 0x6B0, symBinAddr: 0x5AF90, symSize: 0x10 }
  - { offset: 0x322162, size: 0x8, addend: 0x0, symName: __ZNK10llama_mmap4addrEv, symObjAddr: 0x6C0, symBinAddr: 0x5AFA0, symSize: 0x10 }
  - { offset: 0x3221A7, size: 0x8, addend: 0x0, symName: __ZN10llama_mmap14unmap_fragmentEmm, symObjAddr: 0x6D0, symBinAddr: 0x5AFB0, symSize: 0x10 }
  - { offset: 0x322229, size: 0x8, addend: 0x0, symName: __ZN10llama_mmap4impl14unmap_fragmentEmm, symObjAddr: 0x6E0, symBinAddr: 0x5AFC0, symSize: 0x670 }
  - { offset: 0x3242E6, size: 0x8, addend: 0x0, symName: __ZNKSt3__16vectorINS_4pairImmEENS_9allocatorIS2_EEE20__throw_length_errorB8ne190102Ev, symObjAddr: 0xF30, symBinAddr: 0x5B800, symSize: 0x10 }
  - { offset: 0x32446C, size: 0x8, addend: 0x0, symName: __ZN11llama_mlockC2Ev, symObjAddr: 0xD50, symBinAddr: 0x5B630, symSize: 0x30 }
  - { offset: 0x32459B, size: 0x8, addend: 0x0, symName: __ZN11llama_mlockC1Ev, symObjAddr: 0xD80, symBinAddr: 0x5B660, symSize: 0x30 }
  - { offset: 0x324759, size: 0x8, addend: 0x0, symName: __ZN11llama_mlockD2Ev, symObjAddr: 0xDB0, symBinAddr: 0x5B690, symSize: 0x20 }
  - { offset: 0x32481C, size: 0x8, addend: 0x0, symName: __ZN11llama_mlockD1Ev, symObjAddr: 0xDD0, symBinAddr: 0x5B6B0, symSize: 0x20 }
  - { offset: 0x324928, size: 0x8, addend: 0x0, symName: __ZN11llama_mlock4initEPv, symObjAddr: 0xDF0, symBinAddr: 0x5B6D0, symSize: 0x40 }
  - { offset: 0x324964, size: 0x8, addend: 0x0, symName: __ZN11llama_mlock4initEPv, symObjAddr: 0xDF0, symBinAddr: 0x5B6D0, symSize: 0x40 }
  - { offset: 0x3249AB, size: 0x8, addend: 0x0, symName: __ZN11llama_mlock7grow_toEm, symObjAddr: 0xE30, symBinAddr: 0x5B710, symSize: 0x10 }
  - { offset: 0x324A17, size: 0x8, addend: 0x0, symName: __ZN11llama_mlock4impl7grow_toEm, symObjAddr: 0xE40, symBinAddr: 0x5B720, symSize: 0xD0 }
  - { offset: 0x324BA0, size: 0x8, addend: 0x0, symName: __Z14llama_path_maxv, symObjAddr: 0xF10, symBinAddr: 0x5B7F0, symSize: 0x10 }
  - { offset: 0x349BA5, size: 0x8, addend: 0x0, symName: __ZNSt3__120__throw_future_errorB8ne190102ENS_11future_errcE, symObjAddr: 0xB760, symBinAddr: 0x66980, symSize: 0x60 }
  - { offset: 0x34A7F8, size: 0x8, addend: 0x0, symName: '__ZNSt3__114__thread_proxyB8ne190102INS_5tupleIJNS_10unique_ptrINS_15__thread_structENS_14default_deleteIS3_EEEEMNS_19__async_assoc_stateINS_4pairIP11ggml_tensorbEENS_12__async_funcIZN18llama_model_loader13load_all_dataEP12ggml_contextRNS_13unordered_mapIjP19ggml_backend_bufferNS_4hashIjEENS_8equal_toIjEENS_9allocatorINS8_IKjSI_EEEEEEPNS_6vectorINS2_I11llama_mlockNS4_ISU_EEEENSN_ISW_EEEEPFbfPvES10_E3$_1JEEEEEFvvEPS15_EEEEES10_S10_', symObjAddr: 0xB7C0, symBinAddr: 0x669E0, symSize: 0x90 }
  - { offset: 0x34AC1D, size: 0x8, addend: 0x0, symName: '__ZNSt3__114__thread_proxyB8ne190102INS_5tupleIJNS_10unique_ptrINS_15__thread_structENS_14default_deleteIS3_EEEEMNS_19__async_assoc_stateINS_4pairIP11ggml_tensorbEENS_12__async_funcIZN18llama_model_loader13load_all_dataEP12ggml_contextRNS_13unordered_mapIjP19ggml_backend_bufferNS_4hashIjEENS_8equal_toIjEENS_9allocatorINS8_IKjSI_EEEEEEPNS_6vectorINS2_I11llama_mlockNS4_ISU_EEEENSN_ISW_EEEEPFbfPvES10_E3$_2JEEEEEFvvEPS15_EEEEES10_S10_', symObjAddr: 0xBAD0, symBinAddr: 0x66CF0, symSize: 0x90 }
  - { offset: 0x34FE2A, size: 0x8, addend: 0x0, symName: __ZN18llama_model_loader13load_all_dataEP12ggml_contextRNSt3__113unordered_mapIjP19ggml_backend_bufferNS2_4hashIjEENS2_8equal_toIjEENS2_9allocatorINS2_4pairIKjS5_EEEEEEPNS2_6vectorINS2_10unique_ptrI11llama_mlockNS2_14default_deleteISJ_EEEENSA_ISM_EEEEPFbfPvESQ_, symObjAddr: 0x6060, symBinAddr: 0x61B30, symSize: 0x1CB0 }
  - { offset: 0x354FFF, size: 0x8, addend: 0x0, symName: __Z23llama_file_version_name10llama_fver, symObjAddr: 0x0, symBinAddr: 0x5BC80, symSize: 0x30 }
  - { offset: 0x3550E4, size: 0x8, addend: 0x0, symName: __ZN18llama_model_loader9get_arr_nIjEENSt3__19enable_ifIXsr3std11is_integralIT_EE5valueEbE4typeE6llm_kvRS3_b, symObjAddr: 0x30, symBinAddr: 0x5BCB0, symSize: 0x80 }
  - { offset: 0x3553BE, size: 0x8, addend: 0x0, symName: __ZN18llama_model_loader9get_arr_nIjEENSt3__19enable_ifIXsr3std11is_integralIT_EE5valueEbE4typeERKNS1_12basic_stringIcNS1_11char_traitsIcEENS1_9allocatorIcEEEERS3_b, symObjAddr: 0xB0, symBinAddr: 0x5BD30, symSize: 0x110 }
  - { offset: 0x355747, size: 0x8, addend: 0x0, symName: __ZN8GGUFMeta3GKVINS_9ArrayInfoEE6get_kvEPK12gguf_contexti, symObjAddr: 0x8630, symBinAddr: 0x63FA0, symSize: 0x130 }
  - { offset: 0x3559A3, size: 0x8, addend: 0x0, symName: __ZN18llama_model_loader7get_arrINSt3__16vectorINS1_12basic_stringIcNS1_11char_traitsIcEENS1_9allocatorIcEEEENS6_IS8_EEEEEEb6llm_kvRT_b, symObjAddr: 0x1C0, symBinAddr: 0x5BE40, symSize: 0x80 }
  - { offset: 0x355C7D, size: 0x8, addend: 0x0, symName: __ZN18llama_model_loader7get_arrINSt3__112basic_stringIcNS1_11char_traitsIcEENS1_9allocatorIcEEEEEEbRKS7_RNS1_6vectorIT_NS5_ISB_EEEEb, symObjAddr: 0x240, symBinAddr: 0x5BEC0, symSize: 0x3E0 }
  - { offset: 0x356F41, size: 0x8, addend: 0x0, symName: __ZNSt3__16vectorINS_12basic_stringIcNS_11char_traitsIcEENS_9allocatorIcEEEENS4_IS6_EEE24__emplace_back_slow_pathIJRKS6_EEEPS6_DpOT_, symObjAddr: 0x8760, symBinAddr: 0x640D0, symSize: 0x180 }
  - { offset: 0x3575D9, size: 0x8, addend: 0x0, symName: __ZN18llama_model_loader7get_keyIbEEb6llm_kvRT_b, symObjAddr: 0x620, symBinAddr: 0x5C2A0, symSize: 0x80 }
  - { offset: 0x3578B3, size: 0x8, addend: 0x0, symName: __ZN18llama_model_loader7get_keyIbEEbRKNSt3__112basic_stringIcNS1_11char_traitsIcEENS1_9allocatorIcEEEERT_b, symObjAddr: 0x6A0, symBinAddr: 0x5C320, symSize: 0x140 }
  - { offset: 0x357DE1, size: 0x8, addend: 0x0, symName: __ZNSt3__112__hash_tableINS_17__hash_value_typeINS_12basic_stringIcNS_11char_traitsIcEENS_9allocatorIcEEEE23llama_model_kv_overrideEENS_22__unordered_map_hasherIS7_S9_NS_4hashIS7_EENS_8equal_toIS7_EELb1EEENS_21__unordered_map_equalIS7_S9_SE_SC_Lb1EEENS5_IS9_EEE4findIS7_EENS_15__hash_iteratorIPNS_11__hash_nodeIS9_PvEEEERKT_, symObjAddr: 0x8960, symBinAddr: 0x64250, symSize: 0x290 }
  - { offset: 0x3580DF, size: 0x8, addend: 0x0, symName: __ZN8GGUFMeta3GKVIbE17validate_overrideE28llama_model_kv_override_typePK23llama_model_kv_override, symObjAddr: 0x9190, symBinAddr: 0x645D0, symSize: 0x200 }
  - { offset: 0x3582EE, size: 0x8, addend: 0x0, symName: __ZN8GGUFMeta3GKVIbE6get_kvEPK12gguf_contexti, symObjAddr: 0x90A0, symBinAddr: 0x644E0, symSize: 0xF0 }
  - { offset: 0x3584DF, size: 0x8, addend: 0x0, symName: __ZN18llama_model_loader7get_keyIfEEb6llm_kvRT_b, symObjAddr: 0x7E0, symBinAddr: 0x5C460, symSize: 0x80 }
  - { offset: 0x3587B9, size: 0x8, addend: 0x0, symName: __ZN18llama_model_loader7get_keyIfEEbRKNSt3__112basic_stringIcNS1_11char_traitsIcEENS1_9allocatorIcEEEERT_b, symObjAddr: 0x860, symBinAddr: 0x5C4E0, symSize: 0x140 }
  - { offset: 0x358CB6, size: 0x8, addend: 0x0, symName: __ZN8GGUFMeta3GKVIfE17validate_overrideE28llama_model_kv_override_typePK23llama_model_kv_override, symObjAddr: 0x9480, symBinAddr: 0x648C0, symSize: 0x200 }
  - { offset: 0x358EC5, size: 0x8, addend: 0x0, symName: __ZN8GGUFMeta3GKVIfE6get_kvEPK12gguf_contexti, symObjAddr: 0x9390, symBinAddr: 0x647D0, symSize: 0xF0 }
  - { offset: 0x3590B6, size: 0x8, addend: 0x0, symName: __ZN18llama_model_loader7get_keyIjEEb6llm_kvRT_b, symObjAddr: 0x9A0, symBinAddr: 0x5C620, symSize: 0x80 }
  - { offset: 0x35936D, size: 0x8, addend: 0x0, symName: __ZN18llama_model_loader7get_keyIjEEbRKNSt3__112basic_stringIcNS1_11char_traitsIcEENS1_9allocatorIcEEEERT_b, symObjAddr: 0xA20, symBinAddr: 0x5C6A0, symSize: 0x130 }
  - { offset: 0x35986A, size: 0x8, addend: 0x0, symName: __ZN8GGUFMeta3GKVIjE17validate_overrideE28llama_model_kv_override_typePK23llama_model_kv_override, symObjAddr: 0x9770, symBinAddr: 0x64BB0, symSize: 0x200 }
  - { offset: 0x359A79, size: 0x8, addend: 0x0, symName: __ZN8GGUFMeta3GKVIjE6get_kvEPK12gguf_contexti, symObjAddr: 0x9680, symBinAddr: 0x64AC0, symSize: 0xF0 }
  - { offset: 0x359C6A, size: 0x8, addend: 0x0, symName: __ZN18llama_model_loader7get_keyINSt3__112basic_stringIcNS1_11char_traitsIcEENS1_9allocatorIcEEEEEEb6llm_kvRT_b, symObjAddr: 0xB50, symBinAddr: 0x5C7D0, symSize: 0x80 }
  - { offset: 0x359F44, size: 0x8, addend: 0x0, symName: __ZN18llama_model_loader7get_keyINSt3__112basic_stringIcNS1_11char_traitsIcEENS1_9allocatorIcEEEEEEbRKS7_RT_b, symObjAddr: 0xBD0, symBinAddr: 0x5C850, symSize: 0x160 }
  - { offset: 0x35A628, size: 0x8, addend: 0x0, symName: __ZN8GGUFMeta3GKVINSt3__112basic_stringIcNS1_11char_traitsIcEENS1_9allocatorIcEEEEE17validate_overrideE28llama_model_kv_override_typePK23llama_model_kv_override, symObjAddr: 0x9AF0, symBinAddr: 0x64F30, symSize: 0x200 }
  - { offset: 0x35A837, size: 0x8, addend: 0x0, symName: __ZN8GGUFMeta3GKVINSt3__112basic_stringIcNS1_11char_traitsIcEENS1_9allocatorIcEEEEE6get_kvEPK12gguf_contexti, symObjAddr: 0x9970, symBinAddr: 0x64DB0, symSize: 0x180 }
  - { offset: 0x35AD4F, size: 0x8, addend: 0x0, symName: __ZN18llama_model_loader7get_keyI18llama_pooling_typeEEb6llm_kvRT_b, symObjAddr: 0xD30, symBinAddr: 0x5C9B0, symSize: 0x90 }
  - { offset: 0x35B07B, size: 0x8, addend: 0x0, symName: __ZN18llama_model_loader14get_key_or_arrINSt3__15arrayIiLm4EEEEEb6llm_kvRT_jb, symObjAddr: 0xDC0, symBinAddr: 0x5CA40, symSize: 0x90 }
  - { offset: 0x35B36B, size: 0x8, addend: 0x0, symName: __ZN18llama_model_loader14get_key_or_arrIiLm4EEEbRKNSt3__112basic_stringIcNS1_11char_traitsIcEENS1_9allocatorIcEEEERNS1_5arrayIT_XT0_EEEjb, symObjAddr: 0xE50, symBinAddr: 0x5CAD0, symSize: 0x320 }
  - { offset: 0x35BADD, size: 0x8, addend: 0x0, symName: __ZN18llama_model_loader7get_arrIiLm4EEEbRKNSt3__112basic_stringIcNS1_11char_traitsIcEENS1_9allocatorIcEEEERNS1_5arrayIT_XT0_EEEb, symObjAddr: 0x9CF0, symBinAddr: 0x65130, symSize: 0x270 }
  - { offset: 0x35C046, size: 0x8, addend: 0x0, symName: __ZN18llama_model_loader7get_keyIiEEbRKNSt3__112basic_stringIcNS1_11char_traitsIcEENS1_9allocatorIcEEEERT_b, symObjAddr: 0x48B0, symBinAddr: 0x60400, symSize: 0x130 }
  - { offset: 0x35C477, size: 0x8, addend: 0x0, symName: __ZN18llama_model_loader14get_key_or_arrINSt3__15arrayIjLm512EEEEEb6llm_kvRT_jb, symObjAddr: 0x1170, symBinAddr: 0x5CDF0, symSize: 0x90 }
  - { offset: 0x35C767, size: 0x8, addend: 0x0, symName: __ZN18llama_model_loader14get_key_or_arrIjLm512EEEbRKNSt3__112basic_stringIcNS1_11char_traitsIcEENS1_9allocatorIcEEEERNS1_5arrayIT_XT0_EEEjb, symObjAddr: 0x1200, symBinAddr: 0x5CE80, symSize: 0x2E0 }
  - { offset: 0x35CED9, size: 0x8, addend: 0x0, symName: __ZN18llama_model_loader7get_arrIjLm512EEEbRKNSt3__112basic_stringIcNS1_11char_traitsIcEENS1_9allocatorIcEEEERNS1_5arrayIT_XT0_EEEb, symObjAddr: 0x9F60, symBinAddr: 0x653A0, symSize: 0x270 }
  - { offset: 0x35FEC9, size: 0x8, addend: 0x0, symName: __ZN18llama_model_loaderC2ERKNSt3__112basic_stringIcNS0_11char_traitsIcEENS0_9allocatorIcEEEERNS0_6vectorIS6_NS4_IS6_EEEEbbPK23llama_model_kv_overridePK32llama_model_tensor_buft_override, symObjAddr: 0x14E0, symBinAddr: 0x5D160, symSize: 0x3170 }
  - { offset: 0x36995E, size: 0x8, addend: 0x0, symName: __ZNSt3__112__hash_tableINS_17__hash_value_typeINS_12basic_stringIcNS_11char_traitsIcEENS_9allocatorIcEEEE23llama_model_kv_overrideEENS_22__unordered_map_hasherIS7_S9_NS_4hashIS7_EENS_8equal_toIS7_EELb1EEENS_21__unordered_map_equalIS7_S9_SE_SC_Lb1EEENS5_IS9_EEE25__emplace_unique_key_argsIS7_JNS_4pairIKS7_S8_EEEEENSL_INS_15__hash_iteratorIPNS_11__hash_nodeIS9_PvEEEEbEERKT_DpOT0_, symObjAddr: 0xA220, symBinAddr: 0x65660, symSize: 0x5B0 }
  - { offset: 0x36A41B, size: 0x8, addend: 0x0, symName: __ZNK18llama_model_loader20weight_name_comparerclERKNSt3__112basic_stringIcNS1_11char_traitsIcEENS1_9allocatorIcEEEES9_, symObjAddr: 0xAA70, symBinAddr: 0x65EA0, symSize: 0xF0 }
  - { offset: 0x36A6E8, size: 0x8, addend: 0x0, symName: __ZN18llama_model_loader19llama_tensor_weightC2EPK10llama_filetPK12gguf_contextP11ggml_tensor, symObjAddr: 0x8200, symBinAddr: 0x63CC0, symSize: 0x190 }
  - { offset: 0x36A8E5, size: 0x8, addend: 0x0, symName: __ZNSt3__16__treeINS_12__value_typeINS_12basic_stringIcNS_11char_traitsIcEENS_9allocatorIcEEEEN18llama_model_loader19llama_tensor_weightEEENS_19__map_value_compareIS7_SA_NS8_20weight_name_comparerELb1EEENS5_ISA_EEE25__emplace_unique_key_argsIS7_JRS7_S9_EEENS_4pairINS_15__tree_iteratorISA_PNS_11__tree_nodeISA_PvEElEEbEERKT_DpOT0_, symObjAddr: 0xAB60, symBinAddr: 0x65F90, symSize: 0x160 }
  - { offset: 0x36ADB3, size: 0x8, addend: 0x0, symName: __ZN8GGUFMeta3GKVItE17validate_overrideE28llama_model_kv_override_typePK23llama_model_kv_override, symObjAddr: 0xAF80, symBinAddr: 0x66230, symSize: 0x200 }
  - { offset: 0x36AFC2, size: 0x8, addend: 0x0, symName: __ZN8GGUFMeta3GKVItE6get_kvEPK12gguf_contexti, symObjAddr: 0xAE90, symBinAddr: 0x66140, symSize: 0xF0 }
  - { offset: 0x36B1C1, size: 0x8, addend: 0x0, symName: __ZN18llama_model_loader7get_keyItEEbRKNSt3__112basic_stringIcNS1_11char_traitsIcEENS1_9allocatorIcEEEERT_b, symObjAddr: 0x46E0, symBinAddr: 0x602D0, symSize: 0x130 }
  - { offset: 0x36B71A, size: 0x8, addend: 0x0, symName: __ZNSt3__16__treeINS_12__value_typeI9ggml_typejEENS_19__map_value_compareIS2_S3_NS_4lessIS2_EELb1EEENS_9allocatorIS3_EEE7destroyEPNS_11__tree_nodeIS3_PvEE, symObjAddr: 0xB470, symBinAddr: 0x66720, symSize: 0x40 }
  - { offset: 0x36B855, size: 0x8, addend: 0x0, symName: __ZNKSt3__16vectorINS_10unique_ptrI10llama_fileNS_14default_deleteIS2_EEEENS_9allocatorIS5_EEE20__throw_length_errorB8ne190102Ev, symObjAddr: 0xAA50, symBinAddr: 0x65E90, symSize: 0x10 }
  - { offset: 0x36B8A2, size: 0x8, addend: 0x0, symName: __ZNK18llama_model_loader20weight_name_comparerclERKNSt3__112basic_stringIcNS1_11char_traitsIcEENS1_9allocatorIcEEEES9_, symObjAddr: 0xAA70, symBinAddr: 0x65EA0, symSize: 0xF0 }
  - { offset: 0x36B8C5, size: 0x8, addend: 0x0, symName: __ZNSt3__16vectorIP18ggml_backend_eventNS_9allocatorIS2_EEE12emplace_backIJRS2_EEES7_DpOT_, symObjAddr: 0x84E0, symBinAddr: 0x63E50, symSize: 0x120 }
  - { offset: 0x36BA6A, size: 0x8, addend: 0x0, symName: __ZNSt3__110unique_ptrINS_11__tree_nodeINS_12__value_typeINS_12basic_stringIcNS_11char_traitsIcEENS_9allocatorIcEEEEN18llama_model_loader19llama_tensor_weightEEEPvEENS_22__tree_node_destructorINS6_ISD_EEEEED1B8ne190102Ev, symObjAddr: 0xACC0, symBinAddr: 0x660F0, symSize: 0x50 }
  - { offset: 0x36BEFD, size: 0x8, addend: 0x0, symName: __ZNSt3__113unordered_mapINS_12basic_stringIcNS_11char_traitsIcEENS_9allocatorIcEEEE23llama_model_kv_overrideNS_4hashIS6_EENS_8equal_toIS6_EENS4_INS_4pairIKS6_S7_EEEEED1B8ne190102Ev, symObjAddr: 0x4A60, symBinAddr: 0x60530, symSize: 0x70 }
  - { offset: 0x36C337, size: 0x8, addend: 0x0, symName: __ZNSt3__16__treeINS_12__value_typeINS_12basic_stringIcNS_11char_traitsIcEENS_9allocatorIcEEEEN18llama_model_loader19llama_tensor_weightEEENS_19__map_value_compareIS7_SA_NS8_20weight_name_comparerELb1EEENS5_ISA_EEE7destroyEPNS_11__tree_nodeISA_PvEE, symObjAddr: 0xA1D0, symBinAddr: 0x65610, symSize: 0x50 }
  - { offset: 0x36C610, size: 0x8, addend: 0x0, symName: __ZNSt3__16vectorINS_10unique_ptrI10llama_mmapNS_14default_deleteIS2_EEEENS_9allocatorIS5_EEED1B8ne190102Ev, symObjAddr: 0x4AD0, symBinAddr: 0x605A0, symSize: 0x80 }
  - { offset: 0x36C7FA, size: 0x8, addend: 0x0, symName: __ZNSt3__16vectorINS_10unique_ptrI10llama_fileNS_14default_deleteIS2_EEEENS_9allocatorIS5_EEED1B8ne190102Ev, symObjAddr: 0x4B50, symBinAddr: 0x60620, symSize: 0x80 }
  - { offset: 0x36CCB4, size: 0x8, addend: 0x0, symName: __ZN8GGUFMeta3GKVIiE17validate_overrideE28llama_model_kv_override_typePK23llama_model_kv_override, symObjAddr: 0xB270, symBinAddr: 0x66520, symSize: 0x200 }
  - { offset: 0x36CEC3, size: 0x8, addend: 0x0, symName: __ZN8GGUFMeta3GKVIiE6get_kvEPK12gguf_contexti, symObjAddr: 0xB180, symBinAddr: 0x66430, symSize: 0xF0 }
  - { offset: 0x36D720, size: 0x8, addend: 0x0, symName: __ZN18llama_model_loaderC1ERKNSt3__112basic_stringIcNS0_11char_traitsIcEENS0_9allocatorIcEEEERNS0_6vectorIS6_NS4_IS6_EEEEbbPK23llama_model_kv_overridePK32llama_model_tensor_buft_override, symObjAddr: 0x4BD0, symBinAddr: 0x606A0, symSize: 0x10 }
  - { offset: 0x36D7F8, size: 0x8, addend: 0x0, symName: __ZNK18llama_model_loader13get_arch_nameEv, symObjAddr: 0x4BE0, symBinAddr: 0x606B0, symSize: 0x50 }
  - { offset: 0x36D896, size: 0x8, addend: 0x0, symName: __ZNK18llama_model_loader8get_archEv, symObjAddr: 0x4C30, symBinAddr: 0x60700, symSize: 0x10 }
  - { offset: 0x36D995, size: 0x8, addend: 0x0, symName: __ZNK18llama_model_loader10get_weightEPKc, symObjAddr: 0x4C40, symBinAddr: 0x60710, symSize: 0x140 }
  - { offset: 0x36E0F3, size: 0x8, addend: 0x0, symName: __ZNK18llama_model_loader14require_weightEPKc, symObjAddr: 0x4D80, symBinAddr: 0x60850, symSize: 0xC0 }
  - { offset: 0x36E288, size: 0x8, addend: 0x0, symName: __ZNK18llama_model_loader15get_tensor_metaEPKc, symObjAddr: 0x4E40, symBinAddr: 0x60910, symSize: 0x20 }
  - { offset: 0x36E30E, size: 0x8, addend: 0x0, symName: __ZNK18llama_model_loader19require_tensor_metaERKNSt3__112basic_stringIcNS0_11char_traitsIcEENS0_9allocatorIcEEEE, symObjAddr: 0x4E60, symBinAddr: 0x60930, symSize: 0xE0 }
  - { offset: 0x36E5AE, size: 0x8, addend: 0x0, symName: __ZNK18llama_model_loader17check_tensor_dimsERKNSt3__112basic_stringIcNS0_11char_traitsIcEENS0_9allocatorIcEEEERKNS0_6vectorIxNS4_IxEEEEb, symObjAddr: 0x4F40, symBinAddr: 0x60A10, symSize: 0x250 }
  - { offset: 0x36F029, size: 0x8, addend: 0x0, symName: __ZN18llama_model_loader13create_tensorEP12ggml_contextRKNSt3__112basic_stringIcNS2_11char_traitsIcEENS2_9allocatorIcEEEERKSt16initializer_listIxEi, symObjAddr: 0x5190, symBinAddr: 0x60C60, symSize: 0x150 }
  - { offset: 0x36F57E, size: 0x8, addend: 0x0, symName: __ZNKSt3__16vectorIxNS_9allocatorIxEEE20__throw_length_errorB8ne190102Ev, symObjAddr: 0xB530, symBinAddr: 0x66760, symSize: 0x10 }
  - { offset: 0x36F5A8, size: 0x8, addend: 0x0, symName: __ZNKSt3__16vectorINS_10unique_ptrI10llama_mmapNS_14default_deleteIS2_EEEENS_9allocatorIS5_EEE20__throw_length_errorB8ne190102Ev, symObjAddr: 0xB540, symBinAddr: 0x66770, symSize: 0x10 }
  - { offset: 0x36F5B3, size: 0x8, addend: 0x0, symName: __ZN18llama_model_loader21create_tensor_as_viewEP12ggml_contextP11ggml_tensorRKNSt3__112basic_stringIcNS4_11char_traitsIcEENS4_9allocatorIcEEEERKSt16initializer_listIxEmb, symObjAddr: 0x52E0, symBinAddr: 0x60DB0, symSize: 0x270 }
  - { offset: 0x36FD83, size: 0x8, addend: 0x0, symName: __ZNK18llama_model_loader20done_getting_tensorsEv, symObjAddr: 0x5550, symBinAddr: 0x61020, symSize: 0xC0 }
  - { offset: 0x370E16, size: 0x8, addend: 0x0, symName: __ZN18llama_model_loader13init_mappingsEbPNSt3__16vectorINS0_10unique_ptrI11llama_mlockNS0_14default_deleteIS3_EEEENS0_9allocatorIS6_EEEE, symObjAddr: 0x5610, symBinAddr: 0x610E0, symSize: 0x660 }
  - { offset: 0x37291F, size: 0x8, addend: 0x0, symName: __ZNKSt3__16vectorINS_10unique_ptrI10llama_mmapNS_14default_deleteIS2_EEEENS_9allocatorIS5_EEE20__throw_length_errorB8ne190102Ev, symObjAddr: 0xB540, symBinAddr: 0x66770, symSize: 0x10 }
  - { offset: 0x37296C, size: 0x8, addend: 0x0, symName: __ZNKSt3__16vectorINS_10unique_ptrI11llama_mlockNS_14default_deleteIS2_EEEENS_9allocatorIS5_EEE20__throw_length_errorB8ne190102Ev, symObjAddr: 0xB560, symBinAddr: 0x66780, symSize: 0x10 }
  - { offset: 0x372977, size: 0x8, addend: 0x0, symName: __ZNKSt3__16vectorINS_10unique_ptrI11llama_mlockNS_14default_deleteIS2_EEEENS_9allocatorIS5_EEE20__throw_length_errorB8ne190102Ev, symObjAddr: 0xB560, symBinAddr: 0x66780, symSize: 0x10 }
  - { offset: 0x3729A1, size: 0x8, addend: 0x0, symName: __ZNKSt3__16vectorINS_10unique_ptrI10llama_mmapNS_14default_deleteIS2_EEEENS_9allocatorIS5_EEE20__throw_out_of_rangeB8ne190102Ev, symObjAddr: 0xB570, symBinAddr: 0x66790, symSize: 0x10 }
  - { offset: 0x3729AC, size: 0x8, addend: 0x0, symName: __ZNSt3__110unique_ptrI10llama_mmapNS_14default_deleteIS1_EEED1B8ne190102Ev, symObjAddr: 0x5CB0, symBinAddr: 0x61780, symSize: 0x40 }
  - { offset: 0x372A3B, size: 0x8, addend: 0x0, symName: __ZNSt3__110unique_ptrI11llama_mlockNS_14default_deleteIS1_EEED1B8ne190102Ev, symObjAddr: 0x5C70, symBinAddr: 0x61740, symSize: 0x40 }
  - { offset: 0x372BD9, size: 0x8, addend: 0x0, symName: __ZNK18llama_model_loader17get_mapping_rangeEPmS0_PPviP12ggml_context, symObjAddr: 0x5CF0, symBinAddr: 0x617C0, symSize: 0x150 }
  - { offset: 0x372E66, size: 0x8, addend: 0x0, symName: __ZNKSt3__16vectorINS_10unique_ptrI10llama_mmapNS_14default_deleteIS2_EEEENS_9allocatorIS5_EEE20__throw_out_of_rangeB8ne190102Ev, symObjAddr: 0xB570, symBinAddr: 0x66790, symSize: 0x10 }
  - { offset: 0x372E90, size: 0x8, addend: 0x0, symName: __ZNKSt3__16vectorINS_10unique_ptrI10llama_fileNS_14default_deleteIS2_EEEENS_9allocatorIS5_EEE20__throw_out_of_rangeB8ne190102Ev, symObjAddr: 0xB580, symBinAddr: 0x667A0, symSize: 0x10 }
  - { offset: 0x372EB1, size: 0x8, addend: 0x0, symName: __ZNK18llama_model_loader13load_data_forEP11ggml_tensor, symObjAddr: 0x5E40, symBinAddr: 0x61910, symSize: 0x220 }
  - { offset: 0x375F09, size: 0x8, addend: 0x0, symName: __ZNSt3__113__assoc_stateINS_4pairIP11ggml_tensorbEEE4moveEv, symObjAddr: 0xBBC0, symBinAddr: 0x66DE0, symSize: 0xC0 }
  - { offset: 0x3760FB, size: 0x8, addend: 0x0, symName: __ZNSt3__16vectorIP18ggml_backend_eventNS_9allocatorIS2_EEE12emplace_backIJRS2_EEES7_DpOT_, symObjAddr: 0x84E0, symBinAddr: 0x63E50, symSize: 0x120 }
  - { offset: 0x37656C, size: 0x8, addend: 0x0, symName: __ZNKSt3__16vectorINS_10unique_ptrI10llama_fileNS_14default_deleteIS2_EEEENS_9allocatorIS5_EEE20__throw_out_of_rangeB8ne190102Ev, symObjAddr: 0xB580, symBinAddr: 0x667A0, symSize: 0x10 }
  - { offset: 0x376596, size: 0x8, addend: 0x0, symName: '__ZNSt3__119__async_assoc_stateINS_4pairIP11ggml_tensorbEENS_12__async_funcIZN18llama_model_loader13load_all_dataEP12ggml_contextRNS_13unordered_mapIjP19ggml_backend_bufferNS_4hashIjEENS_8equal_toIjEENS_9allocatorINS1_IKjSB_EEEEEEPNS_6vectorINS_10unique_ptrI11llama_mlockNS_14default_deleteISO_EEEENSG_ISR_EEEEPFbfPvESV_E3$_1JEEEED1Ev', symObjAddr: 0xB590, symBinAddr: 0x667B0, symSize: 0x40 }
  - { offset: 0x3765A1, size: 0x8, addend: 0x0, symName: __ZNKSt3__16vectorINS_4pairImmEENS_9allocatorIS2_EEE20__throw_out_of_rangeB8ne190102Ev, symObjAddr: 0xBC80, symBinAddr: 0x66EA0, symSize: 0x10 }
  - { offset: 0x3765D6, size: 0x8, addend: 0x0, symName: __ZNKSt3__16vectorINS_6futureINS_4pairIP11ggml_tensorbEEEENS_9allocatorIS6_EEE20__throw_length_errorB8ne190102Ev, symObjAddr: 0xB8E0, symBinAddr: 0x66B00, symSize: 0x10 }
  - { offset: 0x376600, size: 0x8, addend: 0x0, symName: __ZNKSt3__16vectorINS_10unique_ptrI11llama_mlockNS_14default_deleteIS2_EEEENS_9allocatorIS5_EEE20__throw_out_of_rangeB8ne190102Ev, symObjAddr: 0xB8F0, symBinAddr: 0x66B10, symSize: 0x10 }
  - { offset: 0x37660B, size: 0x8, addend: 0x0, symName: __ZNKSt3__16vectorINS_10unique_ptrI11llama_mlockNS_14default_deleteIS2_EEEENS_9allocatorIS5_EEE20__throw_out_of_rangeB8ne190102Ev, symObjAddr: 0xB8F0, symBinAddr: 0x66B10, symSize: 0x10 }
  - { offset: 0x376635, size: 0x8, addend: 0x0, symName: '__ZNSt3__119__async_assoc_stateINS_4pairIP11ggml_tensorbEENS_12__async_funcIZN18llama_model_loader13load_all_dataEP12ggml_contextRNS_13unordered_mapIjP19ggml_backend_bufferNS_4hashIjEENS_8equal_toIjEENS_9allocatorINS1_IKjSB_EEEEEEPNS_6vectorINS_10unique_ptrI11llama_mlockNS_14default_deleteISO_EEEENSG_ISR_EEEEPFbfPvESV_E3$_2JEEEED1Ev', symObjAddr: 0xB900, symBinAddr: 0x66B20, symSize: 0x40 }
  - { offset: 0x376640, size: 0x8, addend: 0x0, symName: __ZNKSt3__16vectorI7no_initIhENS_9allocatorIS2_EEE20__throw_length_errorB8ne190102Ev, symObjAddr: 0xBBB0, symBinAddr: 0x66DD0, symSize: 0x10 }
  - { offset: 0x37666A, size: 0x8, addend: 0x0, symName: __ZNSt3__113__assoc_stateINS_4pairIP11ggml_tensorbEEE4moveEv, symObjAddr: 0xBBC0, symBinAddr: 0x66DE0, symSize: 0xC0 }
  - { offset: 0x376675, size: 0x8, addend: 0x0, symName: __ZNKSt3__16vectorIP19ggml_backend_bufferNS_9allocatorIS2_EEE20__throw_length_errorB8ne190102Ev, symObjAddr: 0x8600, symBinAddr: 0x63F70, symSize: 0x10 }
  - { offset: 0x37669F, size: 0x8, addend: 0x0, symName: __ZNKSt3__16vectorIPvNS_9allocatorIS1_EEE20__throw_length_errorB8ne190102Ev, symObjAddr: 0x8610, symBinAddr: 0x63F80, symSize: 0x10 }
  - { offset: 0x3766AA, size: 0x8, addend: 0x0, symName: __ZNKSt3__16vectorIPvNS_9allocatorIS1_EEE20__throw_length_errorB8ne190102Ev, symObjAddr: 0x8610, symBinAddr: 0x63F80, symSize: 0x10 }
  - { offset: 0x3766D4, size: 0x8, addend: 0x0, symName: __ZNKSt3__16vectorIP18ggml_backend_eventNS_9allocatorIS2_EEE20__throw_length_errorB8ne190102Ev, symObjAddr: 0x8620, symBinAddr: 0x63F90, symSize: 0x10 }
  - { offset: 0x3766DF, size: 0x8, addend: 0x0, symName: '__ZNSt3__110unique_ptrINS_5tupleIJNS0_INS_15__thread_structENS_14default_deleteIS2_EEEEMNS_19__async_assoc_stateINS_4pairIP11ggml_tensorbEENS_12__async_funcIZN18llama_model_loader13load_all_dataEP12ggml_contextRNS_13unordered_mapIjP19ggml_backend_bufferNS_4hashIjEENS_8equal_toIjEENS_9allocatorINS7_IKjSH_EEEEEEPNS_6vectorINS0_I11llama_mlockNS3_IST_EEEENSM_ISV_EEEEPFbfPvESZ_E3$_2JEEEEEFvvEPS14_EEENS3_IS18_EEED1B8ne190102Ev', symObjAddr: 0xBB60, symBinAddr: 0x66D80, symSize: 0x50 }
  - { offset: 0x376889, size: 0x8, addend: 0x0, symName: __ZNSt3__110unique_ptrINS_15__thread_structENS_14default_deleteIS1_EEED1B8ne190102Ev, symObjAddr: 0xB8A0, symBinAddr: 0x66AC0, symSize: 0x40 }
  - { offset: 0x376918, size: 0x8, addend: 0x0, symName: '__ZNSt3__110unique_ptrINS_5tupleIJNS0_INS_15__thread_structENS_14default_deleteIS2_EEEEMNS_19__async_assoc_stateINS_4pairIP11ggml_tensorbEENS_12__async_funcIZN18llama_model_loader13load_all_dataEP12ggml_contextRNS_13unordered_mapIjP19ggml_backend_bufferNS_4hashIjEENS_8equal_toIjEENS_9allocatorINS7_IKjSH_EEEEEEPNS_6vectorINS0_I11llama_mlockNS3_IST_EEEENSM_ISV_EEEEPFbfPvESZ_E3$_1JEEEEEFvvEPS14_EEENS3_IS18_EEED1B8ne190102Ev', symObjAddr: 0xB850, symBinAddr: 0x66A70, symSize: 0x50 }
  - { offset: 0x376AC2, size: 0x8, addend: 0x0, symName: __ZNSt3__16vectorINS_6futureINS_4pairIP11ggml_tensorbEEEENS_9allocatorIS6_EEED1B8ne190102Ev, symObjAddr: 0x7D10, symBinAddr: 0x637E0, symSize: 0x80 }
  - { offset: 0x376CA2, size: 0x8, addend: 0x0, symName: __ZNK18llama_model_loader10ftype_nameEv, symObjAddr: 0x7D90, symBinAddr: 0x63860, symSize: 0x20 }
  - { offset: 0x376CE1, size: 0x8, addend: 0x0, symName: __ZL22llama_model_ftype_name11llama_ftype, symObjAddr: 0x7DB0, symBinAddr: 0x63880, symSize: 0x2C0 }
  - { offset: 0x376FE8, size: 0x8, addend: 0x0, symName: __ZNK18llama_model_loader10print_infoEv, symObjAddr: 0x8070, symBinAddr: 0x63B40, symSize: 0x180 }
  - { offset: 0x37786E, size: 0x8, addend: 0x0, symName: __ZNKSt3__16vectorIP18ggml_backend_eventNS_9allocatorIS2_EEE20__throw_length_errorB8ne190102Ev, symObjAddr: 0x8620, symBinAddr: 0x63F90, symSize: 0x10 }
  - { offset: 0x377898, size: 0x8, addend: 0x0, symName: __ZN8GGUFMeta3GKVINS_9ArrayInfoEE6get_kvEPK12gguf_contexti, symObjAddr: 0x8630, symBinAddr: 0x63FA0, symSize: 0x130 }
  - { offset: 0x378AA9, size: 0x8, addend: 0x0, symName: __ZNSt3__112__hash_tableINS_17__hash_value_typeINS_12basic_stringIcNS_11char_traitsIcEENS_9allocatorIcEEEE23llama_model_kv_overrideEENS_22__unordered_map_hasherIS7_S9_NS_4hashIS7_EENS_8equal_toIS7_EELb1EEENS_21__unordered_map_equalIS7_S9_SE_SC_Lb1EEENS5_IS9_EEE11__do_rehashILb1EEEvm, symObjAddr: 0xA820, symBinAddr: 0x65C60, symSize: 0x230 }
  - { offset: 0x378F1B, size: 0x8, addend: 0x0, symName: __ZNSt3__110unique_ptrINS_11__hash_nodeINS_17__hash_value_typeINS_12basic_stringIcNS_11char_traitsIcEENS_9allocatorIcEEEE23llama_model_kv_overrideEEPvEENS_22__hash_node_destructorINS6_ISC_EEEEED1B8ne190102Ev, symObjAddr: 0xA7D0, symBinAddr: 0x65C10, symSize: 0x50 }
  - { offset: 0x379514, size: 0x8, addend: 0x0, symName: '__ZNSt3__119__async_assoc_stateINS_4pairIP11ggml_tensorbEENS_12__async_funcIZN18llama_model_loader13load_all_dataEP12ggml_contextRNS_13unordered_mapIjP19ggml_backend_bufferNS_4hashIjEENS_8equal_toIjEENS_9allocatorINS1_IKjSB_EEEEEEPNS_6vectorINS_10unique_ptrI11llama_mlockNS_14default_deleteISO_EEEENSG_ISR_EEEEPFbfPvESV_E3$_1JEEEED1Ev', symObjAddr: 0xB590, symBinAddr: 0x667B0, symSize: 0x40 }
  - { offset: 0x3795B0, size: 0x8, addend: 0x0, symName: '__ZNSt3__119__async_assoc_stateINS_4pairIP11ggml_tensorbEENS_12__async_funcIZN18llama_model_loader13load_all_dataEP12ggml_contextRNS_13unordered_mapIjP19ggml_backend_bufferNS_4hashIjEENS_8equal_toIjEENS_9allocatorINS1_IKjSB_EEEEEEPNS_6vectorINS_10unique_ptrI11llama_mlockNS_14default_deleteISO_EEEENSG_ISR_EEEEPFbfPvESV_E3$_1JEEEED0Ev', symObjAddr: 0xB5D0, symBinAddr: 0x667F0, symSize: 0x50 }
  - { offset: 0x37966A, size: 0x8, addend: 0x0, symName: '__ZNSt3__119__async_assoc_stateINS_4pairIP11ggml_tensorbEENS_12__async_funcIZN18llama_model_loader13load_all_dataEP12ggml_contextRNS_13unordered_mapIjP19ggml_backend_bufferNS_4hashIjEENS_8equal_toIjEENS_9allocatorINS1_IKjSB_EEEEEEPNS_6vectorINS_10unique_ptrI11llama_mlockNS_14default_deleteISO_EEEENSG_ISR_EEEEPFbfPvESV_E3$_1JEEEE16__on_zero_sharedEv', symObjAddr: 0xB620, symBinAddr: 0x66840, symSize: 0x30 }
  - { offset: 0x3798D3, size: 0x8, addend: 0x0, symName: '__ZNSt3__119__async_assoc_stateINS_4pairIP11ggml_tensorbEENS_12__async_funcIZN18llama_model_loader13load_all_dataEP12ggml_contextRNS_13unordered_mapIjP19ggml_backend_bufferNS_4hashIjEENS_8equal_toIjEENS_9allocatorINS1_IKjSB_EEEEEEPNS_6vectorINS_10unique_ptrI11llama_mlockNS_14default_deleteISO_EEEENSG_ISR_EEEEPFbfPvESV_E3$_1JEEEE9__executeEv', symObjAddr: 0xB650, symBinAddr: 0x66870, symSize: 0x110 }
  - { offset: 0x379D7C, size: 0x8, addend: 0x0, symName: '__ZNSt3__119__async_assoc_stateINS_4pairIP11ggml_tensorbEENS_12__async_funcIZN18llama_model_loader13load_all_dataEP12ggml_contextRNS_13unordered_mapIjP19ggml_backend_bufferNS_4hashIjEENS_8equal_toIjEENS_9allocatorINS1_IKjSB_EEEEEEPNS_6vectorINS_10unique_ptrI11llama_mlockNS_14default_deleteISO_EEEENSG_ISR_EEEEPFbfPvESV_E3$_2JEEEED1Ev', symObjAddr: 0xB900, symBinAddr: 0x66B20, symSize: 0x40 }
  - { offset: 0x379E18, size: 0x8, addend: 0x0, symName: '__ZNSt3__119__async_assoc_stateINS_4pairIP11ggml_tensorbEENS_12__async_funcIZN18llama_model_loader13load_all_dataEP12ggml_contextRNS_13unordered_mapIjP19ggml_backend_bufferNS_4hashIjEENS_8equal_toIjEENS_9allocatorINS1_IKjSB_EEEEEEPNS_6vectorINS_10unique_ptrI11llama_mlockNS_14default_deleteISO_EEEENSG_ISR_EEEEPFbfPvESV_E3$_2JEEEED0Ev', symObjAddr: 0xB940, symBinAddr: 0x66B60, symSize: 0x50 }
  - { offset: 0x379EBA, size: 0x8, addend: 0x0, symName: '__ZNSt3__119__async_assoc_stateINS_4pairIP11ggml_tensorbEENS_12__async_funcIZN18llama_model_loader13load_all_dataEP12ggml_contextRNS_13unordered_mapIjP19ggml_backend_bufferNS_4hashIjEENS_8equal_toIjEENS_9allocatorINS1_IKjSB_EEEEEEPNS_6vectorINS_10unique_ptrI11llama_mlockNS_14default_deleteISO_EEEENSG_ISR_EEEEPFbfPvESV_E3$_2JEEEE16__on_zero_sharedEv', symObjAddr: 0xB990, symBinAddr: 0x66BB0, symSize: 0x30 }
  - { offset: 0x379F6A, size: 0x8, addend: 0x0, symName: '__ZNSt3__119__async_assoc_stateINS_4pairIP11ggml_tensorbEENS_12__async_funcIZN18llama_model_loader13load_all_dataEP12ggml_contextRNS_13unordered_mapIjP19ggml_backend_bufferNS_4hashIjEENS_8equal_toIjEENS_9allocatorINS1_IKjSB_EEEEEEPNS_6vectorINS_10unique_ptrI11llama_mlockNS_14default_deleteISO_EEEENSG_ISR_EEEEPFbfPvESV_E3$_2JEEEE9__executeEv', symObjAddr: 0xB9C0, symBinAddr: 0x66BE0, symSize: 0x110 }
  - { offset: 0x38FBA5, size: 0x8, addend: 0x0, symName: __ZN17llama_model_saverC2ERK11llama_model, symObjAddr: 0x0, symBinAddr: 0x66EB0, symSize: 0x40 }
  - { offset: 0x38FC16, size: 0x8, addend: 0x0, symName: __ZN17llama_model_saverC1ERK11llama_model, symObjAddr: 0x40, symBinAddr: 0x66EF0, symSize: 0x40 }
  - { offset: 0x38FC85, size: 0x8, addend: 0x0, symName: __ZN17llama_model_saverD2Ev, symObjAddr: 0x80, symBinAddr: 0x66F30, symSize: 0x20 }
  - { offset: 0x38FCDE, size: 0x8, addend: 0x0, symName: __ZN17llama_model_saverD1Ev, symObjAddr: 0xB0, symBinAddr: 0x66F50, symSize: 0x20 }
  - { offset: 0x38FE33, size: 0x8, addend: 0x0, symName: __ZN17llama_model_saver6add_kvE6llm_kvj, symObjAddr: 0xD0, symBinAddr: 0x66F70, symSize: 0x70 }
  - { offset: 0x39015B, size: 0x8, addend: 0x0, symName: __ZN17llama_model_saver6add_kvE6llm_kvi, symObjAddr: 0x140, symBinAddr: 0x66FE0, symSize: 0x70 }
  - { offset: 0x390483, size: 0x8, addend: 0x0, symName: __ZN17llama_model_saver6add_kvE6llm_kvf, symObjAddr: 0x1B0, symBinAddr: 0x67050, symSize: 0x70 }
  - { offset: 0x3907AD, size: 0x8, addend: 0x0, symName: __ZN17llama_model_saver6add_kvE6llm_kvb, symObjAddr: 0x220, symBinAddr: 0x670C0, symSize: 0x70 }
  - { offset: 0x390AD5, size: 0x8, addend: 0x0, symName: __ZN17llama_model_saver6add_kvE6llm_kvPKc, symObjAddr: 0x290, symBinAddr: 0x67130, symSize: 0x70 }
  - { offset: 0x390E10, size: 0x8, addend: 0x0, symName: __ZN17llama_model_saver6add_kvE6llm_kvc, symObjAddr: 0x300, symBinAddr: 0x671A0, symSize: 0x20 }
  - { offset: 0x39119C, size: 0x8, addend: 0x0, symName: __ZN17llama_model_saver6add_kvE6llm_kvRKNSt3__16vectorINS1_12basic_stringIcNS1_11char_traitsIcEENS1_9allocatorIcEEEENS6_IS8_EEEE, symObjAddr: 0x320, symBinAddr: 0x671C0, symSize: 0x1F0 }
  - { offset: 0x391A30, size: 0x8, addend: 0x0, symName: __ZNKSt3__16vectorIPKcNS_9allocatorIS2_EEE20__throw_length_errorB8ne190102Ev, symObjAddr: 0x2980, symBinAddr: 0x697B0, symSize: 0x10 }
  - { offset: 0x391D10, size: 0x8, addend: 0x0, symName: __ZN17llama_model_saver10add_tensorEPK11ggml_tensor, symObjAddr: 0x510, symBinAddr: 0x673B0, symSize: 0x1A0 }
  - { offset: 0x392205, size: 0x8, addend: 0x0, symName: __ZNSt3__128__exception_guard_exceptionsINS_6vectorINS_12basic_stringIcNS_11char_traitsIcEENS_9allocatorIcEEEENS5_IS7_EEE16__destroy_vectorEED1B8ne190102Ev, symObjAddr: 0x2A20, symBinAddr: 0x697C0, symSize: 0x70 }
  - { offset: 0x392D16, size: 0x8, addend: 0x0, symName: __ZN17llama_model_saver17add_kv_from_modelEv, symObjAddr: 0x6B0, symBinAddr: 0x67550, symSize: 0x1C50 }
  - { offset: 0x39C7BB, size: 0x8, addend: 0x0, symName: __ZN17llama_model_saver6add_kvINSt3__112basic_stringIcNS1_11char_traitsIcEENS1_9allocatorIcEEEEEEv6llm_kvRKT_b, symObjAddr: 0x2300, symBinAddr: 0x691A0, symSize: 0x140 }
  - { offset: 0x39CC1E, size: 0x8, addend: 0x0, symName: __ZN17llama_model_saver6add_kvINSt3__15arrayIjLm512EEEEEv6llm_kvRKT_b, symObjAddr: 0x2440, symBinAddr: 0x692E0, symSize: 0x120 }
  - { offset: 0x39CFDC, size: 0x8, addend: 0x0, symName: __ZNSt3__128__exception_guard_exceptionsINS_6vectorINS_12basic_stringIcNS_11char_traitsIcEENS_9allocatorIcEEEENS5_IS7_EEE16__destroy_vectorEED1B8ne190102Ev, symObjAddr: 0x2A20, symBinAddr: 0x697C0, symSize: 0x70 }
  - { offset: 0x39D2D5, size: 0x8, addend: 0x0, symName: __ZN17llama_model_saver22add_tensors_from_modelEv, symObjAddr: 0x25D0, symBinAddr: 0x69400, symSize: 0x380 }
  - { offset: 0x39DF27, size: 0x8, addend: 0x0, symName: __ZN17llama_model_saver4saveERKNSt3__112basic_stringIcNS0_11char_traitsIcEENS0_9allocatorIcEEEE, symObjAddr: 0x2950, symBinAddr: 0x69780, symSize: 0x30 }
  - { offset: 0x39FF66, size: 0x8, addend: 0x0, symName: __ZL24LLAMA_ROPE_SCALING_TYPES, symObjAddr: 0x566458, symBinAddr: 0x309380, symSize: 0x0 }
  - { offset: 0x4015A4, size: 0x8, addend: 0x0, symName: __ZNSt3__111make_uniqueB8ne190102I14llm_build_phi3ILb1EEJRK11llama_modelRK16llm_graph_paramsEEENS_11__unique_ifIT_E15__unique_singleEDpOT0_, symObjAddr: 0x37FB0, symBinAddr: 0xA1760, symSize: 0x60 }
  - { offset: 0x4016DD, size: 0x8, addend: 0x0, symName: __ZNSt3__111make_uniqueB8ne190102I15llm_build_rwkv6JRK11llama_modelRK16llm_graph_paramsEEENS_11__unique_ifIT_E15__unique_singleEDpOT0_, symObjAddr: 0x38DF0, symBinAddr: 0xA25A0, symSize: 0x60 }
  - { offset: 0x401816, size: 0x8, addend: 0x0, symName: __ZNSt3__111make_uniqueB8ne190102I19llm_build_chameleonJRK11llama_modelRK16llm_graph_paramsEEENS_11__unique_ifIT_E15__unique_singleEDpOT0_, symObjAddr: 0x38FD0, symBinAddr: 0xA2780, symSize: 0x60 }
  - { offset: 0x40194F, size: 0x8, addend: 0x0, symName: __ZNSt3__111make_uniqueB8ne190102I15llm_build_dots1JRK11llama_modelRK16llm_graph_paramsEEENS_11__unique_ifIT_E15__unique_singleEDpOT0_, symObjAddr: 0x39150, symBinAddr: 0xA2900, symSize: 0x60 }
  - { offset: 0x401A88, size: 0x8, addend: 0x0, symName: __ZNSt3__111make_uniqueB8ne190102I23llm_build_hunyuan_denseJRK11llama_modelRK16llm_graph_paramsEEENS_11__unique_ifIT_E15__unique_singleEDpOT0_, symObjAddr: 0x39330, symBinAddr: 0xA2AE0, symSize: 0x60 }
  - { offset: 0x401BC1, size: 0x8, addend: 0x0, symName: __ZNSt3__111make_uniqueB8ne190102I16llm_build_arwkv7JRK11llama_modelRK16llm_graph_paramsEEENS_11__unique_ifIT_E15__unique_singleEDpOT0_, symObjAddr: 0x38F10, symBinAddr: 0xA26C0, symSize: 0x60 }
  - { offset: 0x401CFA, size: 0x8, addend: 0x0, symName: __ZNSt3__111make_uniqueB8ne190102I14llm_build_dbrxJRK11llama_modelRK16llm_graph_paramsEEENS_11__unique_ifIT_E15__unique_singleEDpOT0_, symObjAddr: 0x38670, symBinAddr: 0xA1E20, symSize: 0x60 }
  - { offset: 0x401E33, size: 0x8, addend: 0x0, symName: __ZNSt3__111make_uniqueB8ne190102I20llm_build_rwkv6qwen2JRK11llama_modelRK16llm_graph_paramsEEENS_11__unique_ifIT_E15__unique_singleEDpOT0_, symObjAddr: 0x38E50, symBinAddr: 0xA2600, symSize: 0x60 }
  - { offset: 0x401F6C, size: 0x8, addend: 0x0, symName: __ZNSt3__111make_uniqueB8ne190102I14llm_build_olmoJRK11llama_modelRK16llm_graph_paramsEEENS_11__unique_ifIT_E15__unique_singleEDpOT0_, symObjAddr: 0x386D0, symBinAddr: 0xA1E80, symSize: 0x60 }
  - { offset: 0x4020A5, size: 0x8, addend: 0x0, symName: __ZNSt3__111make_uniqueB8ne190102I18llm_build_glm4_moeJRK11llama_modelRK16llm_graph_paramsEEENS_11__unique_ifIT_E15__unique_singleEDpOT0_, symObjAddr: 0x38A90, symBinAddr: 0xA2240, symSize: 0x60 }
  - { offset: 0x4021DE, size: 0x8, addend: 0x0, symName: __ZNSt3__111make_uniqueB8ne190102I16llm_build_exaoneJRK11llama_modelRK16llm_graph_paramsEEENS_11__unique_ifIT_E15__unique_singleEDpOT0_, symObjAddr: 0x38CD0, symBinAddr: 0xA2480, symSize: 0x60 }
  - { offset: 0x402317, size: 0x8, addend: 0x0, symName: __ZNSt3__111make_uniqueB8ne190102I25llm_build_openai_moe_iswaJRK11llama_modelRK16llm_graph_paramsEEENS_11__unique_ifIT_E15__unique_singleEDpOT0_, symObjAddr: 0x393F0, symBinAddr: 0xA2BA0, symSize: 0x60 }
  - { offset: 0x402450, size: 0x8, addend: 0x0, symName: __ZNSt3__111make_uniqueB8ne190102I22llm_build_gemma3n_iswaJRK11llama_modelRK16llm_graph_paramsEEENS_11__unique_ifIT_E15__unique_singleEDpOT0_, symObjAddr: 0x38430, symBinAddr: 0xA1BE0, symSize: 0x60 }
  - { offset: 0x402589, size: 0x8, addend: 0x0, symName: __ZNSt3__111make_uniqueB8ne190102I18llm_build_nemotronJRK11llama_modelRK16llm_graph_paramsEEENS_11__unique_ifIT_E15__unique_singleEDpOT0_, symObjAddr: 0x38C70, symBinAddr: 0xA2420, symSize: 0x60 }
  - { offset: 0x4026C2, size: 0x8, addend: 0x0, symName: __ZNSt3__111make_uniqueB8ne190102I17llm_build_smollm3JRK11llama_modelRK16llm_graph_paramsEEENS_11__unique_ifIT_E15__unique_singleEDpOT0_, symObjAddr: 0x39390, symBinAddr: 0xA2B40, symSize: 0x60 }
  - { offset: 0x4027FB, size: 0x8, addend: 0x0, symName: __ZNSt3__111make_uniqueB8ne190102I16llm_build_xverseJRK11llama_modelRK16llm_graph_paramsEEENS_11__unique_ifIT_E15__unique_singleEDpOT0_, symObjAddr: 0x38550, symBinAddr: 0xA1D00, symSize: 0x60 }
  - { offset: 0x402934, size: 0x8, addend: 0x0, symName: __ZNSt3__111make_uniqueB8ne190102I16llm_build_t5_encJRK11llama_modelRK16llm_graph_paramsEEENS_11__unique_ifIT_E15__unique_singleEDpOT0_, symObjAddr: 0x38B50, symBinAddr: 0xA2300, symSize: 0x60 }
  - { offset: 0x402A6D, size: 0x8, addend: 0x0, symName: __ZNSt3__111make_uniqueB8ne190102I17llm_build_exaone4ILb1EEJRK11llama_modelRK16llm_graph_paramsEEENS_11__unique_ifIT_E15__unique_singleEDpOT0_, symObjAddr: 0x38D30, symBinAddr: 0xA24E0, symSize: 0x60 }
  - { offset: 0x402BA6, size: 0x8, addend: 0x0, symName: __ZNSt3__111make_uniqueB8ne190102I14llm_build_jaisJRK11llama_modelRK16llm_graph_paramsEEENS_11__unique_ifIT_E15__unique_singleEDpOT0_, symObjAddr: 0x38C10, symBinAddr: 0xA23C0, symSize: 0x60 }
  - { offset: 0x402CDF, size: 0x8, addend: 0x0, symName: __ZNSt3__111make_uniqueB8ne190102I21llm_build_gemma3_iswaJRK11llama_modelRK16llm_graph_paramsEEENS_11__unique_ifIT_E15__unique_singleEDpOT0_, symObjAddr: 0x383D0, symBinAddr: 0xA1B80, symSize: 0x60 }
  - { offset: 0x402E18, size: 0x8, addend: 0x0, symName: __ZNSt3__111make_uniqueB8ne190102I14llm_build_qwenJRK11llama_modelRK16llm_graph_paramsEEENS_11__unique_ifIT_E15__unique_singleEDpOT0_, symObjAddr: 0x37C50, symBinAddr: 0xA1400, symSize: 0x60 }
  - { offset: 0x402F51, size: 0x8, addend: 0x0, symName: __ZNSt3__111make_uniqueB8ne190102I15llm_build_arceeJRK11llama_modelRK16llm_graph_paramsEEENS_11__unique_ifIT_E15__unique_singleEDpOT0_, symObjAddr: 0x391B0, symBinAddr: 0xA2960, symSize: 0x60 }
  - { offset: 0x40308A, size: 0x8, addend: 0x0, symName: __ZNSt3__111make_uniqueB8ne190102I18llm_build_qwen3moeJRK11llama_modelRK16llm_graph_paramsEEENS_11__unique_ifIT_E15__unique_singleEDpOT0_, symObjAddr: 0x37EF0, symBinAddr: 0xA16A0, symSize: 0x60 }
  - { offset: 0x4031C3, size: 0x8, addend: 0x0, symName: __ZNSt3__111make_uniqueB8ne190102I16llm_build_refactJRK11llama_modelRK16llm_graph_paramsEEENS_11__unique_ifIT_E15__unique_singleEDpOT0_, symObjAddr: 0x37A70, symBinAddr: 0xA1220, symSize: 0x60 }
  - { offset: 0x4032FC, size: 0x8, addend: 0x0, symName: __ZNSt3__111make_uniqueB8ne190102I14llm_build_glm4JRK11llama_modelRK16llm_graph_paramsEEENS_11__unique_ifIT_E15__unique_singleEDpOT0_, symObjAddr: 0x38A30, symBinAddr: 0xA21E0, symSize: 0x60 }
  - { offset: 0x403435, size: 0x8, addend: 0x0, symName: __ZNSt3__111make_uniqueB8ne190102I16llm_build_bitnetJRK11llama_modelRK16llm_graph_paramsEEENS_11__unique_ifIT_E15__unique_singleEDpOT0_, symObjAddr: 0x38AF0, symBinAddr: 0xA22A0, symSize: 0x60 }
  - { offset: 0x40356E, size: 0x8, addend: 0x0, symName: __ZNSt3__111make_uniqueB8ne190102I17llm_build_gptneoxJRK11llama_modelRK16llm_graph_paramsEEENS_11__unique_ifIT_E15__unique_singleEDpOT0_, symObjAddr: 0x38850, symBinAddr: 0xA2000, symSize: 0x60 }
  - { offset: 0x4036A7, size: 0x8, addend: 0x0, symName: __ZNSt3__111make_uniqueB8ne190102I18llm_build_minicpm3JRK11llama_modelRK16llm_graph_paramsEEENS_11__unique_ifIT_E15__unique_singleEDpOT0_, symObjAddr: 0x382B0, symBinAddr: 0xA1A60, symSize: 0x60 }
  - { offset: 0x4037E0, size: 0x8, addend: 0x0, symName: __ZNSt3__111make_uniqueB8ne190102I16llm_build_falconJRK11llama_modelRK16llm_graph_paramsEEENS_11__unique_ifIT_E15__unique_singleEDpOT0_, symObjAddr: 0x37950, symBinAddr: 0xA1100, symSize: 0x60 }
  - { offset: 0x403919, size: 0x8, addend: 0x0, symName: __ZNSt3__111make_uniqueB8ne190102I18llm_build_baichuanJRK11llama_modelRK16llm_graph_paramsEEENS_11__unique_ifIT_E15__unique_singleEDpOT0_, symObjAddr: 0x378F0, symBinAddr: 0xA10A0, symSize: 0x60 }
  - { offset: 0x403A52, size: 0x8, addend: 0x0, symName: __ZNSt3__111make_uniqueB8ne190102I18llm_build_qwen2moeJRK11llama_modelRK16llm_graph_paramsEEENS_11__unique_ifIT_E15__unique_singleEDpOT0_, symObjAddr: 0x37E30, symBinAddr: 0xA15E0, symSize: 0x60 }
  - { offset: 0x403B8B, size: 0x8, addend: 0x0, symName: __ZNSt3__111make_uniqueB8ne190102I14llm_build_deciJRK11llama_modelRK16llm_graph_paramsEEENS_11__unique_ifIT_E15__unique_singleEDpOT0_, symObjAddr: 0x37890, symBinAddr: 0xA1040, symSize: 0x60 }
  - { offset: 0x403CC4, size: 0x8, addend: 0x0, symName: __ZNSt3__111make_uniqueB8ne190102I14llm_build_gpt2JRK11llama_modelRK16llm_graph_paramsEEENS_11__unique_ifIT_E15__unique_singleEDpOT0_, symObjAddr: 0x38130, symBinAddr: 0xA18E0, symSize: 0x60 }
  - { offset: 0x403DFD, size: 0x8, addend: 0x0, symName: __ZNSt3__111make_uniqueB8ne190102I22llm_build_smallthinkerILb1EEJRK11llama_modelRK16llm_graph_paramsEEENS_11__unique_ifIT_E15__unique_singleEDpOT0_, symObjAddr: 0x39510, symBinAddr: 0xA2CC0, symSize: 0x60 }
  - { offset: 0x403F36, size: 0x8, addend: 0x0, symName: __ZNSt3__111make_uniqueB8ne190102I15llm_build_lladaJRK11llama_modelRK16llm_graph_paramsEEENS_11__unique_ifIT_E15__unique_singleEDpOT0_, symObjAddr: 0x37D70, symBinAddr: 0xA1520, symSize: 0x60 }
  - { offset: 0x40406F, size: 0x8, addend: 0x0, symName: __ZNSt3__111make_uniqueB8ne190102I18llm_build_deepseekJRK11llama_modelRK16llm_graph_paramsEEENS_11__unique_ifIT_E15__unique_singleEDpOT0_, symObjAddr: 0x38910, symBinAddr: 0xA20C0, symSize: 0x60 }
  - { offset: 0x4041A8, size: 0x8, addend: 0x0, symName: __ZNSt3__111make_uniqueB8ne190102I20llm_build_llama_iswaJRK11llama_modelRK16llm_graph_paramsEEENS_11__unique_ifIT_E15__unique_singleEDpOT0_, symObjAddr: 0x37830, symBinAddr: 0xA0FE0, symSize: 0x60 }
  - { offset: 0x4042E1, size: 0x8, addend: 0x0, symName: __ZNSt3__111make_uniqueB8ne190102I15llm_build_llamaJRK11llama_modelRK16llm_graph_paramsEEENS_11__unique_ifIT_E15__unique_singleEDpOT0_, symObjAddr: 0x377D0, symBinAddr: 0xA0F80, symSize: 0x60 }
  - { offset: 0x40441A, size: 0x8, addend: 0x0, symName: __ZNSt3__111make_uniqueB8ne190102I15llm_build_qwen2JRK11llama_modelRK16llm_graph_paramsEEENS_11__unique_ifIT_E15__unique_singleEDpOT0_, symObjAddr: 0x37CB0, symBinAddr: 0xA1460, symSize: 0x60 }
  - { offset: 0x404553, size: 0x8, addend: 0x0, symName: __ZNSt3__111make_uniqueB8ne190102I15llm_build_gemmaJRK11llama_modelRK16llm_graph_paramsEEENS_11__unique_ifIT_E15__unique_singleEDpOT0_, symObjAddr: 0x38310, symBinAddr: 0xA1AC0, symSize: 0x60 }
  - { offset: 0x40468C, size: 0x8, addend: 0x0, symName: __ZNSt3__111make_uniqueB8ne190102I21llm_build_gemma2_iswaJRK11llama_modelRK16llm_graph_paramsEEENS_11__unique_ifIT_E15__unique_singleEDpOT0_, symObjAddr: 0x38370, symBinAddr: 0xA1B20, symSize: 0x60 }
  - { offset: 0x4047C5, size: 0x8, addend: 0x0, symName: __ZNSt3__111make_uniqueB8ne190102I14llm_build_grokJRK11llama_modelRK16llm_graph_paramsEEENS_11__unique_ifIT_E15__unique_singleEDpOT0_, symObjAddr: 0x379B0, symBinAddr: 0xA1160, symSize: 0x60 }
  - { offset: 0x4048FE, size: 0x8, addend: 0x0, symName: __ZNSt3__111make_uniqueB8ne190102I13llm_build_mptJRK11llama_modelRK16llm_graph_paramsEEENS_11__unique_ifIT_E15__unique_singleEDpOT0_, symObjAddr: 0x37B90, symBinAddr: 0xA1340, symSize: 0x60 }
  - { offset: 0x404A37, size: 0x8, addend: 0x0, symName: __ZNSt3__111make_uniqueB8ne190102I17llm_build_qwen2vlJRK11llama_modelRK16llm_graph_paramsEEENS_11__unique_ifIT_E15__unique_singleEDpOT0_, symObjAddr: 0x37DD0, symBinAddr: 0xA1580, symSize: 0x60 }
  - { offset: 0x404B70, size: 0x8, addend: 0x0, symName: __ZNSt3__111make_uniqueB8ne190102I19llm_build_deepseek2JRK11llama_modelRK16llm_graph_paramsEEENS_11__unique_ifIT_E15__unique_singleEDpOT0_, symObjAddr: 0x38970, symBinAddr: 0xA2120, symSize: 0x60 }
  - { offset: 0x404CA9, size: 0x8, addend: 0x0, symName: __ZNSt3__111make_uniqueB8ne190102I18llm_build_stablelmJRK11llama_modelRK16llm_graph_paramsEEENS_11__unique_ifIT_E15__unique_singleEDpOT0_, symObjAddr: 0x37BF0, symBinAddr: 0xA13A0, symSize: 0x60 }
  - { offset: 0x404DE2, size: 0x8, addend: 0x0, symName: __ZNSt3__111make_uniqueB8ne190102I19llm_build_starcoderJRK11llama_modelRK16llm_graph_paramsEEENS_11__unique_ifIT_E15__unique_singleEDpOT0_, symObjAddr: 0x37A10, symBinAddr: 0xA11C0, symSize: 0x60 }
  - { offset: 0x404F1B, size: 0x8, addend: 0x0, symName: __ZNSt3__111make_uniqueB8ne190102I15llm_build_orionJRK11llama_modelRK16llm_graph_paramsEEENS_11__unique_ifIT_E15__unique_singleEDpOT0_, symObjAddr: 0x381F0, symBinAddr: 0xA19A0, symSize: 0x60 }
  - { offset: 0x405054, size: 0x8, addend: 0x0, symName: __ZNSt3__111make_uniqueB8ne190102I19llm_build_internlm2JRK11llama_modelRK16llm_graph_paramsEEENS_11__unique_ifIT_E15__unique_singleEDpOT0_, symObjAddr: 0x38250, symBinAddr: 0xA1A00, symSize: 0x60 }
  - { offset: 0x40518D, size: 0x8, addend: 0x0, symName: __ZNSt3__111make_uniqueB8ne190102I15llm_build_bloomJRK11llama_modelRK16llm_graph_paramsEEENS_11__unique_ifIT_E15__unique_singleEDpOT0_, symObjAddr: 0x37B30, symBinAddr: 0xA12E0, symSize: 0x60 }
  - { offset: 0x4052C6, size: 0x8, addend: 0x0, symName: __ZNSt3__111make_uniqueB8ne190102I18llm_build_neo_bertJRK11llama_modelRK16llm_graph_paramsEEENS_11__unique_ifIT_E15__unique_singleEDpOT0_, symObjAddr: 0x37AD0, symBinAddr: 0xA1280, symSize: 0x60 }
  - { offset: 0x4053FF, size: 0x8, addend: 0x0, symName: __ZNSt3__111make_uniqueB8ne190102I26llm_build_wavtokenizer_decJRK11llama_modelRK16llm_graph_paramsEEENS_11__unique_ifIT_E15__unique_singleEDpOT0_, symObjAddr: 0x39030, symBinAddr: 0xA27E0, symSize: 0x60 }
  - { offset: 0x405538, size: 0x8, addend: 0x0, symName: __ZNSt3__111make_uniqueB8ne190102I19llm_build_command_rJRK11llama_modelRK16llm_graph_paramsEEENS_11__unique_ifIT_E15__unique_singleEDpOT0_, symObjAddr: 0x385B0, symBinAddr: 0xA1D60, symSize: 0x60 }
  - { offset: 0x405671, size: 0x8, addend: 0x0, symName: __ZNSt3__111make_uniqueB8ne190102I16llm_build_plamo2JRK11llama_modelRK16llm_graph_paramsEEENS_11__unique_ifIT_E15__unique_singleEDpOT0_, symObjAddr: 0x380D0, symBinAddr: 0xA1880, symSize: 0x60 }
  - { offset: 0x4057AA, size: 0x8, addend: 0x0, symName: __ZNSt3__111make_uniqueB8ne190102I15llm_build_jambaJRK11llama_modelRK16llm_graph_paramsEEENS_11__unique_ifIT_E15__unique_singleEDpOT0_, symObjAddr: 0x384F0, symBinAddr: 0xA1CA0, symSize: 0x60 }
  - { offset: 0x4058E3, size: 0x8, addend: 0x0, symName: __ZNSt3__111make_uniqueB8ne190102I17llm_build_openelmJRK11llama_modelRK16llm_graph_paramsEEENS_11__unique_ifIT_E15__unique_singleEDpOT0_, symObjAddr: 0x387F0, symBinAddr: 0xA1FA0, symSize: 0x60 }
  - { offset: 0x405A1C, size: 0x8, addend: 0x0, symName: __ZNSt3__111make_uniqueB8ne190102I19llm_build_codeshellJRK11llama_modelRK16llm_graph_paramsEEENS_11__unique_ifIT_E15__unique_singleEDpOT0_, symObjAddr: 0x38190, symBinAddr: 0xA1940, symSize: 0x60 }
  - { offset: 0x405B55, size: 0x8, addend: 0x0, symName: __ZNSt3__111make_uniqueB8ne190102I15llm_build_olmoeJRK11llama_modelRK16llm_graph_paramsEEENS_11__unique_ifIT_E15__unique_singleEDpOT0_, symObjAddr: 0x38790, symBinAddr: 0xA1F40, symSize: 0x60 }
  - { offset: 0x405C8E, size: 0x8, addend: 0x0, symName: __ZNSt3__111make_uniqueB8ne190102I14llm_build_phi2JRK11llama_modelRK16llm_graph_paramsEEENS_11__unique_ifIT_E15__unique_singleEDpOT0_, symObjAddr: 0x37F50, symBinAddr: 0xA1700, symSize: 0x60 }
  - { offset: 0x405DC7, size: 0x8, addend: 0x0, symName: __ZNSt3__111make_uniqueB8ne190102I13llm_build_plmJRK11llama_modelRK16llm_graph_paramsEEENS_11__unique_ifIT_E15__unique_singleEDpOT0_, symObjAddr: 0x39090, symBinAddr: 0xA2840, symSize: 0x60 }
  - { offset: 0x405F00, size: 0x8, addend: 0x0, symName: __ZNSt3__111make_uniqueB8ne190102I15llm_build_qwen3JRK11llama_modelRK16llm_graph_paramsEEENS_11__unique_ifIT_E15__unique_singleEDpOT0_, symObjAddr: 0x37E90, symBinAddr: 0xA1640, symSize: 0x60 }
  - { offset: 0x406039, size: 0x8, addend: 0x0, symName: __ZNSt3__111make_uniqueB8ne190102I15llm_build_olmo2JRK11llama_modelRK16llm_graph_paramsEEENS_11__unique_ifIT_E15__unique_singleEDpOT0_, symObjAddr: 0x38730, symBinAddr: 0xA1EE0, symSize: 0x60 }
  - { offset: 0x406172, size: 0x8, addend: 0x0, symName: __ZNSt3__111make_uniqueB8ne190102I15llm_build_plamoJRK11llama_modelRK16llm_graph_paramsEEENS_11__unique_ifIT_E15__unique_singleEDpOT0_, symObjAddr: 0x38070, symBinAddr: 0xA1820, symSize: 0x60 }
  - { offset: 0x4062AB, size: 0x8, addend: 0x0, symName: __ZNSt3__111make_uniqueB8ne190102I20llm_build_bailingmoeJRK11llama_modelRK16llm_graph_paramsEEENS_11__unique_ifIT_E15__unique_singleEDpOT0_, symObjAddr: 0x390F0, symBinAddr: 0xA28A0, symSize: 0x60 }
  - { offset: 0x4063E4, size: 0x8, addend: 0x0, symName: __ZNSt3__111make_uniqueB8ne190102I22llm_build_ernie4_5_moeJRK11llama_modelRK16llm_graph_paramsEEENS_11__unique_ifIT_E15__unique_singleEDpOT0_, symObjAddr: 0x39270, symBinAddr: 0xA2A20, symSize: 0x60 }
  - { offset: 0x40651D, size: 0x8, addend: 0x0, symName: __ZNSt3__111make_uniqueB8ne190102I22llm_build_cohere2_iswaJRK11llama_modelRK16llm_graph_paramsEEENS_11__unique_ifIT_E15__unique_singleEDpOT0_, symObjAddr: 0x38610, symBinAddr: 0xA1DC0, symSize: 0x60 }
  - { offset: 0x406656, size: 0x8, addend: 0x0, symName: __ZNSt3__111make_uniqueB8ne190102I15llm_build_rwkv7JRK11llama_modelRK16llm_graph_paramsEEENS_11__unique_ifIT_E15__unique_singleEDpOT0_, symObjAddr: 0x38EB0, symBinAddr: 0xA2660, symSize: 0x60 }
  - { offset: 0x40678F, size: 0x8, addend: 0x0, symName: __ZNSt3__111make_uniqueB8ne190102I20llm_build_starcoder2JRK11llama_modelRK16llm_graph_paramsEEENS_11__unique_ifIT_E15__unique_singleEDpOT0_, symObjAddr: 0x38490, symBinAddr: 0xA1C40, symSize: 0x60 }
  - { offset: 0x4068C8, size: 0x8, addend: 0x0, symName: __ZNSt3__111make_uniqueB8ne190102I19llm_build_falcon_h1JRK11llama_modelRK16llm_graph_paramsEEENS_11__unique_ifIT_E15__unique_singleEDpOT0_, symObjAddr: 0x39450, symBinAddr: 0xA2C00, symSize: 0x60 }
  - { offset: 0x406A01, size: 0x8, addend: 0x0, symName: __ZNSt3__111make_uniqueB8ne190102I16llm_build_arcticJRK11llama_modelRK16llm_graph_paramsEEENS_11__unique_ifIT_E15__unique_singleEDpOT0_, symObjAddr: 0x388B0, symBinAddr: 0xA2060, symSize: 0x60 }
  - { offset: 0x406B3A, size: 0x8, addend: 0x0, symName: __ZNSt3__111make_uniqueB8ne190102I24llm_build_granite_hybridJRK11llama_modelRK16llm_graph_paramsEEENS_11__unique_ifIT_E15__unique_singleEDpOT0_, symObjAddr: 0x38F70, symBinAddr: 0xA2720, symSize: 0x60 }
  - { offset: 0x406C73, size: 0x8, addend: 0x0, symName: __ZNSt3__111make_uniqueB8ne190102I17llm_build_chatglmJRK11llama_modelRK16llm_graph_paramsEEENS_11__unique_ifIT_E15__unique_singleEDpOT0_, symObjAddr: 0x389D0, symBinAddr: 0xA2180, symSize: 0x60 }
  - { offset: 0x406DAC, size: 0x8, addend: 0x0, symName: __ZNSt3__111make_uniqueB8ne190102I15llm_build_dreamJRK11llama_modelRK16llm_graph_paramsEEENS_11__unique_ifIT_E15__unique_singleEDpOT0_, symObjAddr: 0x37D10, symBinAddr: 0xA14C0, symSize: 0x60 }
  - { offset: 0x406EE5, size: 0x8, addend: 0x0, symName: __ZNSt3__111make_uniqueB8ne190102I14llm_build_lfm2JRK11llama_modelRK16llm_graph_paramsEEENS_11__unique_ifIT_E15__unique_singleEDpOT0_, symObjAddr: 0x394B0, symBinAddr: 0xA2C60, symSize: 0x60 }
  - { offset: 0x40701E, size: 0x8, addend: 0x0, symName: __ZNSt3__111make_uniqueB8ne190102I21llm_build_hunyuan_moeJRK11llama_modelRK16llm_graph_paramsEEENS_11__unique_ifIT_E15__unique_singleEDpOT0_, symObjAddr: 0x392D0, symBinAddr: 0xA2A80, symSize: 0x60 }
  - { offset: 0x407157, size: 0x8, addend: 0x0, symName: __ZNSt3__111make_uniqueB8ne190102I18llm_build_ernie4_5JRK11llama_modelRK16llm_graph_paramsEEENS_11__unique_ifIT_E15__unique_singleEDpOT0_, symObjAddr: 0x39210, symBinAddr: 0xA29C0, symSize: 0x60 }
  - { offset: 0x407290, size: 0x8, addend: 0x0, symName: __ZNSt3__111make_uniqueB8ne190102I14llm_build_phi3ILb0EEJRK11llama_modelRK16llm_graph_paramsEEENS_11__unique_ifIT_E15__unique_singleEDpOT0_, symObjAddr: 0x38010, symBinAddr: 0xA17C0, symSize: 0x60 }
  - { offset: 0x4073C9, size: 0x8, addend: 0x0, symName: __ZNSt3__111make_uniqueB8ne190102I16llm_build_t5_decJRK11llama_modelRK16llm_graph_paramsEEENS_11__unique_ifIT_E15__unique_singleEDpOT0_, symObjAddr: 0x38BB0, symBinAddr: 0xA2360, symSize: 0x60 }
  - { offset: 0x407502, size: 0x8, addend: 0x0, symName: __ZNSt3__111make_uniqueB8ne190102I17llm_build_exaone4ILb0EEJRK11llama_modelRK16llm_graph_paramsEEENS_11__unique_ifIT_E15__unique_singleEDpOT0_, symObjAddr: 0x38D90, symBinAddr: 0xA2540, symSize: 0x60 }
  - { offset: 0x40763B, size: 0x8, addend: 0x0, symName: __ZNSt3__111make_uniqueB8ne190102I22llm_build_smallthinkerILb0EEJRK11llama_modelRK16llm_graph_paramsEEENS_11__unique_ifIT_E15__unique_singleEDpOT0_, symObjAddr: 0x39570, symBinAddr: 0xA2D20, symSize: 0x60 }
  - { offset: 0x418E7D, size: 0x8, addend: 0x0, symName: __ZNK11llama_model10print_infoEv, symObjAddr: 0x35170, symBinAddr: 0x9E920, symSize: 0x1020 }
  - { offset: 0x41CA4C, size: 0x8, addend: 0x0, symName: __ZNK11llama_model13create_memoryERK19llama_memory_paramsR13llama_cparams, symObjAddr: 0x369F0, symBinAddr: 0xA01A0, symSize: 0x5C0 }
  - { offset: 0x41FFF2, size: 0x8, addend: 0x0, symName: __ZN16llm_build_plamo224build_plamo2_mamba_layerEP18llm_graph_input_rsP11ggml_tensorRK11llama_modelRK12llama_ubatchi, symObjAddr: 0x550D0, symBinAddr: 0xB5CD0, symSize: 0xF30 }
  - { offset: 0x421E83, size: 0x8, addend: 0x0, symName: __ZNK23llm_graph_context_mamba18build_mamba2_layerEP18llm_graph_input_rsP11ggml_tensorRK11llama_modelRK12llama_ubatchi, symObjAddr: 0x5C190, symBinAddr: 0xBCCB0, symSize: 0xAC0 }
  - { offset: 0x422E38, size: 0x8, addend: 0x0, symName: __ZN23llm_graph_context_mamba17build_mamba_layerEP18llm_graph_input_rsP11ggml_tensorRK11llama_modelRK12llama_ubatchi, symObjAddr: 0x5CC50, symBinAddr: 0xBD770, symSize: 0xA00 }
  - { offset: 0x426A05, size: 0x8, addend: 0x0, symName: __Z13llm_type_name8llm_type, symObjAddr: 0x0, symBinAddr: 0x69830, symSize: 0x30 }
  - { offset: 0x426AA5, size: 0x8, addend: 0x0, symName: __ZNSt3__13mapI23llama_rope_scaling_typePKcNS_4lessIS1_EENS_9allocatorINS_4pairIKS1_S3_EEEEED1B8ne190102Ev, symObjAddr: 0x30, symBinAddr: 0x69860, symSize: 0x10 }
  - { offset: 0x426B58, size: 0x8, addend: 0x0, symName: __ZNSt3__16__treeINS_12__value_typeI23llama_rope_scaling_typePKcEENS_19__map_value_compareIS2_S5_NS_4lessIS2_EELb1EEENS_9allocatorIS5_EEE7destroyEPNS_11__tree_nodeIS5_PvEE, symObjAddr: 0x46980, symBinAddr: 0xA7B60, symSize: 0x40 }
  - { offset: 0x426FCA, size: 0x8, addend: 0x0, symName: __Z28llama_rope_scaling_type_name23llama_rope_scaling_type, symObjAddr: 0x40, symBinAddr: 0x69870, symSize: 0xE0 }
  - { offset: 0x427B02, size: 0x8, addend: 0x0, symName: __ZN11llama_modelC2ERK18llama_model_params, symObjAddr: 0x120, symBinAddr: 0x69950, symSize: 0x300 }
  - { offset: 0x42836E, size: 0x8, addend: 0x0, symName: __ZNSt3__16vectorINS_4pairINS_12basic_stringIcNS_11char_traitsIcEENS_9allocatorIcEEEEP11ggml_tensorEENS5_ISA_EEED1B8ne190102Ev, symObjAddr: 0x420, symBinAddr: 0x69C50, symSize: 0x70 }
  - { offset: 0x428610, size: 0x8, addend: 0x0, symName: __ZNSt3__113unordered_mapINS_12basic_stringIcNS_11char_traitsIcEENS_9allocatorIcEEEES6_NS_4hashIS6_EENS_8equal_toIS6_EENS4_INS_4pairIKS6_S6_EEEEED1B8ne190102Ev, symObjAddr: 0x490, symBinAddr: 0x69CC0, symSize: 0x80 }
  - { offset: 0x42919F, size: 0x8, addend: 0x0, symName: __ZN11llama_modelC1ERK18llama_model_params, symObjAddr: 0x580, symBinAddr: 0x69D40, symSize: 0x10 }
  - { offset: 0x4292E5, size: 0x8, addend: 0x0, symName: __ZN11llama_modelD2Ev, symObjAddr: 0x590, symBinAddr: 0x69D50, symSize: 0x1B0 }
  - { offset: 0x42A201, size: 0x8, addend: 0x0, symName: __ZN11llama_model4implD2Ev, symObjAddr: 0x469C0, symBinAddr: 0xA7BA0, symSize: 0x240 }
  - { offset: 0x42AF7B, size: 0x8, addend: 0x0, symName: __ZN11llama_modelD1Ev, symObjAddr: 0x740, symBinAddr: 0x69F00, symSize: 0x10 }
  - { offset: 0x42AFCC, size: 0x8, addend: 0x0, symName: __ZN11llama_model10load_statsER18llama_model_loader, symObjAddr: 0x750, symBinAddr: 0x69F10, symSize: 0x20 }
  - { offset: 0x42B075, size: 0x8, addend: 0x0, symName: __ZN11llama_model9load_archER18llama_model_loader, symObjAddr: 0x770, symBinAddr: 0x69F30, symSize: 0x160 }
  - { offset: 0x42B7AD, size: 0x8, addend: 0x0, symName: __ZN11llama_model12load_hparamsER18llama_model_loader, symObjAddr: 0x8D0, symBinAddr: 0x6A090, symSize: 0x3F80 }
  - { offset: 0x42DCF7, size: 0x8, addend: 0x0, symName: __ZNSt3__112__hash_tableINS_17__hash_value_typeINS_12basic_stringIcNS_11char_traitsIcEENS_9allocatorIcEEEES7_EENS_22__unordered_map_hasherIS7_S8_NS_4hashIS7_EENS_8equal_toIS7_EELb1EEENS_21__unordered_map_equalIS7_S8_SD_SB_Lb1EEENS5_IS8_EEE21__emplace_unique_implIJRPKcRKS7_EEENS_4pairINS_15__hash_iteratorIPNS_11__hash_nodeIS8_PvEEEEbEEDpOT_, symObjAddr: 0x46C80, symBinAddr: 0xA7E30, symSize: 0x110 }
  - { offset: 0x42E5E6, size: 0x8, addend: 0x0, symName: _llama_model_rope_type, symObjAddr: 0x49B0, symBinAddr: 0x6E170, symSize: 0x1B0 }
  - { offset: 0x42E665, size: 0x8, addend: 0x0, symName: __ZNK11llama_model9arch_nameEv, symObjAddr: 0x4850, symBinAddr: 0x6E010, symSize: 0xB0 }
  - { offset: 0x42E95E, size: 0x8, addend: 0x0, symName: __ZNK11llama_model9type_nameEv, symObjAddr: 0x4900, symBinAddr: 0x6E0C0, symSize: 0xB0 }
  - { offset: 0x42EC57, size: 0x8, addend: 0x0, symName: __ZN11llama_model10load_vocabER18llama_model_loader, symObjAddr: 0x4B60, symBinAddr: 0x6E320, symSize: 0x50 }
  - { offset: 0x42F5A4, size: 0x8, addend: 0x0, symName: __ZN11llama_model12load_tensorsER18llama_model_loader, symObjAddr: 0x4BB0, symBinAddr: 0x6E370, symSize: 0x2F430 }
  - { offset: 0x45D042, size: 0x8, addend: 0x0, symName: __ZNSt3__16vectorINS_4pairIP19ggml_backend_deviceP24ggml_backend_buffer_typeEENS_9allocatorIS6_EEE18__insert_with_sizeB8ne190102INS_11__wrap_iterIPS6_EESD_EESD_NSB_IPKS6_EET_T0_l, symObjAddr: 0x47C50, symBinAddr: 0xA88D0, symSize: 0x290 }
  - { offset: 0x45DA5E, size: 0x8, addend: 0x0, symName: __ZNSt3__16vectorIN11llama_model4impl9layer_devENS_9allocatorIS3_EEE8__appendEm, symObjAddr: 0x47EF0, symBinAddr: 0xA8B60, symSize: 0x140 }
  - { offset: 0x45DEAA, size: 0x8, addend: 0x0, symName: '__ZZN11llama_model12load_tensorsER18llama_model_loaderENK3$_1clEi', symObjAddr: 0x34000, symBinAddr: 0x9D7C0, symSize: 0x1A0 }
  - { offset: 0x45E178, size: 0x8, addend: 0x0, symName: __ZNSt3__16vectorI11llama_layerNS_9allocatorIS1_EEE8__appendEm, symObjAddr: 0x48090, symBinAddr: 0xA8CC0, symSize: 0x1B0 }
  - { offset: 0x45E5F4, size: 0x8, addend: 0x0, symName: '__ZZN11llama_model12load_tensorsER18llama_model_loaderENK3$_3clERK11LLM_TN_IMPLRKSt16initializer_listIxEi', symObjAddr: 0x341A0, symBinAddr: 0x9D960, symSize: 0xD20 }
  - { offset: 0x46084D, size: 0x8, addend: 0x0, symName: __ZNSt3__16vectorINS_4pairIP12ggml_contextNS_13unordered_mapIjP19ggml_backend_bufferNS_4hashIjEENS_8equal_toIjEENS_9allocatorINS1_IKjS6_EEEEEEEENSB_ISG_EEE7reserveEm, symObjAddr: 0x34ED0, symBinAddr: 0x9E680, symSize: 0x110 }
  - { offset: 0x460EAA, size: 0x8, addend: 0x0, symName: __ZNSt3__112__hash_tableINS_17__hash_value_typeIjP19ggml_backend_bufferEENS_22__unordered_map_hasherIjS4_NS_4hashIjEENS_8equal_toIjEELb1EEENS_21__unordered_map_equalIjS4_S9_S7_Lb1EEENS_9allocatorIS4_EEE11__do_rehashILb1EEEvm, symObjAddr: 0x48510, symBinAddr: 0xA9120, symSize: 0x230 }
  - { offset: 0x461379, size: 0x8, addend: 0x0, symName: __ZNSt3__112__hash_tableINS_17__hash_value_typeIjP19ggml_backend_bufferEENS_22__unordered_map_hasherIjS4_NS_4hashIjEENS_8equal_toIjEELb1EEENS_21__unordered_map_equalIjS4_S9_S7_Lb1EEENS_9allocatorIS4_EEE25__emplace_unique_key_argsIjJRjRS3_EEENS_4pairINS_15__hash_iteratorIPNS_11__hash_nodeIS4_PvEEEEbEERKT_DpOT0_, symObjAddr: 0x48740, symBinAddr: 0xA9350, symSize: 0x440 }
  - { offset: 0x461B74, size: 0x8, addend: 0x0, symName: __ZNSt3__113unordered_mapIjP19ggml_backend_bufferNS_4hashIjEENS_8equal_toIjEENS_9allocatorINS_4pairIKjS2_EEEEEC2ERKSC_, symObjAddr: 0x48D30, symBinAddr: 0xA9930, symSize: 0x1C0 }
  - { offset: 0x461F81, size: 0x8, addend: 0x0, symName: __ZNSt3__16vectorINS_4pairIP12ggml_contextNS_13unordered_mapIjP19ggml_backend_bufferNS_4hashIjEENS_8equal_toIjEENS_9allocatorINS1_IKjS6_EEEEEEEENSB_ISG_EEE24__emplace_back_slow_pathIJRS3_RSF_EEEPSG_DpOT_, symObjAddr: 0x48B90, symBinAddr: 0xA9790, symSize: 0x1A0 }
  - { offset: 0x4627AE, size: 0x8, addend: 0x0, symName: __ZNSt3__16vectorINS_4pairINS_12basic_stringIcNS_11char_traitsIcEENS_9allocatorIcEEEEP11ggml_tensorEENS5_ISA_EEE24__emplace_back_slow_pathIJPKcRS9_EEEPSA_DpOT_, symObjAddr: 0x49310, symBinAddr: 0xA9F10, symSize: 0x1C0 }
  - { offset: 0x463015, size: 0x8, addend: 0x0, symName: __ZNSt3__112__hash_tableINS_17__hash_value_typeIjP19ggml_backend_bufferEENS_22__unordered_map_hasherIjS4_NS_4hashIjEENS_8equal_toIjEELb1EEENS_21__unordered_map_equalIjS4_S9_S7_Lb1EEENS_9allocatorIS4_EEED1Ev, symObjAddr: 0x484C0, symBinAddr: 0xA90D0, symSize: 0x50 }
  - { offset: 0x463020, size: 0x8, addend: 0x0, symName: __ZNKSt3__16vectorINS_4pairIP19ggml_backend_deviceP24ggml_backend_buffer_typeEENS_9allocatorIS6_EEE20__throw_length_errorB8ne190102Ev, symObjAddr: 0x39D00, symBinAddr: 0xA3420, symSize: 0x10 }
  - { offset: 0x46306D, size: 0x8, addend: 0x0, symName: __ZNKSt3__16vectorINS_4pairIP12ggml_contextNS_13unordered_mapIjP19ggml_backend_bufferNS_4hashIjEENS_8equal_toIjEENS_9allocatorINS1_IKjS6_EEEEEEEENSB_ISG_EEE20__throw_length_errorB8ne190102Ev, symObjAddr: 0x48260, symBinAddr: 0xA8E80, symSize: 0x10 }
  - { offset: 0x463090, size: 0x8, addend: 0x0, symName: __ZNSt3__16vectorINS_4pairIP12ggml_contextNS_13unordered_mapIjP19ggml_backend_bufferNS_4hashIjEENS_8equal_toIjEENS_9allocatorINS1_IKjS6_EEEEEEEENSB_ISG_EEE24__emplace_back_slow_pathIJRS3_RSF_EEEPSG_DpOT_, symObjAddr: 0x48B90, symBinAddr: 0xA9790, symSize: 0x1A0 }
  - { offset: 0x4630B3, size: 0x8, addend: 0x0, symName: __ZNSt3__16vectorIN11llama_model4impl9layer_devENS_9allocatorIS3_EEE8__appendEm, symObjAddr: 0x47EF0, symBinAddr: 0xA8B60, symSize: 0x140 }
  - { offset: 0x4630BE, size: 0x8, addend: 0x0, symName: __ZNSt3__113unordered_mapIjP19ggml_backend_bufferNS_4hashIjEENS_8equal_toIjEENS_9allocatorINS_4pairIKjS2_EEEEED1B8ne190102Ev, symObjAddr: 0x34FE0, symBinAddr: 0x9E790, symSize: 0x50 }
  - { offset: 0x463383, size: 0x8, addend: 0x0, symName: __ZNSt3__16vectorINS_4pairIP12ggml_contextNS_13unordered_mapIjP19ggml_backend_bufferNS_4hashIjEENS_8equal_toIjEENS_9allocatorINS1_IKjS6_EEEEEEEENSB_ISG_EEED1B8ne190102Ev, symObjAddr: 0x35030, symBinAddr: 0x9E7E0, symSize: 0xA0 }
  - { offset: 0x46380F, size: 0x8, addend: 0x0, symName: __ZNK11llama_model9n_devicesEv, symObjAddr: 0x33FE0, symBinAddr: 0x9D7A0, symSize: 0x20 }
  - { offset: 0x463920, size: 0x8, addend: 0x0, symName: __ZNKSt3__16vectorIP19ggml_backend_deviceNS_9allocatorIS2_EEE20__throw_out_of_rangeB8ne190102Ev, symObjAddr: 0x39DD0, symBinAddr: 0xA3430, symSize: 0x10 }
  - { offset: 0x46394A, size: 0x8, addend: 0x0, symName: __ZL18select_weight_buftRK13llama_hparamsP11ggml_tensor7ggml_opRKNSt3__16vectorINS5_4pairIP19ggml_backend_deviceP24ggml_backend_buffer_typeEENS5_9allocatorISC_EEEE, symObjAddr: 0x39DE0, symBinAddr: 0xA3440, symSize: 0x860 }
  - { offset: 0x4646FF, size: 0x8, addend: 0x0, symName: __ZNSt3__111basic_regexIcNS_12regex_traitsIcEEEC2B8ne190102EPKcNS_15regex_constants18syntax_option_typeE, symObjAddr: 0x3A690, symBinAddr: 0xA3CA0, symSize: 0xC0 }
  - { offset: 0x464CD2, size: 0x8, addend: 0x0, symName: __ZL18select_weight_buftRK13llama_hparamsP11ggml_tensor7ggml_opRKNSt3__16vectorINS5_4pairIP19ggml_backend_deviceP24ggml_backend_buffer_typeEENS5_9allocatorISC_EEEE, symObjAddr: 0x39DE0, symBinAddr: 0xA3440, symSize: 0x860 }
  - { offset: 0x46595F, size: 0x8, addend: 0x0, symName: __ZNKSt3__16vectorIN11llama_model4impl9layer_devENS_9allocatorIS3_EEE20__throw_out_of_rangeB8ne190102Ev, symObjAddr: 0x48080, symBinAddr: 0xA8CB0, symSize: 0x10 }
  - { offset: 0x465989, size: 0x8, addend: 0x0, symName: __ZNSt3__16vectorI11llama_layerNS_9allocatorIS1_EEE8__appendEm, symObjAddr: 0x48090, symBinAddr: 0xA8CC0, symSize: 0x1B0 }
  - { offset: 0x465C74, size: 0x8, addend: 0x0, symName: __ZNSt3__16vectorINS_4pairIP12ggml_contextNS_13unordered_mapIjP19ggml_backend_bufferNS_4hashIjEENS_8equal_toIjEENS_9allocatorINS1_IKjS6_EEEEEEEENSB_ISG_EEE26__swap_out_circular_bufferERNS_14__split_bufferISG_RSH_EE, symObjAddr: 0x48270, symBinAddr: 0xA8E90, symSize: 0x1B0 }
  - { offset: 0x46636A, size: 0x8, addend: 0x0, symName: __ZNKSt3__16vectorINS_4pairIP12ggml_contextNS_13unordered_mapIjP19ggml_backend_bufferNS_4hashIjEENS_8equal_toIjEENS_9allocatorINS1_IKjS6_EEEEEEEENSB_ISG_EEE20__throw_length_errorB8ne190102Ev, symObjAddr: 0x48260, symBinAddr: 0xA8E80, symSize: 0x10 }
  - { offset: 0x466394, size: 0x8, addend: 0x0, symName: __ZNSt3__16vectorINS_4pairIP12ggml_contextNS_13unordered_mapIjP19ggml_backend_bufferNS_4hashIjEENS_8equal_toIjEENS_9allocatorINS1_IKjS6_EEEEEEEENSB_ISG_EEE26__swap_out_circular_bufferERNS_14__split_bufferISG_RSH_EE, symObjAddr: 0x48270, symBinAddr: 0xA8E90, symSize: 0x1B0 }
  - { offset: 0x46639F, size: 0x8, addend: 0x0, symName: __ZNSt3__114__split_bufferINS_4pairIP12ggml_contextNS_13unordered_mapIjP19ggml_backend_bufferNS_4hashIjEENS_8equal_toIjEENS_9allocatorINS1_IKjS6_EEEEEEEERNSB_ISG_EEED1Ev, symObjAddr: 0x48420, symBinAddr: 0xA9040, symSize: 0x90 }
  - { offset: 0x46687D, size: 0x8, addend: 0x0, symName: __ZNK11llama_model4descEv, symObjAddr: 0x350D0, symBinAddr: 0x9E880, symSize: 0x50 }
  - { offset: 0x4668A1, size: 0x8, addend: 0x0, symName: __ZNK11llama_model4descEv, symObjAddr: 0x350D0, symBinAddr: 0x9E880, symSize: 0x50 }
  - { offset: 0x466AA5, size: 0x8, addend: 0x0, symName: __ZNK11llama_model4sizeEv, symObjAddr: 0x35120, symBinAddr: 0x9E8D0, symSize: 0x20 }
  - { offset: 0x466B00, size: 0x8, addend: 0x0, symName: __ZNK11llama_model9n_tensorsEv, symObjAddr: 0x35140, symBinAddr: 0x9E8F0, symSize: 0x20 }
  - { offset: 0x466B48, size: 0x8, addend: 0x0, symName: __ZNK11llama_model10n_elementsEv, symObjAddr: 0x35160, symBinAddr: 0x9E910, symSize: 0x10 }
  - { offset: 0x467FFF, size: 0x8, addend: 0x0, symName: '__ZZNK11llama_model10print_infoEvENK3$_0clERKNSt3__18functionIFjjEEEj', symObjAddr: 0x36190, symBinAddr: 0x9F940, symSize: 0x330 }
  - { offset: 0x469161, size: 0x8, addend: 0x0, symName: __ZNK11llama_model9dev_layerEi, symObjAddr: 0x364C0, symBinAddr: 0x9FC70, symSize: 0x40 }
  - { offset: 0x46919D, size: 0x8, addend: 0x0, symName: __ZNK11llama_model9dev_layerEi, symObjAddr: 0x364C0, symBinAddr: 0x9FC70, symSize: 0x40 }
  - { offset: 0x4691FE, size: 0x8, addend: 0x0, symName: __ZNK11llama_model10dev_outputEv, symObjAddr: 0x36500, symBinAddr: 0x9FCB0, symSize: 0x20 }
  - { offset: 0x4692C7, size: 0x8, addend: 0x0, symName: __ZNK11llama_model11select_buftEi, symObjAddr: 0x36520, symBinAddr: 0x9FCD0, symSize: 0x310 }
  - { offset: 0x469DC9, size: 0x8, addend: 0x0, symName: __ZNK11llama_model20has_tensor_overridesEv, symObjAddr: 0x36830, symBinAddr: 0x9FFE0, symSize: 0x20 }
  - { offset: 0x469E46, size: 0x8, addend: 0x0, symName: __ZNK11llama_model10get_tensorEPKc, symObjAddr: 0x36850, symBinAddr: 0xA0000, symSize: 0xC0 }
  - { offset: 0x46A15A, size: 0x8, addend: 0x0, symName: __ZNK11llama_model18get_rope_freq_baseERK13llama_cparamsi, symObjAddr: 0x36910, symBinAddr: 0xA00C0, symSize: 0x40 }
  - { offset: 0x46A18E, size: 0x8, addend: 0x0, symName: __ZNK11llama_model19get_rope_freq_scaleERK13llama_cparamsi, symObjAddr: 0x36950, symBinAddr: 0xA0100, symSize: 0x40 }
  - { offset: 0x46A1E6, size: 0x8, addend: 0x0, symName: __ZNK11llama_model16get_rope_factorsERK13llama_cparamsi, symObjAddr: 0x36990, symBinAddr: 0xA0140, symSize: 0x60 }
  - { offset: 0x46A8EA, size: 0x8, addend: 0x0, symName: __ZNK11llama_model11build_graphERK16llm_graph_params, symObjAddr: 0x36FB0, symBinAddr: 0xA0760, symSize: 0x820 }
  - { offset: 0x46B3BE, size: 0x8, addend: 0x0, symName: __ZN14llm_build_bertC2ERK11llama_modelRK16llm_graph_params, symObjAddr: 0x4D5A0, symBinAddr: 0xAE1A0, symSize: 0x9A0 }
  - { offset: 0x46BA93, size: 0x8, addend: 0x0, symName: __ZN17llm_build_graniteC2ERK11llama_modelRK16llm_graph_params, symObjAddr: 0x6B720, symBinAddr: 0xCC240, symSize: 0x360 }
  - { offset: 0x46BCDB, size: 0x8, addend: 0x0, symName: __ZN15llm_build_mambaC2ERK11llama_modelRK16llm_graph_params, symObjAddr: 0x5BF60, symBinAddr: 0xBCA80, symSize: 0x230 }
  - { offset: 0x46BFD9, size: 0x8, addend: 0x0, symName: __ZN15llm_build_llamaC2ERK11llama_modelRK16llm_graph_params, symObjAddr: 0x49BE0, symBinAddr: 0xAA7E0, symSize: 0x820 }
  - { offset: 0x46C579, size: 0x8, addend: 0x0, symName: __ZN20llm_build_llama_iswaC2ERK11llama_modelRK16llm_graph_params, symObjAddr: 0x4A420, symBinAddr: 0xAB020, symSize: 0xA10 }
  - { offset: 0x46CC19, size: 0x8, addend: 0x0, symName: __ZN14llm_build_deciC2ERK11llama_modelRK16llm_graph_params, symObjAddr: 0x4AE50, symBinAddr: 0xABA50, symSize: 0x830 }
  - { offset: 0x46D20E, size: 0x8, addend: 0x0, symName: __ZN18llm_build_baichuanC2ERK11llama_modelRK16llm_graph_params, symObjAddr: 0x4B6A0, symBinAddr: 0xAC2A0, symSize: 0x620 }
  - { offset: 0x46D6CF, size: 0x8, addend: 0x0, symName: __ZN16llm_build_falconC2ERK11llama_modelRK16llm_graph_params, symObjAddr: 0x4BCE0, symBinAddr: 0xAC8E0, symSize: 0x5F0 }
  - { offset: 0x46DBA8, size: 0x8, addend: 0x0, symName: __ZN14llm_build_grokC2ERK11llama_modelRK16llm_graph_params, symObjAddr: 0x4C2F0, symBinAddr: 0xACEF0, symSize: 0x7A0 }
  - { offset: 0x46E17E, size: 0x8, addend: 0x0, symName: __ZN19llm_build_starcoderC2ERK11llama_modelRK16llm_graph_params, symObjAddr: 0x4CAB0, symBinAddr: 0xAD6B0, symSize: 0x5E0 }
  - { offset: 0x46E6CA, size: 0x8, addend: 0x0, symName: __ZN16llm_build_refactC2ERK11llama_modelRK16llm_graph_params, symObjAddr: 0x4D0B0, symBinAddr: 0xADCB0, symSize: 0x4D0 }
  - { offset: 0x46EB41, size: 0x8, addend: 0x0, symName: __ZN18llm_build_neo_bertC2ERK11llama_modelRK16llm_graph_params, symObjAddr: 0x4DF60, symBinAddr: 0xAEB60, symSize: 0x560 }
  - { offset: 0x46EFF3, size: 0x8, addend: 0x0, symName: __ZN15llm_build_bloomC2ERK11llama_modelRK16llm_graph_params, symObjAddr: 0x4E4E0, symBinAddr: 0xAF0E0, symSize: 0x5B0 }
  - { offset: 0x46F4DE, size: 0x8, addend: 0x0, symName: __ZN13llm_build_mptC2ERK11llama_modelRK16llm_graph_params, symObjAddr: 0x4EAB0, symBinAddr: 0xAF6B0, symSize: 0x720 }
  - { offset: 0x46FA98, size: 0x8, addend: 0x0, symName: __ZN18llm_build_stablelmC2ERK11llama_modelRK16llm_graph_params, symObjAddr: 0x4F1F0, symBinAddr: 0xAFDF0, symSize: 0x770 }
  - { offset: 0x47001F, size: 0x8, addend: 0x0, symName: __ZN14llm_build_qwenC2ERK11llama_modelRK16llm_graph_params, symObjAddr: 0x4F980, symBinAddr: 0xB0580, symSize: 0x5D0 }
  - { offset: 0x4704F2, size: 0x8, addend: 0x0, symName: __ZN15llm_build_qwen2C2ERK11llama_modelRK16llm_graph_params, symObjAddr: 0x4FF70, symBinAddr: 0xB0B70, symSize: 0x640 }
  - { offset: 0x470A8B, size: 0x8, addend: 0x0, symName: __ZN15llm_build_dreamC2ERK11llama_modelRK16llm_graph_params, symObjAddr: 0x505D0, symBinAddr: 0xB11D0, symSize: 0x620 }
  - { offset: 0x471016, size: 0x8, addend: 0x0, symName: __ZN15llm_build_lladaC2ERK11llama_modelRK16llm_graph_params, symObjAddr: 0x50C10, symBinAddr: 0xB1810, symSize: 0x5D0 }
  - { offset: 0x4714D1, size: 0x8, addend: 0x0, symName: __ZN17llm_build_qwen2vlC2ERK11llama_modelRK16llm_graph_params, symObjAddr: 0x51200, symBinAddr: 0xB1E00, symSize: 0x750 }
  - { offset: 0x471BA6, size: 0x8, addend: 0x0, symName: __ZN18llm_build_qwen2moeC2ERK11llama_modelRK16llm_graph_params, symObjAddr: 0x51970, symBinAddr: 0xB2570, symSize: 0x800 }
  - { offset: 0x472200, size: 0x8, addend: 0x0, symName: __ZN15llm_build_qwen3C2ERK11llama_modelRK16llm_graph_params, symObjAddr: 0x52190, symBinAddr: 0xB2D90, symSize: 0x640 }
  - { offset: 0x4725AB, size: 0x8, addend: 0x0, symName: __ZN15llm_build_qwen3D1Ev, symObjAddr: 0x527D0, symBinAddr: 0xB33D0, symSize: 0x10 }
  - { offset: 0x47270D, size: 0x8, addend: 0x0, symName: __ZN18llm_build_qwen3moeC2ERK11llama_modelRK16llm_graph_params, symObjAddr: 0x527F0, symBinAddr: 0xB33F0, symSize: 0x660 }
  - { offset: 0x472C2A, size: 0x8, addend: 0x0, symName: __ZN14llm_build_phi2C2ERK11llama_modelRK16llm_graph_params, symObjAddr: 0x52E70, symBinAddr: 0xB3A70, symSize: 0x780 }
  - { offset: 0x47327C, size: 0x8, addend: 0x0, symName: __ZN14llm_build_phi3ILb1EEC2ERK11llama_modelRK16llm_graph_params, symObjAddr: 0x53610, symBinAddr: 0xB4210, symSize: 0x890 }
  - { offset: 0x4738EB, size: 0x8, addend: 0x0, symName: __ZN14llm_build_phi3ILb0EEC2ERK11llama_modelRK16llm_graph_params, symObjAddr: 0x53EC0, symBinAddr: 0xB4AC0, symSize: 0x890 }
  - { offset: 0x473F5A, size: 0x8, addend: 0x0, symName: __ZN15llm_build_plamoC2ERK11llama_modelRK16llm_graph_params, symObjAddr: 0x54770, symBinAddr: 0xB5370, symSize: 0x590 }
  - { offset: 0x474422, size: 0x8, addend: 0x0, symName: __ZN16llm_build_plamo2C2ERK11llama_modelRK16llm_graph_params, symObjAddr: 0x54D20, symBinAddr: 0xB5920, symSize: 0x3B0 }
  - { offset: 0x47489F, size: 0x8, addend: 0x0, symName: __ZN14llm_build_gpt2C2ERK11llama_modelRK16llm_graph_params, symObjAddr: 0x56680, symBinAddr: 0xB71A0, symSize: 0x630 }
  - { offset: 0x474DC3, size: 0x8, addend: 0x0, symName: __ZN19llm_build_codeshellC2ERK11llama_modelRK16llm_graph_params, symObjAddr: 0x56CD0, symBinAddr: 0xB77F0, symSize: 0x630 }
  - { offset: 0x4752B4, size: 0x8, addend: 0x0, symName: __ZN15llm_build_orionC2ERK11llama_modelRK16llm_graph_params, symObjAddr: 0x57320, symBinAddr: 0xB7E40, symSize: 0x5D0 }
  - { offset: 0x47577B, size: 0x8, addend: 0x0, symName: __ZN19llm_build_internlm2C2ERK11llama_modelRK16llm_graph_params, symObjAddr: 0x57910, symBinAddr: 0xB8430, symSize: 0x6A0 }
  - { offset: 0x475CC4, size: 0x8, addend: 0x0, symName: __ZN18llm_build_minicpm3C2ERK11llama_modelRK16llm_graph_params, symObjAddr: 0x57FD0, symBinAddr: 0xB8AF0, symSize: 0xAE0 }
  - { offset: 0x4765E3, size: 0x8, addend: 0x0, symName: __ZN15llm_build_gemmaC2ERK11llama_modelRK16llm_graph_params, symObjAddr: 0x58AD0, symBinAddr: 0xB95F0, symSize: 0x5D0 }
  - { offset: 0x476A9A, size: 0x8, addend: 0x0, symName: __ZN21llm_build_gemma2_iswaC2ERK11llama_modelRK16llm_graph_params, symObjAddr: 0x590C0, symBinAddr: 0xB9BE0, symSize: 0x660 }
  - { offset: 0x476FD7, size: 0x8, addend: 0x0, symName: __ZN21llm_build_gemma3_iswaC2ERK11llama_modelRK16llm_graph_params, symObjAddr: 0x59740, symBinAddr: 0xBA260, symSize: 0x730 }
  - { offset: 0x4775D5, size: 0x8, addend: 0x0, symName: __ZN22llm_build_gemma3n_iswaC2ERK11llama_modelRK16llm_graph_params, symObjAddr: 0x59E90, symBinAddr: 0xBA9B0, symSize: 0x1190 }
  - { offset: 0x478750, size: 0x8, addend: 0x0, symName: __ZN22llm_build_gemma3n_iswa24project_per_layer_inputsEP11ggml_tensorS1_, symObjAddr: 0x5B020, symBinAddr: 0xBBB40, symSize: 0x140 }
  - { offset: 0x4788B2, size: 0x8, addend: 0x0, symName: __ZN20llm_build_starcoder2C2ERK11llama_modelRK16llm_graph_params, symObjAddr: 0x5B8A0, symBinAddr: 0xBC3C0, symSize: 0x6A0 }
  - { offset: 0x478DFE, size: 0x8, addend: 0x0, symName: __ZN15llm_build_jambaC2ERK11llama_modelRK16llm_graph_params, symObjAddr: 0x5D9B0, symBinAddr: 0xBE4D0, symSize: 0x5B0 }
  - { offset: 0x47933E, size: 0x8, addend: 0x0, symName: __ZN16llm_build_xverseC2ERK11llama_modelRK16llm_graph_params, symObjAddr: 0x5DF80, symBinAddr: 0xBEAA0, symSize: 0x5D0 }
  - { offset: 0x479805, size: 0x8, addend: 0x0, symName: __ZN19llm_build_command_rC2ERK11llama_modelRK16llm_graph_params, symObjAddr: 0x5E570, symBinAddr: 0xBF090, symSize: 0x700 }
  - { offset: 0x479DAF, size: 0x8, addend: 0x0, symName: __ZN22llm_build_cohere2_iswaC2ERK11llama_modelRK16llm_graph_params, symObjAddr: 0x5EC90, symBinAddr: 0xBF7B0, symSize: 0x700 }
  - { offset: 0x47A34C, size: 0x8, addend: 0x0, symName: __ZN14llm_build_dbrxC2ERK11llama_modelRK16llm_graph_params, symObjAddr: 0x5F3B0, symBinAddr: 0xBFED0, symSize: 0x650 }
  - { offset: 0x47A826, size: 0x8, addend: 0x0, symName: __ZN14llm_build_olmoC2ERK11llama_modelRK16llm_graph_params, symObjAddr: 0x5FA20, symBinAddr: 0xC0540, symSize: 0x6A0 }
  - { offset: 0x47ACCA, size: 0x8, addend: 0x0, symName: __ZN15llm_build_olmo2C2ERK11llama_modelRK16llm_graph_params, symObjAddr: 0x600E0, symBinAddr: 0xC0C00, symSize: 0x670 }
  - { offset: 0x47B1D5, size: 0x8, addend: 0x0, symName: __ZN15llm_build_olmoeC2ERK11llama_modelRK16llm_graph_params, symObjAddr: 0x60770, symBinAddr: 0xC1290, symSize: 0x650 }
  - { offset: 0x47B6E2, size: 0x8, addend: 0x0, symName: __ZN17llm_build_openelmC2ERK11llama_modelRK16llm_graph_params, symObjAddr: 0x60DE0, symBinAddr: 0xC1900, symSize: 0x6B0 }
  - { offset: 0x47BC1A, size: 0x8, addend: 0x0, symName: __ZN17llm_build_gptneoxC2ERK11llama_modelRK16llm_graph_params, symObjAddr: 0x614B0, symBinAddr: 0xC1FD0, symSize: 0x730 }
  - { offset: 0x47C03B, size: 0x8, addend: 0x0, symName: __ZN17llm_build_gptneoxD1Ev, symObjAddr: 0x61BE0, symBinAddr: 0xC2700, symSize: 0x10 }
  - { offset: 0x47C19D, size: 0x8, addend: 0x0, symName: __ZN16llm_build_arcticC2ERK11llama_modelRK16llm_graph_params, symObjAddr: 0x61C00, symBinAddr: 0xC2720, symSize: 0x6D0 }
  - { offset: 0x47C6E2, size: 0x8, addend: 0x0, symName: __ZN18llm_build_deepseekC2ERK11llama_modelRK16llm_graph_params, symObjAddr: 0x622F0, symBinAddr: 0xC2E10, symSize: 0x860 }
  - { offset: 0x47CCF4, size: 0x8, addend: 0x0, symName: __ZN19llm_build_deepseek2C2ERK11llama_modelRK16llm_graph_params, symObjAddr: 0x62B70, symBinAddr: 0xC3690, symSize: 0xDE0 }
  - { offset: 0x47D813, size: 0x8, addend: 0x0, symName: __ZN17llm_build_chatglmC2ERK11llama_modelRK16llm_graph_params, symObjAddr: 0x63970, symBinAddr: 0xC4490, symSize: 0x730 }
  - { offset: 0x47DE20, size: 0x8, addend: 0x0, symName: __ZN14llm_build_glm4C2ERK11llama_modelRK16llm_graph_params, symObjAddr: 0x640C0, symBinAddr: 0xC4BE0, symSize: 0x790 }
  - { offset: 0x47E481, size: 0x8, addend: 0x0, symName: __ZN18llm_build_glm4_moeC2ERK11llama_modelRK16llm_graph_params, symObjAddr: 0x64870, symBinAddr: 0xC5390, symSize: 0x800 }
  - { offset: 0x47EA96, size: 0x8, addend: 0x0, symName: __ZN16llm_build_bitnetC2ERK11llama_modelRK16llm_graph_params, symObjAddr: 0x65090, symBinAddr: 0xC5BB0, symSize: 0x820 }
  - { offset: 0x47F05B, size: 0x8, addend: 0x0, symName: __ZN16llm_build_bitnetD1Ev, symObjAddr: 0x658B0, symBinAddr: 0xC63D0, symSize: 0x10 }
  - { offset: 0x47F1BD, size: 0x8, addend: 0x0, symName: __ZN16llm_build_t5_encC2ERK11llama_modelRK16llm_graph_params, symObjAddr: 0x658D0, symBinAddr: 0xC63F0, symSize: 0x4C0 }
  - { offset: 0x47F69B, size: 0x8, addend: 0x0, symName: __ZN16llm_build_t5_decC2ERK11llama_modelRK16llm_graph_params, symObjAddr: 0x65DB0, symBinAddr: 0xC68D0, symSize: 0x700 }
  - { offset: 0x47FD1D, size: 0x8, addend: 0x0, symName: __ZN14llm_build_jaisC2ERK11llama_modelRK16llm_graph_params, symObjAddr: 0x664D0, symBinAddr: 0xC6FF0, symSize: 0x590 }
  - { offset: 0x4801FC, size: 0x8, addend: 0x0, symName: __ZN18llm_build_nemotronC2ERK11llama_modelRK16llm_graph_params, symObjAddr: 0x66A80, symBinAddr: 0xC75A0, symSize: 0x680 }
  - { offset: 0x480731, size: 0x8, addend: 0x0, symName: __ZN16llm_build_exaoneC2ERK11llama_modelRK16llm_graph_params, symObjAddr: 0x67120, symBinAddr: 0xC7C40, symSize: 0x720 }
  - { offset: 0x480CC1, size: 0x8, addend: 0x0, symName: __ZN17llm_build_exaone4ILb1EEC2ERK11llama_modelRK16llm_graph_params, symObjAddr: 0x67860, symBinAddr: 0xC8380, symSize: 0x710 }
  - { offset: 0x48124C, size: 0x8, addend: 0x0, symName: __ZN17llm_build_exaone4ILb0EEC2ERK11llama_modelRK16llm_graph_params, symObjAddr: 0x67F90, symBinAddr: 0xC8AB0, symSize: 0x710 }
  - { offset: 0x4817D7, size: 0x8, addend: 0x0, symName: __ZN15llm_build_rwkv6C2ERK11llama_modelRK16llm_graph_params, symObjAddr: 0x686C0, symBinAddr: 0xC91E0, symSize: 0x6B0 }
  - { offset: 0x481E4C, size: 0x8, addend: 0x0, symName: __ZN20llm_build_rwkv6qwen2C2ERK11llama_modelRK16llm_graph_params, symObjAddr: 0x69BE0, symBinAddr: 0xCA700, symSize: 0x4C0 }
  - { offset: 0x482334, size: 0x8, addend: 0x0, symName: __ZN15llm_build_rwkv7C2ERK11llama_modelRK16llm_graph_params, symObjAddr: 0x6A0C0, symBinAddr: 0xCABE0, symSize: 0x690 }
  - { offset: 0x4828B4, size: 0x8, addend: 0x0, symName: __ZNK20llm_build_rwkv7_base20build_rwkv7_time_mixEP18llm_graph_input_rsP11ggml_tensorS3_RS3_RK12llama_ubatchi, symObjAddr: 0x6A750, symBinAddr: 0xCB270, symSize: 0xAB0 }
  - { offset: 0x482A16, size: 0x8, addend: 0x0, symName: __ZN16llm_build_arwkv7C2ERK11llama_modelRK16llm_graph_params, symObjAddr: 0x6B220, symBinAddr: 0xCBD40, symSize: 0x4E0 }
  - { offset: 0x482EFC, size: 0x8, addend: 0x0, symName: __ZN24llm_build_granite_hybridC2ERK11llama_modelRK16llm_graph_params, symObjAddr: 0x6C220, symBinAddr: 0xCCD40, symSize: 0x2C0 }
  - { offset: 0x4832E3, size: 0x8, addend: 0x0, symName: __ZN19llm_build_chameleonC2ERK11llama_modelRK16llm_graph_params, symObjAddr: 0x6CC80, symBinAddr: 0xCD7A0, symSize: 0x8E0 }
  - { offset: 0x483A1A, size: 0x8, addend: 0x0, symName: __ZN26llm_build_wavtokenizer_decC2ERK11llama_modelRK16llm_graph_params, symObjAddr: 0x6D580, symBinAddr: 0xCE0A0, symSize: 0x650 }
  - { offset: 0x484040, size: 0x8, addend: 0x0, symName: __ZN13llm_build_plmC2ERK11llama_modelRK16llm_graph_params, symObjAddr: 0x6DBF0, symBinAddr: 0xCE710, symSize: 0x970 }
  - { offset: 0x484854, size: 0x8, addend: 0x0, symName: __ZN20llm_build_bailingmoeC2ERK11llama_modelRK16llm_graph_params, symObjAddr: 0x6E580, symBinAddr: 0xCF0A0, symSize: 0x760 }
  - { offset: 0x484E03, size: 0x8, addend: 0x0, symName: __ZN15llm_build_dots1C2ERK11llama_modelRK16llm_graph_params, symObjAddr: 0x6ED00, symBinAddr: 0xCF820, symSize: 0x780 }
  - { offset: 0x4853A1, size: 0x8, addend: 0x0, symName: __ZN15llm_build_arceeC2ERK11llama_modelRK16llm_graph_params, symObjAddr: 0x6F4A0, symBinAddr: 0xCFFC0, symSize: 0x750 }
  - { offset: 0x48594F, size: 0x8, addend: 0x0, symName: __ZN18llm_build_ernie4_5C2ERK11llama_modelRK16llm_graph_params, symObjAddr: 0x6FC10, symBinAddr: 0xD0730, symSize: 0x680 }
  - { offset: 0x485EAD, size: 0x8, addend: 0x0, symName: __ZN22llm_build_ernie4_5_moeC2ERK11llama_modelRK16llm_graph_params, symObjAddr: 0x702B0, symBinAddr: 0xD0DD0, symSize: 0x8B0 }
  - { offset: 0x486513, size: 0x8, addend: 0x0, symName: __ZN21llm_build_hunyuan_moeC2ERK11llama_modelRK16llm_graph_params, symObjAddr: 0x70B80, symBinAddr: 0xD16A0, symSize: 0x850 }
  - { offset: 0x486A2C, size: 0x8, addend: 0x0, symName: __ZN21llm_build_hunyuan_moeD1Ev, symObjAddr: 0x713D0, symBinAddr: 0xD1EF0, symSize: 0x10 }
  - { offset: 0x486B8F, size: 0x8, addend: 0x0, symName: __ZN23llm_build_hunyuan_denseC2ERK11llama_modelRK16llm_graph_params, symObjAddr: 0x713F0, symBinAddr: 0xD1F10, symSize: 0x7A0 }
  - { offset: 0x48704C, size: 0x8, addend: 0x0, symName: __ZN23llm_build_hunyuan_denseD1Ev, symObjAddr: 0x71B90, symBinAddr: 0xD26B0, symSize: 0x10 }
  - { offset: 0x4871AF, size: 0x8, addend: 0x0, symName: __ZN17llm_build_smollm3C2ERK11llama_modelRK16llm_graph_params, symObjAddr: 0x71BB0, symBinAddr: 0xD26D0, symSize: 0x730 }
  - { offset: 0x4875C3, size: 0x8, addend: 0x0, symName: __ZN17llm_build_smollm3D1Ev, symObjAddr: 0x722E0, symBinAddr: 0xD2E00, symSize: 0x10 }
  - { offset: 0x487726, size: 0x8, addend: 0x0, symName: __ZN25llm_build_openai_moe_iswaC2ERK11llama_modelRK16llm_graph_params, symObjAddr: 0x72300, symBinAddr: 0xD2E20, symSize: 0x690 }
  - { offset: 0x487C30, size: 0x8, addend: 0x0, symName: __ZN19llm_build_falcon_h1C2ERK11llama_modelRK16llm_graph_params, symObjAddr: 0x729B0, symBinAddr: 0xD34D0, symSize: 0x660 }
  - { offset: 0x488202, size: 0x8, addend: 0x0, symName: __ZN14llm_build_lfm2C2ERK11llama_modelRK16llm_graph_params, symObjAddr: 0x73030, symBinAddr: 0xD3B50, symSize: 0x270 }
  - { offset: 0x488594, size: 0x8, addend: 0x0, symName: __ZN22llm_build_smallthinkerILb1EEC2ERK11llama_modelRK16llm_graph_params, symObjAddr: 0x73E30, symBinAddr: 0xD4950, symSize: 0x640 }
  - { offset: 0x488AD7, size: 0x8, addend: 0x0, symName: __ZN22llm_build_smallthinkerILb0EEC2ERK11llama_modelRK16llm_graph_params, symObjAddr: 0x74490, symBinAddr: 0xD4FB0, symSize: 0x640 }
  - { offset: 0x488ECB, size: 0x8, addend: 0x0, symName: _llama_model_default_params, symObjAddr: 0x395D0, symBinAddr: 0xA2D80, symSize: 0x40 }
  - { offset: 0x488EF7, size: 0x8, addend: 0x0, symName: _llama_model_get_vocab, symObjAddr: 0x39610, symBinAddr: 0xA2DC0, symSize: 0x10 }
  - { offset: 0x488F56, size: 0x8, addend: 0x0, symName: _llama_free_model, symObjAddr: 0x39620, symBinAddr: 0xA2DD0, symSize: 0x30 }
  - { offset: 0x488F80, size: 0x8, addend: 0x0, symName: _llama_free_model, symObjAddr: 0x39620, symBinAddr: 0xA2DD0, symSize: 0x30 }
  - { offset: 0x488FC8, size: 0x8, addend: 0x0, symName: _llama_model_free, symObjAddr: 0x39650, symBinAddr: 0xA2E00, symSize: 0x30 }
  - { offset: 0x489011, size: 0x8, addend: 0x0, symName: _llama_model_n_ctx_train, symObjAddr: 0x39680, symBinAddr: 0xA2E30, symSize: 0x10 }
  - { offset: 0x48902D, size: 0x8, addend: 0x0, symName: _llama_model_n_embd, symObjAddr: 0x39690, symBinAddr: 0xA2E40, symSize: 0x10 }
  - { offset: 0x489049, size: 0x8, addend: 0x0, symName: _llama_model_n_layer, symObjAddr: 0x396A0, symBinAddr: 0xA2E50, symSize: 0x10 }
  - { offset: 0x489065, size: 0x8, addend: 0x0, symName: _llama_model_n_head, symObjAddr: 0x396B0, symBinAddr: 0xA2E60, symSize: 0x10 }
  - { offset: 0x489083, size: 0x8, addend: 0x0, symName: _llama_model_n_head_kv, symObjAddr: 0x396C0, symBinAddr: 0xA2E70, symSize: 0x10 }
  - { offset: 0x4890AF, size: 0x8, addend: 0x0, symName: _llama_model_n_swa, symObjAddr: 0x396D0, symBinAddr: 0xA2E80, symSize: 0x10 }
  - { offset: 0x4890DA, size: 0x8, addend: 0x0, symName: _llama_model_n_cls_out, symObjAddr: 0x396E0, symBinAddr: 0xA2E90, symSize: 0x10 }
  - { offset: 0x489129, size: 0x8, addend: 0x0, symName: _llama_model_cls_label, symObjAddr: 0x396F0, symBinAddr: 0xA2EA0, symSize: 0x50 }
  - { offset: 0x48925B, size: 0x8, addend: 0x0, symName: _llama_n_ctx_train, symObjAddr: 0x39740, symBinAddr: 0xA2EF0, symSize: 0x10 }
  - { offset: 0x4892BE, size: 0x8, addend: 0x0, symName: _llama_n_embd, symObjAddr: 0x39750, symBinAddr: 0xA2F00, symSize: 0x10 }
  - { offset: 0x489321, size: 0x8, addend: 0x0, symName: _llama_n_layer, symObjAddr: 0x39760, symBinAddr: 0xA2F10, symSize: 0x10 }
  - { offset: 0x489384, size: 0x8, addend: 0x0, symName: _llama_n_head, symObjAddr: 0x39770, symBinAddr: 0xA2F20, symSize: 0x10 }
  - { offset: 0x4893CF, size: 0x8, addend: 0x0, symName: _llama_model_rope_freq_scale_train, symObjAddr: 0x39780, symBinAddr: 0xA2F30, symSize: 0x10 }
  - { offset: 0x48942B, size: 0x8, addend: 0x0, symName: _llama_model_meta_val_str, symObjAddr: 0x39790, symBinAddr: 0xA2F40, symSize: 0x140 }
  - { offset: 0x489ADE, size: 0x8, addend: 0x0, symName: __ZNKSt3__112__hash_tableINS_17__hash_value_typeINS_12basic_stringIcNS_11char_traitsIcEENS_9allocatorIcEEEES7_EENS_22__unordered_map_hasherIS7_S8_NS_4hashIS7_EENS_8equal_toIS7_EELb1EEENS_21__unordered_map_equalIS7_S8_SD_SB_Lb1EEENS5_IS8_EEE4findIS7_EENS_21__hash_const_iteratorIPNS_11__hash_nodeIS8_PvEEEERKT_, symObjAddr: 0x74AF0, symBinAddr: 0xD5610, symSize: 0x289 }
  - { offset: 0x489E2B, size: 0x8, addend: 0x0, symName: _llama_model_meta_count, symObjAddr: 0x398D0, symBinAddr: 0xA3080, symSize: 0x10 }
  - { offset: 0x489EFA, size: 0x8, addend: 0x0, symName: _llama_model_meta_key_by_index, symObjAddr: 0x398E0, symBinAddr: 0xA3090, symSize: 0xB0 }
  - { offset: 0x48A0AD, size: 0x8, addend: 0x0, symName: _llama_model_meta_val_str_by_index, symObjAddr: 0x39990, symBinAddr: 0xA3140, symSize: 0xB0 }
  - { offset: 0x48A279, size: 0x8, addend: 0x0, symName: _llama_model_desc, symObjAddr: 0x39A40, symBinAddr: 0xA31F0, symSize: 0x90 }
  - { offset: 0x48A538, size: 0x8, addend: 0x0, symName: _llama_model_size, symObjAddr: 0x39AD0, symBinAddr: 0xA3280, symSize: 0x20 }
  - { offset: 0x48A5A0, size: 0x8, addend: 0x0, symName: _llama_model_chat_template, symObjAddr: 0x39AF0, symBinAddr: 0xA32A0, symSize: 0x100 }
  - { offset: 0x48A983, size: 0x8, addend: 0x0, symName: _llama_model_n_params, symObjAddr: 0x39BF0, symBinAddr: 0xA33A0, symSize: 0x10 }
  - { offset: 0x48A9EB, size: 0x8, addend: 0x0, symName: _llama_model_has_encoder, symObjAddr: 0x39C00, symBinAddr: 0xA33B0, symSize: 0x20 }
  - { offset: 0x48AA16, size: 0x8, addend: 0x0, symName: _llama_model_has_decoder, symObjAddr: 0x39C20, symBinAddr: 0xA33D0, symSize: 0x10 }
  - { offset: 0x48AA41, size: 0x8, addend: 0x0, symName: _llama_model_decoder_start_token, symObjAddr: 0x39C30, symBinAddr: 0xA33E0, symSize: 0x10 }
  - { offset: 0x48AA6C, size: 0x8, addend: 0x0, symName: _llama_model_is_recurrent, symObjAddr: 0x39C40, symBinAddr: 0xA33F0, symSize: 0x10 }
  - { offset: 0x48AAA6, size: 0x8, addend: 0x0, symName: _llama_model_is_diffusion, symObjAddr: 0x39C50, symBinAddr: 0xA3400, symSize: 0x10 }
  - { offset: 0x48AAF6, size: 0x8, addend: 0x0, symName: __Z29llama_internal_get_tensor_mapPK11llama_model, symObjAddr: 0x39C60, symBinAddr: 0xA3410, symSize: 0x10 }
  - { offset: 0x48B192, size: 0x8, addend: 0x0, symName: __ZNSt3__111basic_regexIcNS_12regex_traitsIcEEE7__parseIPKcEET_S7_S7_, symObjAddr: 0x3A790, symBinAddr: 0xA3D60, symSize: 0x340 }
  - { offset: 0x48C229, size: 0x8, addend: 0x0, symName: __ZNSt3__111basic_regexIcNS_12regex_traitsIcEEE13__parse_egrepIPKcEET_S7_S7_, symObjAddr: 0x3B1E0, symBinAddr: 0xA4760, symSize: 0x1E0 }
  - { offset: 0x48C7BE, size: 0x8, addend: 0x0, symName: __ZNSt3__111basic_regexIcNS_12regex_traitsIcEEE24__parse_extended_reg_expIPKcEET_S7_S7_, symObjAddr: 0x3AE70, symBinAddr: 0xA43F0, symSize: 0x190 }
  - { offset: 0x48CB3C, size: 0x8, addend: 0x0, symName: __ZNSt3__111basic_regexIcNS_12regex_traitsIcEEE21__parse_basic_reg_expIPKcEET_S7_S7_, symObjAddr: 0x3AD10, symBinAddr: 0xA4290, symSize: 0x160 }
  - { offset: 0x48CE5E, size: 0x8, addend: 0x0, symName: __ZNSt3__111basic_regexIcNS_12regex_traitsIcEEE12__parse_grepIPKcEET_S7_S7_, symObjAddr: 0x3B000, symBinAddr: 0xA4580, symSize: 0x1E0 }
  - { offset: 0x48D3F3, size: 0x8, addend: 0x0, symName: __ZNSt3__111basic_regexIcNS_12regex_traitsIcEEE19__parse_alternativeIPKcEET_S7_S7_, symObjAddr: 0x3B5E0, symBinAddr: 0xA4940, symSize: 0x90 }
  - { offset: 0x48D534, size: 0x8, addend: 0x0, symName: __ZNSt3__111basic_regexIcNS_12regex_traitsIcEEE16__parse_ecma_expIPKcEET_S7_S7_, symObjAddr: 0x3AB20, symBinAddr: 0xA40A0, symSize: 0x1F0 }
  - { offset: 0x48D9A0, size: 0x8, addend: 0x0, symName: __ZNSt3__111basic_regexIcNS_12regex_traitsIcEEE12__parse_termIPKcEET_S7_S7_, symObjAddr: 0x3B670, symBinAddr: 0xA49D0, symSize: 0x80 }
  - { offset: 0x48DC32, size: 0x8, addend: 0x0, symName: __ZNSt3__111basic_regexIcNS_12regex_traitsIcEEE18__parse_nondupl_REIPKcEET_S7_S7_, symObjAddr: 0x42AB0, symBinAddr: 0xA6EA0, symSize: 0x1F0 }
  - { offset: 0x48E176, size: 0x8, addend: 0x0, symName: __ZNSt3__111basic_regexIcNS_12regex_traitsIcEEE22__parse_RE_dupl_symbolIPKcEET_S7_S7_PNS_16__owns_one_stateIcEEjj, symObjAddr: 0x42CA0, symBinAddr: 0xA7090, symSize: 0x260 }
  - { offset: 0x48E7A6, size: 0x8, addend: 0x0, symName: __ZNSt3__111basic_regexIcNS_12regex_traitsIcEEE22__parse_ERE_expressionIPKcEET_S7_S7_, symObjAddr: 0x430E0, symBinAddr: 0xA73D0, symSize: 0x260 }
  - { offset: 0x48ECF9, size: 0x8, addend: 0x0, symName: __ZNSt3__111basic_regexIcNS_12regex_traitsIcEEE23__parse_ERE_dupl_symbolIPKcEET_S7_S7_PNS_16__owns_one_stateIcEEjj, symObjAddr: 0x3BC90, symBinAddr: 0xA4FF0, symSize: 0x3F0 }
  - { offset: 0x48F24C, size: 0x8, addend: 0x0, symName: __ZNSt3__111basic_regexIcNS_12regex_traitsIcEEE17__parse_assertionIPKcEET_S7_S7_, symObjAddr: 0x3B6F0, symBinAddr: 0xA4A50, symSize: 0x2E0 }
  - { offset: 0x48F80B, size: 0x8, addend: 0x0, symName: __ZNSt3__111basic_regexIcNS_12regex_traitsIcEEE12__parse_atomIPKcEET_S7_S7_, symObjAddr: 0x3B9D0, symBinAddr: 0xA4D30, symSize: 0x2C0 }
  - { offset: 0x490003, size: 0x8, addend: 0x0, symName: __ZNSt3__111basic_regexIcNS_12regex_traitsIcEEE19__parse_atom_escapeIPKcEET_S7_S7_, symObjAddr: 0x3D8D0, symBinAddr: 0xA53E0, symSize: 0x100 }
  - { offset: 0x49018C, size: 0x8, addend: 0x0, symName: __ZNSt3__111basic_regexIcNS_12regex_traitsIcEEE26__parse_bracket_expressionIPKcEET_S7_S7_, symObjAddr: 0x3D9D0, symBinAddr: 0xA54E0, symSize: 0x140 }
  - { offset: 0x490395, size: 0x8, addend: 0x0, symName: __ZNSt3__111basic_regexIcNS_12regex_traitsIcEEE25__parse_pattern_characterIPKcEET_S7_S7_, symObjAddr: 0x3DB60, symBinAddr: 0xA5620, symSize: 0x1B0 }
  - { offset: 0x49496F, size: 0x8, addend: 0x0, symName: __ZNSt3__111basic_regexIcNS_12regex_traitsIcEEE30__parse_character_class_escapeIPKcEET_S7_S7_, symObjAddr: 0x3DDD0, symBinAddr: 0xA57D0, symSize: 0x2E0 }
  - { offset: 0x494EDB, size: 0x8, addend: 0x0, symName: __ZNSt3__111basic_regexIcNS_12regex_traitsIcEEE24__parse_character_escapeIPKcEET_S7_S7_PNS_12basic_stringIcNS_11char_traitsIcEENS_9allocatorIcEEEE, symObjAddr: 0x3E0B0, symBinAddr: 0xA5AB0, symSize: 0x410 }
  - { offset: 0x495A00, size: 0x8, addend: 0x0, symName: __ZNSt3__111basic_regexIcNS_12regex_traitsIcEEE23__parse_expression_termIPKcEET_S7_S7_PNS_20__bracket_expressionIcS2_EE, symObjAddr: 0x401E0, symBinAddr: 0xA5EC0, symSize: 0x500 }
  - { offset: 0x497F85, size: 0x8, addend: 0x0, symName: __ZNSt3__111basic_regexIcNS_12regex_traitsIcEEE25__parse_equivalence_classIPKcEET_S7_S7_PNS_20__bracket_expressionIcS2_EE, symObjAddr: 0x406E0, symBinAddr: 0xA63C0, symSize: 0x250 }
  - { offset: 0x498ABD, size: 0x8, addend: 0x0, symName: __ZNSt3__111basic_regexIcNS_12regex_traitsIcEEE18__parse_awk_escapeIPKcEET_S7_S7_PNS_12basic_stringIcNS_11char_traitsIcEENS_9allocatorIcEEEE, symObjAddr: 0x40BA0, symBinAddr: 0xA6880, symSize: 0x2E0 }
  - { offset: 0x498B5D, size: 0x8, addend: 0x0, symName: __ZNKSt3__112regex_traitsIcE20__lookup_collatenameIPKcEENS_12basic_stringIcNS_11char_traitsIcEENS_9allocatorIcEEEET_SB_c, symObjAddr: 0x41720, symBinAddr: 0xA6B60, symSize: 0x220 }
  - { offset: 0x4997C9, size: 0x8, addend: 0x0, symName: __ZNKSt3__112regex_traitsIcE18__lookup_classnameIPKcEEjT_S5_bc, symObjAddr: 0x41D00, symBinAddr: 0xA6D80, symSize: 0x120 }
  - { offset: 0x499F21, size: 0x8, addend: 0x0, symName: __ZNSt3__111basic_regexIcNS_12regex_traitsIcEEE24__parse_collating_symbolIPKcEET_S7_S7_RNS_12basic_stringIcNS_11char_traitsIcEENS_9allocatorIcEEEE, symObjAddr: 0x40930, symBinAddr: 0xA6610, symSize: 0xD0 }
  - { offset: 0x49A2C7, size: 0x8, addend: 0x0, symName: __ZNSt3__111basic_regexIcNS_12regex_traitsIcEEE20__parse_class_escapeIPKcEET_S7_S7_RNS_12basic_stringIcNS_11char_traitsIcEENS_9allocatorIcEEEEPNS_20__bracket_expressionIcS2_EE, symObjAddr: 0x40A00, symBinAddr: 0xA66E0, symSize: 0x1A0 }
  - { offset: 0x49DB15, size: 0x8, addend: 0x0, symName: __ZNSt3__111basic_regexIcNS_12regex_traitsIcEEE32__parse_one_char_or_coll_elem_REIPKcEET_S7_S7_, symObjAddr: 0x42F00, symBinAddr: 0xA72F0, symSize: 0xE0 }
  - { offset: 0x49DF7A, size: 0x8, addend: 0x0, symName: __ZNSt3__111basic_regexIcNS_12regex_traitsIcEEE20__parse_ORD_CHAR_EREIPKcEET_S7_S7_, symObjAddr: 0x43340, symBinAddr: 0xA7630, symSize: 0x1C0 }
  - { offset: 0x49DFD8, size: 0x8, addend: 0x0, symName: __ZNSt3__111basic_regexIcNS_12regex_traitsIcEEE23__parse_QUOTED_CHAR_EREIPKcEET_S7_S7_, symObjAddr: 0x43500, symBinAddr: 0xA77F0, symSize: 0x200 }
  - { offset: 0x4A48F4, size: 0x8, addend: 0x0, symName: __ZNSt3__13mapI23llama_rope_scaling_typePKcNS_4lessIS1_EENS_9allocatorINS_4pairIKS1_S3_EEEEEC2B8ne190102ESt16initializer_listIS9_ERKS5_, symObjAddr: 0x46810, symBinAddr: 0xA79F0, symSize: 0x170 }
  - { offset: 0x4A546C, size: 0x8, addend: 0x0, symName: __ZNSt3__16__treeINS_12__value_typeIP19ggml_backend_deviceNS_6vectorINS_4pairIS3_P24ggml_backend_buffer_typeEENS_9allocatorIS8_EEEEEENS_19__map_value_compareIS3_SC_NS_4lessIS3_EELb1EEENS9_ISC_EEE7destroyEPNS_11__tree_nodeISC_PvEE, symObjAddr: 0x46C00, symBinAddr: 0xA7DE0, symSize: 0x50 }
  - { offset: 0x4A5C92, size: 0x8, addend: 0x0, symName: __ZNSt3__14pairIKNS_12basic_stringIcNS_11char_traitsIcEENS_9allocatorIcEEEES6_EC2B8ne190102IRPKcRS7_Li0EEEOT_OT0_, symObjAddr: 0x46F70, symBinAddr: 0xA8120, symSize: 0x100 }
  - { offset: 0x4A67C9, size: 0x8, addend: 0x0, symName: __ZNSt3__112__hash_tableINS_17__hash_value_typeINS_12basic_stringIcNS_11char_traitsIcEENS_9allocatorIcEEEES7_EENS_22__unordered_map_hasherIS7_S8_NS_4hashIS7_EENS_8equal_toIS7_EELb1EEENS_21__unordered_map_equalIS7_S8_SD_SB_Lb1EEENS5_IS8_EEE20__node_insert_uniqueEPNS_11__hash_nodeIS8_PvEE, symObjAddr: 0x46D90, symBinAddr: 0xA7F40, symSize: 0x190 }
  - { offset: 0x4A6A35, size: 0x8, addend: 0x0, symName: __ZNSt3__110unique_ptrINS_11__hash_nodeINS_17__hash_value_typeINS_12basic_stringIcNS_11char_traitsIcEENS_9allocatorIcEEEES8_EEPvEENS_22__hash_node_destructorINS6_ISB_EEEEED1B8ne190102Ev, symObjAddr: 0x46F20, symBinAddr: 0xA80D0, symSize: 0x50 }
  - { offset: 0x4A6F0D, size: 0x8, addend: 0x0, symName: __ZNSt3__112__hash_tableINS_17__hash_value_typeINS_12basic_stringIcNS_11char_traitsIcEENS_9allocatorIcEEEES7_EENS_22__unordered_map_hasherIS7_S8_NS_4hashIS7_EENS_8equal_toIS7_EELb1EEENS_21__unordered_map_equalIS7_S8_SD_SB_Lb1EEENS5_IS8_EEE28__node_insert_unique_prepareB8ne190102EmRS8_, symObjAddr: 0x47520, symBinAddr: 0xA8220, symSize: 0x480 }
  - { offset: 0x4A75B9, size: 0x8, addend: 0x0, symName: __ZNSt3__112__hash_tableINS_17__hash_value_typeINS_12basic_stringIcNS_11char_traitsIcEENS_9allocatorIcEEEES7_EENS_22__unordered_map_hasherIS7_S8_NS_4hashIS7_EENS_8equal_toIS7_EELb1EEENS_21__unordered_map_equalIS7_S8_SD_SB_Lb1EEENS5_IS8_EEE11__do_rehashILb1EEEvm, symObjAddr: 0x479A0, symBinAddr: 0xA86A0, symSize: 0x230 }
  - { offset: 0x4A81B7, size: 0x8, addend: 0x0, symName: __ZNKSt3__16vectorIN11llama_model4impl9layer_devENS_9allocatorIS3_EEE20__throw_length_errorB8ne190102Ev, symObjAddr: 0x48030, symBinAddr: 0xA8CA0, symSize: 0x10 }
  - { offset: 0x4A8526, size: 0x8, addend: 0x0, symName: __ZNKSt3__16vectorI11llama_layerNS_9allocatorIS1_EEE20__throw_length_errorB8ne190102Ev, symObjAddr: 0x48240, symBinAddr: 0xA8E70, symSize: 0x10 }
  - { offset: 0x4A888C, size: 0x8, addend: 0x0, symName: __ZNSt3__112__hash_tableINS_17__hash_value_typeIjP19ggml_backend_bufferEENS_22__unordered_map_hasherIjS4_NS_4hashIjEENS_8equal_toIjEELb1EEENS_21__unordered_map_equalIjS4_S9_S7_Lb1EEENS_9allocatorIS4_EEED1Ev, symObjAddr: 0x484C0, symBinAddr: 0xA90D0, symSize: 0x50 }
  - { offset: 0x4A9203, size: 0x8, addend: 0x0, symName: __ZNSt3__112__hash_tableINS_17__hash_value_typeIjP19ggml_backend_bufferEENS_22__unordered_map_hasherIjS4_NS_4hashIjEENS_8equal_toIjEELb1EEENS_21__unordered_map_equalIjS4_S9_S7_Lb1EEENS_9allocatorIS4_EEE25__emplace_unique_key_argsIjJRKNS_4pairIKjS3_EEEEENSH_INS_15__hash_iteratorIPNS_11__hash_nodeIS4_PvEEEEbEERKT_DpOT0_, symObjAddr: 0x48EF0, symBinAddr: 0xA9AF0, symSize: 0x420 }
  - { offset: 0x4A9C11, size: 0x8, addend: 0x0, symName: __ZNKSt3__16vectorINS_4pairINS_12basic_stringIcNS_11char_traitsIcEENS_9allocatorIcEEEEP11ggml_tensorEENS5_ISA_EEE20__throw_length_errorB8ne190102Ev, symObjAddr: 0x49530, symBinAddr: 0xAA130, symSize: 0x10 }
  - { offset: 0x4A9C3B, size: 0x8, addend: 0x0, symName: '__ZNSt3__110__function6__funcIZNK11llama_model10print_infoEvE3$_1NS_9allocatorIS3_EEFjjEED1Ev', symObjAddr: 0x49540, symBinAddr: 0xAA140, symSize: 0x10 }
  - { offset: 0x4A9C46, size: 0x8, addend: 0x0, symName: __ZNSt3__114__split_bufferINS_4pairINS_12basic_stringIcNS_11char_traitsIcEENS_9allocatorIcEEEEP11ggml_tensorEERNS5_ISA_EEED1Ev, symObjAddr: 0x494D0, symBinAddr: 0xAA0D0, symSize: 0x60 }
  - { offset: 0x4A9F49, size: 0x8, addend: 0x0, symName: '__ZNSt3__110__function6__funcIZNK11llama_model10print_infoEvE3$_1NS_9allocatorIS3_EEFjjEED1Ev', symObjAddr: 0x49540, symBinAddr: 0xAA140, symSize: 0x10 }
  - { offset: 0x4A9F72, size: 0x8, addend: 0x0, symName: '__ZNSt3__110__function6__funcIZNK11llama_model10print_infoEvE3$_1NS_9allocatorIS3_EEFjjEED0Ev', symObjAddr: 0x49550, symBinAddr: 0xAA150, symSize: 0x10 }
  - { offset: 0x4AA175, size: 0x8, addend: 0x0, symName: '__ZNKSt3__110__function6__funcIZNK11llama_model10print_infoEvE3$_1NS_9allocatorIS3_EEFjjEE7__cloneEv', symObjAddr: 0x49560, symBinAddr: 0xAA160, symSize: 0x30 }
  - { offset: 0x4AA458, size: 0x8, addend: 0x0, symName: '__ZNKSt3__110__function6__funcIZNK11llama_model10print_infoEvE3$_1NS_9allocatorIS3_EEFjjEE7__cloneEPNS0_6__baseIS6_EE', symObjAddr: 0x49590, symBinAddr: 0xAA190, symSize: 0x20 }
  - { offset: 0x4AA55D, size: 0x8, addend: 0x0, symName: '__ZNSt3__110__function6__funcIZNK11llama_model10print_infoEvE3$_1NS_9allocatorIS3_EEFjjEE7destroyEv', symObjAddr: 0x495B0, symBinAddr: 0xAA1B0, symSize: 0x10 }
  - { offset: 0x4AA5AC, size: 0x8, addend: 0x0, symName: '__ZNSt3__110__function6__funcIZNK11llama_model10print_infoEvE3$_1NS_9allocatorIS3_EEFjjEE18destroy_deallocateEv', symObjAddr: 0x495C0, symBinAddr: 0xAA1C0, symSize: 0x10 }
  - { offset: 0x4AA6F8, size: 0x8, addend: 0x0, symName: '__ZNSt3__110__function6__funcIZNK11llama_model10print_infoEvE3$_1NS_9allocatorIS3_EEFjjEEclEOj', symObjAddr: 0x495D0, symBinAddr: 0xAA1D0, symSize: 0x20 }
  - { offset: 0x4AA78B, size: 0x8, addend: 0x0, symName: '__ZNKSt3__110__function6__funcIZNK11llama_model10print_infoEvE3$_1NS_9allocatorIS3_EEFjjEE6targetERKSt9type_info', symObjAddr: 0x495F0, symBinAddr: 0xAA1F0, symSize: 0x20 }
  - { offset: 0x4AA7FB, size: 0x8, addend: 0x0, symName: '__ZNKSt3__110__function6__funcIZNK11llama_model10print_infoEvE3$_1NS_9allocatorIS3_EEFjjEE11target_typeEv', symObjAddr: 0x49610, symBinAddr: 0xAA210, symSize: 0x10 }
  - { offset: 0x4AA81E, size: 0x8, addend: 0x0, symName: '__ZNSt3__110__function6__funcIZNK11llama_model10print_infoEvE3$_2NS_9allocatorIS3_EEFjjEED1Ev', symObjAddr: 0x49620, symBinAddr: 0xAA220, symSize: 0x10 }
  - { offset: 0x4AA847, size: 0x8, addend: 0x0, symName: '__ZNSt3__110__function6__funcIZNK11llama_model10print_infoEvE3$_2NS_9allocatorIS3_EEFjjEED0Ev', symObjAddr: 0x49630, symBinAddr: 0xAA230, symSize: 0x10 }
  - { offset: 0x4AAA4A, size: 0x8, addend: 0x0, symName: '__ZNKSt3__110__function6__funcIZNK11llama_model10print_infoEvE3$_2NS_9allocatorIS3_EEFjjEE7__cloneEv', symObjAddr: 0x49640, symBinAddr: 0xAA240, symSize: 0x30 }
  - { offset: 0x4AAD2D, size: 0x8, addend: 0x0, symName: '__ZNKSt3__110__function6__funcIZNK11llama_model10print_infoEvE3$_2NS_9allocatorIS3_EEFjjEE7__cloneEPNS0_6__baseIS6_EE', symObjAddr: 0x49670, symBinAddr: 0xAA270, symSize: 0x20 }
  - { offset: 0x4AAE32, size: 0x8, addend: 0x0, symName: '__ZNSt3__110__function6__funcIZNK11llama_model10print_infoEvE3$_2NS_9allocatorIS3_EEFjjEE7destroyEv', symObjAddr: 0x49690, symBinAddr: 0xAA290, symSize: 0x10 }
  - { offset: 0x4AAE81, size: 0x8, addend: 0x0, symName: '__ZNSt3__110__function6__funcIZNK11llama_model10print_infoEvE3$_2NS_9allocatorIS3_EEFjjEE18destroy_deallocateEv', symObjAddr: 0x496A0, symBinAddr: 0xAA2A0, symSize: 0x10 }
  - { offset: 0x4AAFCD, size: 0x8, addend: 0x0, symName: '__ZNSt3__110__function6__funcIZNK11llama_model10print_infoEvE3$_2NS_9allocatorIS3_EEFjjEEclEOj', symObjAddr: 0x496B0, symBinAddr: 0xAA2B0, symSize: 0x20 }
  - { offset: 0x4AB060, size: 0x8, addend: 0x0, symName: '__ZNKSt3__110__function6__funcIZNK11llama_model10print_infoEvE3$_2NS_9allocatorIS3_EEFjjEE6targetERKSt9type_info', symObjAddr: 0x496D0, symBinAddr: 0xAA2D0, symSize: 0x20 }
  - { offset: 0x4AB0D0, size: 0x8, addend: 0x0, symName: '__ZNKSt3__110__function6__funcIZNK11llama_model10print_infoEvE3$_2NS_9allocatorIS3_EEFjjEE11target_typeEv', symObjAddr: 0x496F0, symBinAddr: 0xAA2F0, symSize: 0x10 }
  - { offset: 0x4AB0F3, size: 0x8, addend: 0x0, symName: '__ZNSt3__110__function6__funcIZNK11llama_model10print_infoEvE3$_3NS_9allocatorIS3_EEFjjEED1Ev', symObjAddr: 0x49700, symBinAddr: 0xAA300, symSize: 0x10 }
  - { offset: 0x4AB11C, size: 0x8, addend: 0x0, symName: '__ZNSt3__110__function6__funcIZNK11llama_model10print_infoEvE3$_3NS_9allocatorIS3_EEFjjEED0Ev', symObjAddr: 0x49710, symBinAddr: 0xAA310, symSize: 0x10 }
  - { offset: 0x4AB31F, size: 0x8, addend: 0x0, symName: '__ZNKSt3__110__function6__funcIZNK11llama_model10print_infoEvE3$_3NS_9allocatorIS3_EEFjjEE7__cloneEv', symObjAddr: 0x49720, symBinAddr: 0xAA320, symSize: 0x30 }
  - { offset: 0x4AB602, size: 0x8, addend: 0x0, symName: '__ZNKSt3__110__function6__funcIZNK11llama_model10print_infoEvE3$_3NS_9allocatorIS3_EEFjjEE7__cloneEPNS0_6__baseIS6_EE', symObjAddr: 0x49750, symBinAddr: 0xAA350, symSize: 0x20 }
  - { offset: 0x4AB707, size: 0x8, addend: 0x0, symName: '__ZNSt3__110__function6__funcIZNK11llama_model10print_infoEvE3$_3NS_9allocatorIS3_EEFjjEE7destroyEv', symObjAddr: 0x49770, symBinAddr: 0xAA370, symSize: 0x10 }
  - { offset: 0x4AB756, size: 0x8, addend: 0x0, symName: '__ZNSt3__110__function6__funcIZNK11llama_model10print_infoEvE3$_3NS_9allocatorIS3_EEFjjEE18destroy_deallocateEv', symObjAddr: 0x49780, symBinAddr: 0xAA380, symSize: 0x10 }
  - { offset: 0x4AB8A2, size: 0x8, addend: 0x0, symName: '__ZNSt3__110__function6__funcIZNK11llama_model10print_infoEvE3$_3NS_9allocatorIS3_EEFjjEEclEOj', symObjAddr: 0x49790, symBinAddr: 0xAA390, symSize: 0x20 }
  - { offset: 0x4AB935, size: 0x8, addend: 0x0, symName: '__ZNKSt3__110__function6__funcIZNK11llama_model10print_infoEvE3$_3NS_9allocatorIS3_EEFjjEE6targetERKSt9type_info', symObjAddr: 0x497B0, symBinAddr: 0xAA3B0, symSize: 0x20 }
  - { offset: 0x4AB9A5, size: 0x8, addend: 0x0, symName: '__ZNKSt3__110__function6__funcIZNK11llama_model10print_infoEvE3$_3NS_9allocatorIS3_EEFjjEE11target_typeEv', symObjAddr: 0x497D0, symBinAddr: 0xAA3D0, symSize: 0x10 }
  - { offset: 0x4AB9C8, size: 0x8, addend: 0x0, symName: '__ZNSt3__110__function6__funcIZNK11llama_model10print_infoEvE3$_4NS_9allocatorIS3_EEFjjEED1Ev', symObjAddr: 0x497E0, symBinAddr: 0xAA3E0, symSize: 0x10 }
  - { offset: 0x4AB9F1, size: 0x8, addend: 0x0, symName: '__ZNSt3__110__function6__funcIZNK11llama_model10print_infoEvE3$_4NS_9allocatorIS3_EEFjjEED0Ev', symObjAddr: 0x497F0, symBinAddr: 0xAA3F0, symSize: 0x10 }
  - { offset: 0x4ABBF4, size: 0x8, addend: 0x0, symName: '__ZNKSt3__110__function6__funcIZNK11llama_model10print_infoEvE3$_4NS_9allocatorIS3_EEFjjEE7__cloneEv', symObjAddr: 0x49800, symBinAddr: 0xAA400, symSize: 0x30 }
  - { offset: 0x4ABED7, size: 0x8, addend: 0x0, symName: '__ZNKSt3__110__function6__funcIZNK11llama_model10print_infoEvE3$_4NS_9allocatorIS3_EEFjjEE7__cloneEPNS0_6__baseIS6_EE', symObjAddr: 0x49830, symBinAddr: 0xAA430, symSize: 0x20 }
  - { offset: 0x4ABFDC, size: 0x8, addend: 0x0, symName: '__ZNSt3__110__function6__funcIZNK11llama_model10print_infoEvE3$_4NS_9allocatorIS3_EEFjjEE7destroyEv', symObjAddr: 0x49850, symBinAddr: 0xAA450, symSize: 0x10 }
  - { offset: 0x4AC02B, size: 0x8, addend: 0x0, symName: '__ZNSt3__110__function6__funcIZNK11llama_model10print_infoEvE3$_4NS_9allocatorIS3_EEFjjEE18destroy_deallocateEv', symObjAddr: 0x49860, symBinAddr: 0xAA460, symSize: 0x10 }
  - { offset: 0x4AC177, size: 0x8, addend: 0x0, symName: '__ZNSt3__110__function6__funcIZNK11llama_model10print_infoEvE3$_4NS_9allocatorIS3_EEFjjEEclEOj', symObjAddr: 0x49870, symBinAddr: 0xAA470, symSize: 0x20 }
  - { offset: 0x4AC20A, size: 0x8, addend: 0x0, symName: '__ZNKSt3__110__function6__funcIZNK11llama_model10print_infoEvE3$_4NS_9allocatorIS3_EEFjjEE6targetERKSt9type_info', symObjAddr: 0x49890, symBinAddr: 0xAA490, symSize: 0x20 }
  - { offset: 0x4AC27A, size: 0x8, addend: 0x0, symName: '__ZNKSt3__110__function6__funcIZNK11llama_model10print_infoEvE3$_4NS_9allocatorIS3_EEFjjEE11target_typeEv', symObjAddr: 0x498B0, symBinAddr: 0xAA4B0, symSize: 0x10 }
  - { offset: 0x4AC29D, size: 0x8, addend: 0x0, symName: '__ZNSt3__110__function6__funcIZNK11llama_model10print_infoEvE3$_5NS_9allocatorIS3_EEFjjEED1Ev', symObjAddr: 0x498C0, symBinAddr: 0xAA4C0, symSize: 0x10 }
  - { offset: 0x4AC2C6, size: 0x8, addend: 0x0, symName: '__ZNSt3__110__function6__funcIZNK11llama_model10print_infoEvE3$_5NS_9allocatorIS3_EEFjjEED0Ev', symObjAddr: 0x498D0, symBinAddr: 0xAA4D0, symSize: 0x10 }
  - { offset: 0x4AC4C9, size: 0x8, addend: 0x0, symName: '__ZNKSt3__110__function6__funcIZNK11llama_model10print_infoEvE3$_5NS_9allocatorIS3_EEFjjEE7__cloneEv', symObjAddr: 0x498E0, symBinAddr: 0xAA4E0, symSize: 0x30 }
  - { offset: 0x4AC7AC, size: 0x8, addend: 0x0, symName: '__ZNKSt3__110__function6__funcIZNK11llama_model10print_infoEvE3$_5NS_9allocatorIS3_EEFjjEE7__cloneEPNS0_6__baseIS6_EE', symObjAddr: 0x49910, symBinAddr: 0xAA510, symSize: 0x20 }
  - { offset: 0x4AC8B1, size: 0x8, addend: 0x0, symName: '__ZNSt3__110__function6__funcIZNK11llama_model10print_infoEvE3$_5NS_9allocatorIS3_EEFjjEE7destroyEv', symObjAddr: 0x49930, symBinAddr: 0xAA530, symSize: 0x10 }
  - { offset: 0x4AC900, size: 0x8, addend: 0x0, symName: '__ZNSt3__110__function6__funcIZNK11llama_model10print_infoEvE3$_5NS_9allocatorIS3_EEFjjEE18destroy_deallocateEv', symObjAddr: 0x49940, symBinAddr: 0xAA540, symSize: 0x10 }
  - { offset: 0x4ACA4C, size: 0x8, addend: 0x0, symName: '__ZNSt3__110__function6__funcIZNK11llama_model10print_infoEvE3$_5NS_9allocatorIS3_EEFjjEEclEOj', symObjAddr: 0x49950, symBinAddr: 0xAA550, symSize: 0x20 }
  - { offset: 0x4ACADF, size: 0x8, addend: 0x0, symName: '__ZNKSt3__110__function6__funcIZNK11llama_model10print_infoEvE3$_5NS_9allocatorIS3_EEFjjEE6targetERKSt9type_info', symObjAddr: 0x49970, symBinAddr: 0xAA570, symSize: 0x20 }
  - { offset: 0x4ACB4F, size: 0x8, addend: 0x0, symName: '__ZNKSt3__110__function6__funcIZNK11llama_model10print_infoEvE3$_5NS_9allocatorIS3_EEFjjEE11target_typeEv', symObjAddr: 0x49990, symBinAddr: 0xAA590, symSize: 0x10 }
  - { offset: 0x4ACB72, size: 0x8, addend: 0x0, symName: '__ZNSt3__110__function6__funcIZNK11llama_model10print_infoEvE3$_6NS_9allocatorIS3_EEFjjEED1Ev', symObjAddr: 0x499A0, symBinAddr: 0xAA5A0, symSize: 0x10 }
  - { offset: 0x4ACB9B, size: 0x8, addend: 0x0, symName: '__ZNSt3__110__function6__funcIZNK11llama_model10print_infoEvE3$_6NS_9allocatorIS3_EEFjjEED0Ev', symObjAddr: 0x499B0, symBinAddr: 0xAA5B0, symSize: 0x10 }
  - { offset: 0x4ACD9E, size: 0x8, addend: 0x0, symName: '__ZNKSt3__110__function6__funcIZNK11llama_model10print_infoEvE3$_6NS_9allocatorIS3_EEFjjEE7__cloneEv', symObjAddr: 0x499C0, symBinAddr: 0xAA5C0, symSize: 0x30 }
  - { offset: 0x4AD081, size: 0x8, addend: 0x0, symName: '__ZNKSt3__110__function6__funcIZNK11llama_model10print_infoEvE3$_6NS_9allocatorIS3_EEFjjEE7__cloneEPNS0_6__baseIS6_EE', symObjAddr: 0x499F0, symBinAddr: 0xAA5F0, symSize: 0x20 }
  - { offset: 0x4AD186, size: 0x8, addend: 0x0, symName: '__ZNSt3__110__function6__funcIZNK11llama_model10print_infoEvE3$_6NS_9allocatorIS3_EEFjjEE7destroyEv', symObjAddr: 0x49A10, symBinAddr: 0xAA610, symSize: 0x10 }
  - { offset: 0x4AD1D5, size: 0x8, addend: 0x0, symName: '__ZNSt3__110__function6__funcIZNK11llama_model10print_infoEvE3$_6NS_9allocatorIS3_EEFjjEE18destroy_deallocateEv', symObjAddr: 0x49A20, symBinAddr: 0xAA620, symSize: 0x10 }
  - { offset: 0x4AD321, size: 0x8, addend: 0x0, symName: '__ZNSt3__110__function6__funcIZNK11llama_model10print_infoEvE3$_6NS_9allocatorIS3_EEFjjEEclEOj', symObjAddr: 0x49A30, symBinAddr: 0xAA630, symSize: 0x20 }
  - { offset: 0x4AD3B4, size: 0x8, addend: 0x0, symName: '__ZNKSt3__110__function6__funcIZNK11llama_model10print_infoEvE3$_6NS_9allocatorIS3_EEFjjEE6targetERKSt9type_info', symObjAddr: 0x49A50, symBinAddr: 0xAA650, symSize: 0x20 }
  - { offset: 0x4AD424, size: 0x8, addend: 0x0, symName: '__ZNKSt3__110__function6__funcIZNK11llama_model10print_infoEvE3$_6NS_9allocatorIS3_EEFjjEE11target_typeEv', symObjAddr: 0x49A70, symBinAddr: 0xAA670, symSize: 0x10 }
  - { offset: 0x4AD447, size: 0x8, addend: 0x0, symName: '__ZNSt3__110__function6__funcIZNK11llama_model13create_memoryERK19llama_memory_paramsR13llama_cparamsE3$_0NS_9allocatorIS8_EEFbiEED1Ev', symObjAddr: 0x49A80, symBinAddr: 0xAA680, symSize: 0x10 }
  - { offset: 0x4AD470, size: 0x8, addend: 0x0, symName: '__ZNSt3__110__function6__funcIZNK11llama_model13create_memoryERK19llama_memory_paramsR13llama_cparamsE3$_0NS_9allocatorIS8_EEFbiEED0Ev', symObjAddr: 0x49A90, symBinAddr: 0xAA690, symSize: 0x10 }
  - { offset: 0x4AD525, size: 0x8, addend: 0x0, symName: '__ZNKSt3__110__function6__funcIZNK11llama_model13create_memoryERK19llama_memory_paramsR13llama_cparamsE3$_0NS_9allocatorIS8_EEFbiEE7__cloneEv', symObjAddr: 0x49AA0, symBinAddr: 0xAA6A0, symSize: 0x20 }
  - { offset: 0x4AD66B, size: 0x8, addend: 0x0, symName: '__ZNKSt3__110__function6__funcIZNK11llama_model13create_memoryERK19llama_memory_paramsR13llama_cparamsE3$_0NS_9allocatorIS8_EEFbiEE7__cloneEPNS0_6__baseISB_EE', symObjAddr: 0x49AC0, symBinAddr: 0xAA6C0, symSize: 0x10 }
  - { offset: 0x4AD6D7, size: 0x8, addend: 0x0, symName: '__ZNSt3__110__function6__funcIZNK11llama_model13create_memoryERK19llama_memory_paramsR13llama_cparamsE3$_0NS_9allocatorIS8_EEFbiEE7destroyEv', symObjAddr: 0x49AD0, symBinAddr: 0xAA6D0, symSize: 0x10 }
  - { offset: 0x4AD726, size: 0x8, addend: 0x0, symName: '__ZNSt3__110__function6__funcIZNK11llama_model13create_memoryERK19llama_memory_paramsR13llama_cparamsE3$_0NS_9allocatorIS8_EEFbiEE18destroy_deallocateEv', symObjAddr: 0x49AE0, symBinAddr: 0xAA6E0, symSize: 0x10 }
  - { offset: 0x4AD7F8, size: 0x8, addend: 0x0, symName: '__ZNSt3__110__function6__funcIZNK11llama_model13create_memoryERK19llama_memory_paramsR13llama_cparamsE3$_0NS_9allocatorIS8_EEFbiEEclEOi', symObjAddr: 0x49AF0, symBinAddr: 0xAA6F0, symSize: 0x10 }
  - { offset: 0x4AD827, size: 0x8, addend: 0x0, symName: '__ZNKSt3__110__function6__funcIZNK11llama_model13create_memoryERK19llama_memory_paramsR13llama_cparamsE3$_0NS_9allocatorIS8_EEFbiEE6targetERKSt9type_info', symObjAddr: 0x49B00, symBinAddr: 0xAA700, symSize: 0x20 }
  - { offset: 0x4AD897, size: 0x8, addend: 0x0, symName: '__ZNKSt3__110__function6__funcIZNK11llama_model13create_memoryERK19llama_memory_paramsR13llama_cparamsE3$_0NS_9allocatorIS8_EEFbiEE11target_typeEv', symObjAddr: 0x49B20, symBinAddr: 0xAA720, symSize: 0x10 }
  - { offset: 0x4AD8BA, size: 0x8, addend: 0x0, symName: '__ZNSt3__110__function6__funcIZNK11llama_model13create_memoryERK19llama_memory_paramsR13llama_cparamsE3$_1NS_9allocatorIS8_EEFbiEED1Ev', symObjAddr: 0x49B30, symBinAddr: 0xAA730, symSize: 0x10 }
  - { offset: 0x4AD8E3, size: 0x8, addend: 0x0, symName: '__ZNSt3__110__function6__funcIZNK11llama_model13create_memoryERK19llama_memory_paramsR13llama_cparamsE3$_1NS_9allocatorIS8_EEFbiEED0Ev', symObjAddr: 0x49B40, symBinAddr: 0xAA740, symSize: 0x10 }
  - { offset: 0x4AD998, size: 0x8, addend: 0x0, symName: '__ZNKSt3__110__function6__funcIZNK11llama_model13create_memoryERK19llama_memory_paramsR13llama_cparamsE3$_1NS_9allocatorIS8_EEFbiEE7__cloneEv', symObjAddr: 0x49B50, symBinAddr: 0xAA750, symSize: 0x20 }
  - { offset: 0x4ADADE, size: 0x8, addend: 0x0, symName: '__ZNKSt3__110__function6__funcIZNK11llama_model13create_memoryERK19llama_memory_paramsR13llama_cparamsE3$_1NS_9allocatorIS8_EEFbiEE7__cloneEPNS0_6__baseISB_EE', symObjAddr: 0x49B70, symBinAddr: 0xAA770, symSize: 0x10 }
  - { offset: 0x4ADB4A, size: 0x8, addend: 0x0, symName: '__ZNSt3__110__function6__funcIZNK11llama_model13create_memoryERK19llama_memory_paramsR13llama_cparamsE3$_1NS_9allocatorIS8_EEFbiEE7destroyEv', symObjAddr: 0x49B80, symBinAddr: 0xAA780, symSize: 0x10 }
  - { offset: 0x4ADB99, size: 0x8, addend: 0x0, symName: '__ZNSt3__110__function6__funcIZNK11llama_model13create_memoryERK19llama_memory_paramsR13llama_cparamsE3$_1NS_9allocatorIS8_EEFbiEE18destroy_deallocateEv', symObjAddr: 0x49B90, symBinAddr: 0xAA790, symSize: 0x10 }
  - { offset: 0x4ADC6B, size: 0x8, addend: 0x0, symName: '__ZNSt3__110__function6__funcIZNK11llama_model13create_memoryERK19llama_memory_paramsR13llama_cparamsE3$_1NS_9allocatorIS8_EEFbiEEclEOi', symObjAddr: 0x49BA0, symBinAddr: 0xAA7A0, symSize: 0x10 }
  - { offset: 0x4ADC9A, size: 0x8, addend: 0x0, symName: '__ZNKSt3__110__function6__funcIZNK11llama_model13create_memoryERK19llama_memory_paramsR13llama_cparamsE3$_1NS_9allocatorIS8_EEFbiEE6targetERKSt9type_info', symObjAddr: 0x49BB0, symBinAddr: 0xAA7B0, symSize: 0x20 }
  - { offset: 0x4ADD0A, size: 0x8, addend: 0x0, symName: '__ZNKSt3__110__function6__funcIZNK11llama_model13create_memoryERK19llama_memory_paramsR13llama_cparamsE3$_1NS_9allocatorIS8_EEFbiEE11target_typeEv', symObjAddr: 0x49BD0, symBinAddr: 0xAA7D0, symSize: 0x10 }
  - { offset: 0x4ADDA4, size: 0x8, addend: 0x0, symName: __ZN15llm_build_llamaD1Ev, symObjAddr: 0x4A400, symBinAddr: 0xAB000, symSize: 0x10 }
  - { offset: 0x4ADDD0, size: 0x8, addend: 0x0, symName: __ZN15llm_build_llamaD0Ev, symObjAddr: 0x4A410, symBinAddr: 0xAB010, symSize: 0x10 }
  - { offset: 0x4ADE19, size: 0x8, addend: 0x0, symName: __ZN20llm_build_llama_iswaD1Ev, symObjAddr: 0x4AE30, symBinAddr: 0xABA30, symSize: 0x10 }
  - { offset: 0x4ADE45, size: 0x8, addend: 0x0, symName: __ZN20llm_build_llama_iswaD0Ev, symObjAddr: 0x4AE40, symBinAddr: 0xABA40, symSize: 0x10 }
  - { offset: 0x4ADE71, size: 0x8, addend: 0x0, symName: __ZN14llm_build_deciD1Ev, symObjAddr: 0x4B680, symBinAddr: 0xAC280, symSize: 0x10 }
  - { offset: 0x4ADE9D, size: 0x8, addend: 0x0, symName: __ZN14llm_build_deciD0Ev, symObjAddr: 0x4B690, symBinAddr: 0xAC290, symSize: 0x10 }
  - { offset: 0x4ADEC9, size: 0x8, addend: 0x0, symName: __ZN18llm_build_baichuanD1Ev, symObjAddr: 0x4BCC0, symBinAddr: 0xAC8C0, symSize: 0x10 }
  - { offset: 0x4ADEF5, size: 0x8, addend: 0x0, symName: __ZN18llm_build_baichuanD0Ev, symObjAddr: 0x4BCD0, symBinAddr: 0xAC8D0, symSize: 0x10 }
  - { offset: 0x4ADF9B, size: 0x8, addend: 0x0, symName: __ZN16llm_build_falconD1Ev, symObjAddr: 0x4C2D0, symBinAddr: 0xACED0, symSize: 0x10 }
  - { offset: 0x4ADFC7, size: 0x8, addend: 0x0, symName: __ZN16llm_build_falconD0Ev, symObjAddr: 0x4C2E0, symBinAddr: 0xACEE0, symSize: 0x10 }
  - { offset: 0x4ADFF3, size: 0x8, addend: 0x0, symName: __ZN14llm_build_grokD1Ev, symObjAddr: 0x4CA90, symBinAddr: 0xAD690, symSize: 0x10 }
  - { offset: 0x4AE01F, size: 0x8, addend: 0x0, symName: __ZN14llm_build_grokD0Ev, symObjAddr: 0x4CAA0, symBinAddr: 0xAD6A0, symSize: 0x10 }
  - { offset: 0x4AE04B, size: 0x8, addend: 0x0, symName: __ZN19llm_build_starcoderD1Ev, symObjAddr: 0x4D090, symBinAddr: 0xADC90, symSize: 0x10 }
  - { offset: 0x4AE077, size: 0x8, addend: 0x0, symName: __ZN19llm_build_starcoderD0Ev, symObjAddr: 0x4D0A0, symBinAddr: 0xADCA0, symSize: 0x10 }
  - { offset: 0x4AE0A3, size: 0x8, addend: 0x0, symName: __ZN16llm_build_refactD1Ev, symObjAddr: 0x4D580, symBinAddr: 0xAE180, symSize: 0x10 }
  - { offset: 0x4AE0CF, size: 0x8, addend: 0x0, symName: __ZN16llm_build_refactD0Ev, symObjAddr: 0x4D590, symBinAddr: 0xAE190, symSize: 0x10 }
  - { offset: 0x4AE11D, size: 0x8, addend: 0x0, symName: __ZN14llm_build_bertD1Ev, symObjAddr: 0x4DF40, symBinAddr: 0xAEB40, symSize: 0x10 }
  - { offset: 0x4AE149, size: 0x8, addend: 0x0, symName: __ZN14llm_build_bertD0Ev, symObjAddr: 0x4DF50, symBinAddr: 0xAEB50, symSize: 0x10 }
  - { offset: 0x4AE175, size: 0x8, addend: 0x0, symName: __ZN18llm_build_neo_bertD1Ev, symObjAddr: 0x4E4C0, symBinAddr: 0xAF0C0, symSize: 0x10 }
  - { offset: 0x4AE1A1, size: 0x8, addend: 0x0, symName: __ZN18llm_build_neo_bertD0Ev, symObjAddr: 0x4E4D0, symBinAddr: 0xAF0D0, symSize: 0x10 }
  - { offset: 0x4AE1CD, size: 0x8, addend: 0x0, symName: __ZN15llm_build_bloomD1Ev, symObjAddr: 0x4EA90, symBinAddr: 0xAF690, symSize: 0x10 }
  - { offset: 0x4AE1F9, size: 0x8, addend: 0x0, symName: __ZN15llm_build_bloomD0Ev, symObjAddr: 0x4EAA0, symBinAddr: 0xAF6A0, symSize: 0x10 }
  - { offset: 0x4AE247, size: 0x8, addend: 0x0, symName: __ZN13llm_build_mptD1Ev, symObjAddr: 0x4F1D0, symBinAddr: 0xAFDD0, symSize: 0x10 }
  - { offset: 0x4AE273, size: 0x8, addend: 0x0, symName: __ZN13llm_build_mptD0Ev, symObjAddr: 0x4F1E0, symBinAddr: 0xAFDE0, symSize: 0x10 }
  - { offset: 0x4AE29F, size: 0x8, addend: 0x0, symName: __ZN18llm_build_stablelmD1Ev, symObjAddr: 0x4F960, symBinAddr: 0xB0560, symSize: 0x10 }
  - { offset: 0x4AE2CB, size: 0x8, addend: 0x0, symName: __ZN18llm_build_stablelmD0Ev, symObjAddr: 0x4F970, symBinAddr: 0xB0570, symSize: 0x10 }
  - { offset: 0x4AE2F7, size: 0x8, addend: 0x0, symName: __ZN14llm_build_qwenD1Ev, symObjAddr: 0x4FF50, symBinAddr: 0xB0B50, symSize: 0x10 }
  - { offset: 0x4AE323, size: 0x8, addend: 0x0, symName: __ZN14llm_build_qwenD0Ev, symObjAddr: 0x4FF60, symBinAddr: 0xB0B60, symSize: 0x10 }
  - { offset: 0x4AE34F, size: 0x8, addend: 0x0, symName: __ZN15llm_build_qwen2D1Ev, symObjAddr: 0x505B0, symBinAddr: 0xB11B0, symSize: 0x10 }
  - { offset: 0x4AE37B, size: 0x8, addend: 0x0, symName: __ZN15llm_build_qwen2D0Ev, symObjAddr: 0x505C0, symBinAddr: 0xB11C0, symSize: 0x10 }
  - { offset: 0x4AE3A7, size: 0x8, addend: 0x0, symName: __ZN15llm_build_dreamD1Ev, symObjAddr: 0x50BF0, symBinAddr: 0xB17F0, symSize: 0x10 }
  - { offset: 0x4AE3D3, size: 0x8, addend: 0x0, symName: __ZN15llm_build_dreamD0Ev, symObjAddr: 0x50C00, symBinAddr: 0xB1800, symSize: 0x10 }
  - { offset: 0x4AE3FF, size: 0x8, addend: 0x0, symName: __ZN15llm_build_lladaD1Ev, symObjAddr: 0x511E0, symBinAddr: 0xB1DE0, symSize: 0x10 }
  - { offset: 0x4AE42B, size: 0x8, addend: 0x0, symName: __ZN15llm_build_lladaD0Ev, symObjAddr: 0x511F0, symBinAddr: 0xB1DF0, symSize: 0x10 }
  - { offset: 0x4AE4FA, size: 0x8, addend: 0x0, symName: __ZN17llm_build_qwen2vlD1Ev, symObjAddr: 0x51950, symBinAddr: 0xB2550, symSize: 0x10 }
  - { offset: 0x4AE526, size: 0x8, addend: 0x0, symName: __ZN17llm_build_qwen2vlD0Ev, symObjAddr: 0x51960, symBinAddr: 0xB2560, symSize: 0x10 }
  - { offset: 0x4AE56A, size: 0x8, addend: 0x0, symName: __ZN18llm_build_qwen2moeD1Ev, symObjAddr: 0x52170, symBinAddr: 0xB2D70, symSize: 0x10 }
  - { offset: 0x4AE596, size: 0x8, addend: 0x0, symName: __ZN18llm_build_qwen2moeD0Ev, symObjAddr: 0x52180, symBinAddr: 0xB2D80, symSize: 0x10 }
  - { offset: 0x4AE5C2, size: 0x8, addend: 0x0, symName: __ZN15llm_build_qwen3D1Ev, symObjAddr: 0x527D0, symBinAddr: 0xB33D0, symSize: 0x10 }
  - { offset: 0x4AE5EE, size: 0x8, addend: 0x0, symName: __ZN15llm_build_qwen3D0Ev, symObjAddr: 0x527E0, symBinAddr: 0xB33E0, symSize: 0x10 }
  - { offset: 0x4AE61A, size: 0x8, addend: 0x0, symName: __ZN18llm_build_qwen3moeD1Ev, symObjAddr: 0x52E50, symBinAddr: 0xB3A50, symSize: 0x10 }
  - { offset: 0x4AE646, size: 0x8, addend: 0x0, symName: __ZN18llm_build_qwen3moeD0Ev, symObjAddr: 0x52E60, symBinAddr: 0xB3A60, symSize: 0x10 }
  - { offset: 0x4AE672, size: 0x8, addend: 0x0, symName: __ZN14llm_build_phi2D1Ev, symObjAddr: 0x535F0, symBinAddr: 0xB41F0, symSize: 0x10 }
  - { offset: 0x4AE69E, size: 0x8, addend: 0x0, symName: __ZN14llm_build_phi2D0Ev, symObjAddr: 0x53600, symBinAddr: 0xB4200, symSize: 0x10 }
  - { offset: 0x4AE6CA, size: 0x8, addend: 0x0, symName: __ZN14llm_build_phi3ILb1EED1Ev, symObjAddr: 0x53EA0, symBinAddr: 0xB4AA0, symSize: 0x10 }
  - { offset: 0x4AE6F6, size: 0x8, addend: 0x0, symName: __ZN14llm_build_phi3ILb1EED0Ev, symObjAddr: 0x53EB0, symBinAddr: 0xB4AB0, symSize: 0x10 }
  - { offset: 0x4AE722, size: 0x8, addend: 0x0, symName: __ZN14llm_build_phi3ILb0EED1Ev, symObjAddr: 0x54750, symBinAddr: 0xB5350, symSize: 0x10 }
  - { offset: 0x4AE74E, size: 0x8, addend: 0x0, symName: __ZN14llm_build_phi3ILb0EED0Ev, symObjAddr: 0x54760, symBinAddr: 0xB5360, symSize: 0x10 }
  - { offset: 0x4AE77A, size: 0x8, addend: 0x0, symName: __ZN15llm_build_plamoD1Ev, symObjAddr: 0x54D00, symBinAddr: 0xB5900, symSize: 0x10 }
  - { offset: 0x4AE7A6, size: 0x8, addend: 0x0, symName: __ZN15llm_build_plamoD0Ev, symObjAddr: 0x54D10, symBinAddr: 0xB5910, symSize: 0x10 }
  - { offset: 0x4AE864, size: 0x8, addend: 0x0, symName: __ZN16llm_build_plamo223build_plamo2_attn_layerEP31llm_graph_input_attn_kv_unifiedP11ggml_tensorS3_RK11llama_modeli, symObjAddr: 0x56000, symBinAddr: 0xB6C00, symSize: 0x3E0 }
  - { offset: 0x4AF411, size: 0x8, addend: 0x0, symName: __ZN16llm_build_plamo2D1Ev, symObjAddr: 0x563E0, symBinAddr: 0xB6FE0, symSize: 0x10 }
  - { offset: 0x4AF43D, size: 0x8, addend: 0x0, symName: __ZN16llm_build_plamo2D0Ev, symObjAddr: 0x563F0, symBinAddr: 0xB6FF0, symSize: 0x10 }
  - { offset: 0x4AF469, size: 0x8, addend: 0x0, symName: __ZNSt3__110__function6__funcIZN16llm_build_plamo224build_plamo2_mamba_layerEP18llm_graph_input_rsP11ggml_tensorRK11llama_modelRK12llama_ubatchiEUlP12ggml_contextS6_S6_E_NS_9allocatorISF_EEFS6_SE_S6_S6_EED1Ev, symObjAddr: 0x564E0, symBinAddr: 0xB7000, symSize: 0x10 }
  - { offset: 0x4AF494, size: 0x8, addend: 0x0, symName: __ZNSt3__110__function6__funcIZN16llm_build_plamo224build_plamo2_mamba_layerEP18llm_graph_input_rsP11ggml_tensorRK11llama_modelRK12llama_ubatchiEUlP12ggml_contextS6_S6_E_NS_9allocatorISF_EEFS6_SE_S6_S6_EED0Ev, symObjAddr: 0x564F0, symBinAddr: 0xB7010, symSize: 0x10 }
  - { offset: 0x4AF671, size: 0x8, addend: 0x0, symName: __ZNKSt3__110__function6__funcIZN16llm_build_plamo224build_plamo2_mamba_layerEP18llm_graph_input_rsP11ggml_tensorRK11llama_modelRK12llama_ubatchiEUlP12ggml_contextS6_S6_E_NS_9allocatorISF_EEFS6_SE_S6_S6_EE7__cloneEv, symObjAddr: 0x56500, symBinAddr: 0xB7020, symSize: 0x50 }
  - { offset: 0x4AF993, size: 0x8, addend: 0x0, symName: __ZNKSt3__110__function6__funcIZN16llm_build_plamo224build_plamo2_mamba_layerEP18llm_graph_input_rsP11ggml_tensorRK11llama_modelRK12llama_ubatchiEUlP12ggml_contextS6_S6_E_NS_9allocatorISF_EEFS6_SE_S6_S6_EE7__cloneEPNS0_6__baseISI_EE, symObjAddr: 0x56550, symBinAddr: 0xB7070, symSize: 0x40 }
  - { offset: 0x4AFB0D, size: 0x8, addend: 0x0, symName: __ZNSt3__110__function6__funcIZN16llm_build_plamo224build_plamo2_mamba_layerEP18llm_graph_input_rsP11ggml_tensorRK11llama_modelRK12llama_ubatchiEUlP12ggml_contextS6_S6_E_NS_9allocatorISF_EEFS6_SE_S6_S6_EE7destroyEv, symObjAddr: 0x56590, symBinAddr: 0xB70B0, symSize: 0x10 }
  - { offset: 0x4AFB5E, size: 0x8, addend: 0x0, symName: __ZNSt3__110__function6__funcIZN16llm_build_plamo224build_plamo2_mamba_layerEP18llm_graph_input_rsP11ggml_tensorRK11llama_modelRK12llama_ubatchiEUlP12ggml_contextS6_S6_E_NS_9allocatorISF_EEFS6_SE_S6_S6_EE18destroy_deallocateEv, symObjAddr: 0x565A0, symBinAddr: 0xB70C0, symSize: 0x10 }
  - { offset: 0x4AFD06, size: 0x8, addend: 0x0, symName: __ZNSt3__110__function6__funcIZN16llm_build_plamo224build_plamo2_mamba_layerEP18llm_graph_input_rsP11ggml_tensorRK11llama_modelRK12llama_ubatchiEUlP12ggml_contextS6_S6_E_NS_9allocatorISF_EEFS6_SE_S6_S6_EEclEOSE_OS6_SL_, symObjAddr: 0x565B0, symBinAddr: 0xB70D0, symSize: 0xA0 }
  - { offset: 0x4AFE89, size: 0x8, addend: 0x0, symName: __ZNKSt3__110__function6__funcIZN16llm_build_plamo224build_plamo2_mamba_layerEP18llm_graph_input_rsP11ggml_tensorRK11llama_modelRK12llama_ubatchiEUlP12ggml_contextS6_S6_E_NS_9allocatorISF_EEFS6_SE_S6_S6_EE6targetERKSt9type_info, symObjAddr: 0x56650, symBinAddr: 0xB7170, symSize: 0x20 }
  - { offset: 0x4AFEF7, size: 0x8, addend: 0x0, symName: __ZNKSt3__110__function6__funcIZN16llm_build_plamo224build_plamo2_mamba_layerEP18llm_graph_input_rsP11ggml_tensorRK11llama_modelRK12llama_ubatchiEUlP12ggml_contextS6_S6_E_NS_9allocatorISF_EEFS6_SE_S6_S6_EE11target_typeEv, symObjAddr: 0x56670, symBinAddr: 0xB7190, symSize: 0x10 }
  - { offset: 0x4AFF1C, size: 0x8, addend: 0x0, symName: __ZN14llm_build_gpt2D1Ev, symObjAddr: 0x56CB0, symBinAddr: 0xB77D0, symSize: 0x10 }
  - { offset: 0x4AFF48, size: 0x8, addend: 0x0, symName: __ZN14llm_build_gpt2D0Ev, symObjAddr: 0x56CC0, symBinAddr: 0xB77E0, symSize: 0x10 }
  - { offset: 0x4AFF74, size: 0x8, addend: 0x0, symName: __ZN19llm_build_codeshellD1Ev, symObjAddr: 0x57300, symBinAddr: 0xB7E20, symSize: 0x10 }
  - { offset: 0x4AFFA0, size: 0x8, addend: 0x0, symName: __ZN19llm_build_codeshellD0Ev, symObjAddr: 0x57310, symBinAddr: 0xB7E30, symSize: 0x10 }
  - { offset: 0x4AFFCC, size: 0x8, addend: 0x0, symName: __ZN15llm_build_orionD1Ev, symObjAddr: 0x578F0, symBinAddr: 0xB8410, symSize: 0x10 }
  - { offset: 0x4AFFF8, size: 0x8, addend: 0x0, symName: __ZN15llm_build_orionD0Ev, symObjAddr: 0x57900, symBinAddr: 0xB8420, symSize: 0x10 }
  - { offset: 0x4B0024, size: 0x8, addend: 0x0, symName: __ZN19llm_build_internlm2D1Ev, symObjAddr: 0x57FB0, symBinAddr: 0xB8AD0, symSize: 0x10 }
  - { offset: 0x4B0050, size: 0x8, addend: 0x0, symName: __ZN19llm_build_internlm2D0Ev, symObjAddr: 0x57FC0, symBinAddr: 0xB8AE0, symSize: 0x10 }
  - { offset: 0x4B00B1, size: 0x8, addend: 0x0, symName: __ZN18llm_build_minicpm3D1Ev, symObjAddr: 0x58AB0, symBinAddr: 0xB95D0, symSize: 0x10 }
  - { offset: 0x4B00DD, size: 0x8, addend: 0x0, symName: __ZN18llm_build_minicpm3D0Ev, symObjAddr: 0x58AC0, symBinAddr: 0xB95E0, symSize: 0x10 }
  - { offset: 0x4B0109, size: 0x8, addend: 0x0, symName: __ZN15llm_build_gemmaD1Ev, symObjAddr: 0x590A0, symBinAddr: 0xB9BC0, symSize: 0x10 }
  - { offset: 0x4B0135, size: 0x8, addend: 0x0, symName: __ZN15llm_build_gemmaD0Ev, symObjAddr: 0x590B0, symBinAddr: 0xB9BD0, symSize: 0x10 }
  - { offset: 0x4B0179, size: 0x8, addend: 0x0, symName: __ZN21llm_build_gemma2_iswaD1Ev, symObjAddr: 0x59720, symBinAddr: 0xBA240, symSize: 0x10 }
  - { offset: 0x4B01A5, size: 0x8, addend: 0x0, symName: __ZN21llm_build_gemma2_iswaD0Ev, symObjAddr: 0x59730, symBinAddr: 0xBA250, symSize: 0x10 }
  - { offset: 0x4B0233, size: 0x8, addend: 0x0, symName: __ZN21llm_build_gemma3_iswaD1Ev, symObjAddr: 0x59E70, symBinAddr: 0xBA990, symSize: 0x10 }
  - { offset: 0x4B025F, size: 0x8, addend: 0x0, symName: __ZN21llm_build_gemma3_iswaD0Ev, symObjAddr: 0x59E80, symBinAddr: 0xBA9A0, symSize: 0x10 }
  - { offset: 0x4B0315, size: 0x8, addend: 0x0, symName: __ZN22llm_build_gemma3n_iswa20get_per_layer_inputsEv, symObjAddr: 0x5B160, symBinAddr: 0xBBC80, symSize: 0x170 }
  - { offset: 0x4B064D, size: 0x8, addend: 0x0, symName: __ZN22llm_build_gemma3n_iswa24project_per_layer_inputsEP11ggml_tensorS1_, symObjAddr: 0x5B020, symBinAddr: 0xBBB40, symSize: 0x140 }
  - { offset: 0x4B07D5, size: 0x8, addend: 0x0, symName: __ZN22llm_build_gemma3n_iswa13altup_predictEP11ggml_tensori, symObjAddr: 0x5B2D0, symBinAddr: 0xBBDF0, symSize: 0x250 }
  - { offset: 0x4B0A93, size: 0x8, addend: 0x0, symName: __ZN22llm_build_gemma3n_iswa13gaussian_topkEP11ggml_tensor, symObjAddr: 0x5B520, symBinAddr: 0xBC040, symSize: 0xD0 }
  - { offset: 0x4B0BE7, size: 0x8, addend: 0x0, symName: __ZN22llm_build_gemma3n_iswa13altup_correctEP11ggml_tensorS1_i, symObjAddr: 0x5B5F0, symBinAddr: 0xBC110, symSize: 0x290 }
  - { offset: 0x4B11E5, size: 0x8, addend: 0x0, symName: __ZN22llm_build_gemma3n_iswaD1Ev, symObjAddr: 0x5B880, symBinAddr: 0xBC3A0, symSize: 0x10 }
  - { offset: 0x4B1211, size: 0x8, addend: 0x0, symName: __ZN22llm_build_gemma3n_iswaD0Ev, symObjAddr: 0x5B890, symBinAddr: 0xBC3B0, symSize: 0x10 }
  - { offset: 0x4B123D, size: 0x8, addend: 0x0, symName: __ZN20llm_build_starcoder2D1Ev, symObjAddr: 0x5BF40, symBinAddr: 0xBCA60, symSize: 0x10 }
  - { offset: 0x4B1269, size: 0x8, addend: 0x0, symName: __ZN20llm_build_starcoder2D0Ev, symObjAddr: 0x5BF50, symBinAddr: 0xBCA70, symSize: 0x10 }
  - { offset: 0x4B1A60, size: 0x8, addend: 0x0, symName: __ZN15llm_build_mambaD1Ev, symObjAddr: 0x5D650, symBinAddr: 0xBE170, symSize: 0x10 }
  - { offset: 0x4B1A8C, size: 0x8, addend: 0x0, symName: __ZN15llm_build_mambaD0Ev, symObjAddr: 0x5D660, symBinAddr: 0xBE180, symSize: 0x10 }
  - { offset: 0x4B1AB8, size: 0x8, addend: 0x0, symName: __ZNSt3__110__function6__funcIZNK23llm_graph_context_mamba18build_mamba2_layerEP18llm_graph_input_rsP11ggml_tensorRK11llama_modelRK12llama_ubatchiEUlP12ggml_contextS6_S6_E_NS_9allocatorISF_EEFS6_SE_S6_S6_EED1Ev, symObjAddr: 0x5D670, symBinAddr: 0xBE190, symSize: 0x10 }
  - { offset: 0x4B1AE3, size: 0x8, addend: 0x0, symName: __ZNSt3__110__function6__funcIZNK23llm_graph_context_mamba18build_mamba2_layerEP18llm_graph_input_rsP11ggml_tensorRK11llama_modelRK12llama_ubatchiEUlP12ggml_contextS6_S6_E_NS_9allocatorISF_EEFS6_SE_S6_S6_EED0Ev, symObjAddr: 0x5D680, symBinAddr: 0xBE1A0, symSize: 0x10 }
  - { offset: 0x4B1CC0, size: 0x8, addend: 0x0, symName: __ZNKSt3__110__function6__funcIZNK23llm_graph_context_mamba18build_mamba2_layerEP18llm_graph_input_rsP11ggml_tensorRK11llama_modelRK12llama_ubatchiEUlP12ggml_contextS6_S6_E_NS_9allocatorISF_EEFS6_SE_S6_S6_EE7__cloneEv, symObjAddr: 0x5D690, symBinAddr: 0xBE1B0, symSize: 0x50 }
  - { offset: 0x4B1FE2, size: 0x8, addend: 0x0, symName: __ZNKSt3__110__function6__funcIZNK23llm_graph_context_mamba18build_mamba2_layerEP18llm_graph_input_rsP11ggml_tensorRK11llama_modelRK12llama_ubatchiEUlP12ggml_contextS6_S6_E_NS_9allocatorISF_EEFS6_SE_S6_S6_EE7__cloneEPNS0_6__baseISI_EE, symObjAddr: 0x5D6E0, symBinAddr: 0xBE200, symSize: 0x40 }
  - { offset: 0x4B215C, size: 0x8, addend: 0x0, symName: __ZNSt3__110__function6__funcIZNK23llm_graph_context_mamba18build_mamba2_layerEP18llm_graph_input_rsP11ggml_tensorRK11llama_modelRK12llama_ubatchiEUlP12ggml_contextS6_S6_E_NS_9allocatorISF_EEFS6_SE_S6_S6_EE7destroyEv, symObjAddr: 0x5D720, symBinAddr: 0xBE240, symSize: 0x10 }
  - { offset: 0x4B21AD, size: 0x8, addend: 0x0, symName: __ZNSt3__110__function6__funcIZNK23llm_graph_context_mamba18build_mamba2_layerEP18llm_graph_input_rsP11ggml_tensorRK11llama_modelRK12llama_ubatchiEUlP12ggml_contextS6_S6_E_NS_9allocatorISF_EEFS6_SE_S6_S6_EE18destroy_deallocateEv, symObjAddr: 0x5D730, symBinAddr: 0xBE250, symSize: 0x10 }
  - { offset: 0x4B2355, size: 0x8, addend: 0x0, symName: __ZNSt3__110__function6__funcIZNK23llm_graph_context_mamba18build_mamba2_layerEP18llm_graph_input_rsP11ggml_tensorRK11llama_modelRK12llama_ubatchiEUlP12ggml_contextS6_S6_E_NS_9allocatorISF_EEFS6_SE_S6_S6_EEclEOSE_OS6_SL_, symObjAddr: 0x5D740, symBinAddr: 0xBE260, symSize: 0xA0 }
  - { offset: 0x4B24D8, size: 0x8, addend: 0x0, symName: __ZNKSt3__110__function6__funcIZNK23llm_graph_context_mamba18build_mamba2_layerEP18llm_graph_input_rsP11ggml_tensorRK11llama_modelRK12llama_ubatchiEUlP12ggml_contextS6_S6_E_NS_9allocatorISF_EEFS6_SE_S6_S6_EE6targetERKSt9type_info, symObjAddr: 0x5D7E0, symBinAddr: 0xBE300, symSize: 0x20 }
  - { offset: 0x4B2546, size: 0x8, addend: 0x0, symName: __ZNKSt3__110__function6__funcIZNK23llm_graph_context_mamba18build_mamba2_layerEP18llm_graph_input_rsP11ggml_tensorRK11llama_modelRK12llama_ubatchiEUlP12ggml_contextS6_S6_E_NS_9allocatorISF_EEFS6_SE_S6_S6_EE11target_typeEv, symObjAddr: 0x5D800, symBinAddr: 0xBE320, symSize: 0x10 }
  - { offset: 0x4B256B, size: 0x8, addend: 0x0, symName: __ZNSt3__110__function6__funcIZN23llm_graph_context_mamba17build_mamba_layerEP18llm_graph_input_rsP11ggml_tensorRK11llama_modelRK12llama_ubatchiEUlP12ggml_contextS6_S6_E_NS_9allocatorISF_EEFS6_SE_S6_S6_EED1Ev, symObjAddr: 0x5D810, symBinAddr: 0xBE330, symSize: 0x10 }
  - { offset: 0x4B2596, size: 0x8, addend: 0x0, symName: __ZNSt3__110__function6__funcIZN23llm_graph_context_mamba17build_mamba_layerEP18llm_graph_input_rsP11ggml_tensorRK11llama_modelRK12llama_ubatchiEUlP12ggml_contextS6_S6_E_NS_9allocatorISF_EEFS6_SE_S6_S6_EED0Ev, symObjAddr: 0x5D820, symBinAddr: 0xBE340, symSize: 0x10 }
  - { offset: 0x4B2773, size: 0x8, addend: 0x0, symName: __ZNKSt3__110__function6__funcIZN23llm_graph_context_mamba17build_mamba_layerEP18llm_graph_input_rsP11ggml_tensorRK11llama_modelRK12llama_ubatchiEUlP12ggml_contextS6_S6_E_NS_9allocatorISF_EEFS6_SE_S6_S6_EE7__cloneEv, symObjAddr: 0x5D830, symBinAddr: 0xBE350, symSize: 0x50 }
  - { offset: 0x4B2A95, size: 0x8, addend: 0x0, symName: __ZNKSt3__110__function6__funcIZN23llm_graph_context_mamba17build_mamba_layerEP18llm_graph_input_rsP11ggml_tensorRK11llama_modelRK12llama_ubatchiEUlP12ggml_contextS6_S6_E_NS_9allocatorISF_EEFS6_SE_S6_S6_EE7__cloneEPNS0_6__baseISI_EE, symObjAddr: 0x5D880, symBinAddr: 0xBE3A0, symSize: 0x40 }
  - { offset: 0x4B2C0F, size: 0x8, addend: 0x0, symName: __ZNSt3__110__function6__funcIZN23llm_graph_context_mamba17build_mamba_layerEP18llm_graph_input_rsP11ggml_tensorRK11llama_modelRK12llama_ubatchiEUlP12ggml_contextS6_S6_E_NS_9allocatorISF_EEFS6_SE_S6_S6_EE7destroyEv, symObjAddr: 0x5D8C0, symBinAddr: 0xBE3E0, symSize: 0x10 }
  - { offset: 0x4B2C60, size: 0x8, addend: 0x0, symName: __ZNSt3__110__function6__funcIZN23llm_graph_context_mamba17build_mamba_layerEP18llm_graph_input_rsP11ggml_tensorRK11llama_modelRK12llama_ubatchiEUlP12ggml_contextS6_S6_E_NS_9allocatorISF_EEFS6_SE_S6_S6_EE18destroy_deallocateEv, symObjAddr: 0x5D8D0, symBinAddr: 0xBE3F0, symSize: 0x10 }
  - { offset: 0x4B2E08, size: 0x8, addend: 0x0, symName: __ZNSt3__110__function6__funcIZN23llm_graph_context_mamba17build_mamba_layerEP18llm_graph_input_rsP11ggml_tensorRK11llama_modelRK12llama_ubatchiEUlP12ggml_contextS6_S6_E_NS_9allocatorISF_EEFS6_SE_S6_S6_EEclEOSE_OS6_SL_, symObjAddr: 0x5D8E0, symBinAddr: 0xBE400, symSize: 0xA0 }
  - { offset: 0x4B2F87, size: 0x8, addend: 0x0, symName: __ZNKSt3__110__function6__funcIZN23llm_graph_context_mamba17build_mamba_layerEP18llm_graph_input_rsP11ggml_tensorRK11llama_modelRK12llama_ubatchiEUlP12ggml_contextS6_S6_E_NS_9allocatorISF_EEFS6_SE_S6_S6_EE6targetERKSt9type_info, symObjAddr: 0x5D980, symBinAddr: 0xBE4A0, symSize: 0x20 }
  - { offset: 0x4B2FF5, size: 0x8, addend: 0x0, symName: __ZNKSt3__110__function6__funcIZN23llm_graph_context_mamba17build_mamba_layerEP18llm_graph_input_rsP11ggml_tensorRK11llama_modelRK12llama_ubatchiEUlP12ggml_contextS6_S6_E_NS_9allocatorISF_EEFS6_SE_S6_S6_EE11target_typeEv, symObjAddr: 0x5D9A0, symBinAddr: 0xBE4C0, symSize: 0x10 }
  - { offset: 0x4B301A, size: 0x8, addend: 0x0, symName: __ZN15llm_build_jambaD1Ev, symObjAddr: 0x5DF60, symBinAddr: 0xBEA80, symSize: 0x10 }
  - { offset: 0x4B3046, size: 0x8, addend: 0x0, symName: __ZN15llm_build_jambaD0Ev, symObjAddr: 0x5DF70, symBinAddr: 0xBEA90, symSize: 0x10 }
  - { offset: 0x4B3072, size: 0x8, addend: 0x0, symName: __ZN16llm_build_xverseD1Ev, symObjAddr: 0x5E550, symBinAddr: 0xBF070, symSize: 0x10 }
  - { offset: 0x4B309E, size: 0x8, addend: 0x0, symName: __ZN16llm_build_xverseD0Ev, symObjAddr: 0x5E560, symBinAddr: 0xBF080, symSize: 0x10 }
  - { offset: 0x4B30CA, size: 0x8, addend: 0x0, symName: __ZN19llm_build_command_rD1Ev, symObjAddr: 0x5EC70, symBinAddr: 0xBF790, symSize: 0x10 }
  - { offset: 0x4B30F6, size: 0x8, addend: 0x0, symName: __ZN19llm_build_command_rD0Ev, symObjAddr: 0x5EC80, symBinAddr: 0xBF7A0, symSize: 0x10 }
  - { offset: 0x4B3122, size: 0x8, addend: 0x0, symName: __ZN22llm_build_cohere2_iswaD1Ev, symObjAddr: 0x5F390, symBinAddr: 0xBFEB0, symSize: 0x10 }
  - { offset: 0x4B314E, size: 0x8, addend: 0x0, symName: __ZN22llm_build_cohere2_iswaD0Ev, symObjAddr: 0x5F3A0, symBinAddr: 0xBFEC0, symSize: 0x10 }
  - { offset: 0x4B317A, size: 0x8, addend: 0x0, symName: __ZN14llm_build_dbrxD1Ev, symObjAddr: 0x5FA00, symBinAddr: 0xC0520, symSize: 0x10 }
  - { offset: 0x4B31A6, size: 0x8, addend: 0x0, symName: __ZN14llm_build_dbrxD0Ev, symObjAddr: 0x5FA10, symBinAddr: 0xC0530, symSize: 0x10 }
  - { offset: 0x4B31D2, size: 0x8, addend: 0x0, symName: __ZN14llm_build_olmoD1Ev, symObjAddr: 0x600C0, symBinAddr: 0xC0BE0, symSize: 0x10 }
  - { offset: 0x4B31FE, size: 0x8, addend: 0x0, symName: __ZN14llm_build_olmoD0Ev, symObjAddr: 0x600D0, symBinAddr: 0xC0BF0, symSize: 0x10 }
  - { offset: 0x4B322A, size: 0x8, addend: 0x0, symName: __ZN15llm_build_olmo2D1Ev, symObjAddr: 0x60750, symBinAddr: 0xC1270, symSize: 0x10 }
  - { offset: 0x4B3256, size: 0x8, addend: 0x0, symName: __ZN15llm_build_olmo2D0Ev, symObjAddr: 0x60760, symBinAddr: 0xC1280, symSize: 0x10 }
  - { offset: 0x4B3282, size: 0x8, addend: 0x0, symName: __ZN15llm_build_olmoeD1Ev, symObjAddr: 0x60DC0, symBinAddr: 0xC18E0, symSize: 0x10 }
  - { offset: 0x4B32AE, size: 0x8, addend: 0x0, symName: __ZN15llm_build_olmoeD0Ev, symObjAddr: 0x60DD0, symBinAddr: 0xC18F0, symSize: 0x10 }
  - { offset: 0x4B32DA, size: 0x8, addend: 0x0, symName: __ZN17llm_build_openelmD1Ev, symObjAddr: 0x61490, symBinAddr: 0xC1FB0, symSize: 0x10 }
  - { offset: 0x4B3306, size: 0x8, addend: 0x0, symName: __ZN17llm_build_openelmD0Ev, symObjAddr: 0x614A0, symBinAddr: 0xC1FC0, symSize: 0x10 }
  - { offset: 0x4B3332, size: 0x8, addend: 0x0, symName: __ZN17llm_build_gptneoxD1Ev, symObjAddr: 0x61BE0, symBinAddr: 0xC2700, symSize: 0x10 }
  - { offset: 0x4B335E, size: 0x8, addend: 0x0, symName: __ZN17llm_build_gptneoxD0Ev, symObjAddr: 0x61BF0, symBinAddr: 0xC2710, symSize: 0x10 }
  - { offset: 0x4B338A, size: 0x8, addend: 0x0, symName: __ZN16llm_build_arcticD1Ev, symObjAddr: 0x622D0, symBinAddr: 0xC2DF0, symSize: 0x10 }
  - { offset: 0x4B33B6, size: 0x8, addend: 0x0, symName: __ZN16llm_build_arcticD0Ev, symObjAddr: 0x622E0, symBinAddr: 0xC2E00, symSize: 0x10 }
  - { offset: 0x4B33E2, size: 0x8, addend: 0x0, symName: __ZN18llm_build_deepseekD1Ev, symObjAddr: 0x62B50, symBinAddr: 0xC3670, symSize: 0x10 }
  - { offset: 0x4B340E, size: 0x8, addend: 0x0, symName: __ZN18llm_build_deepseekD0Ev, symObjAddr: 0x62B60, symBinAddr: 0xC3680, symSize: 0x10 }
  - { offset: 0x4B343A, size: 0x8, addend: 0x0, symName: __ZN19llm_build_deepseek2D1Ev, symObjAddr: 0x63950, symBinAddr: 0xC4470, symSize: 0x10 }
  - { offset: 0x4B3466, size: 0x8, addend: 0x0, symName: __ZN19llm_build_deepseek2D0Ev, symObjAddr: 0x63960, symBinAddr: 0xC4480, symSize: 0x10 }
  - { offset: 0x4B3492, size: 0x8, addend: 0x0, symName: __ZN17llm_build_chatglmD1Ev, symObjAddr: 0x640A0, symBinAddr: 0xC4BC0, symSize: 0x10 }
  - { offset: 0x4B34BE, size: 0x8, addend: 0x0, symName: __ZN17llm_build_chatglmD0Ev, symObjAddr: 0x640B0, symBinAddr: 0xC4BD0, symSize: 0x10 }
  - { offset: 0x4B34EA, size: 0x8, addend: 0x0, symName: __ZN14llm_build_glm4D1Ev, symObjAddr: 0x64850, symBinAddr: 0xC5370, symSize: 0x10 }
  - { offset: 0x4B3516, size: 0x8, addend: 0x0, symName: __ZN14llm_build_glm4D0Ev, symObjAddr: 0x64860, symBinAddr: 0xC5380, symSize: 0x10 }
  - { offset: 0x4B3542, size: 0x8, addend: 0x0, symName: __ZN18llm_build_glm4_moeD1Ev, symObjAddr: 0x65070, symBinAddr: 0xC5B90, symSize: 0x10 }
  - { offset: 0x4B356E, size: 0x8, addend: 0x0, symName: __ZN18llm_build_glm4_moeD0Ev, symObjAddr: 0x65080, symBinAddr: 0xC5BA0, symSize: 0x10 }
  - { offset: 0x4B359A, size: 0x8, addend: 0x0, symName: __ZN16llm_build_bitnetD1Ev, symObjAddr: 0x658B0, symBinAddr: 0xC63D0, symSize: 0x10 }
  - { offset: 0x4B35C6, size: 0x8, addend: 0x0, symName: __ZN16llm_build_bitnetD0Ev, symObjAddr: 0x658C0, symBinAddr: 0xC63E0, symSize: 0x10 }
  - { offset: 0x4B35F2, size: 0x8, addend: 0x0, symName: __ZN16llm_build_t5_encD1Ev, symObjAddr: 0x65D90, symBinAddr: 0xC68B0, symSize: 0x10 }
  - { offset: 0x4B361E, size: 0x8, addend: 0x0, symName: __ZN16llm_build_t5_encD0Ev, symObjAddr: 0x65DA0, symBinAddr: 0xC68C0, symSize: 0x10 }
  - { offset: 0x4B364A, size: 0x8, addend: 0x0, symName: __ZN16llm_build_t5_decD1Ev, symObjAddr: 0x664B0, symBinAddr: 0xC6FD0, symSize: 0x10 }
  - { offset: 0x4B3676, size: 0x8, addend: 0x0, symName: __ZN16llm_build_t5_decD0Ev, symObjAddr: 0x664C0, symBinAddr: 0xC6FE0, symSize: 0x10 }
  - { offset: 0x4B36A2, size: 0x8, addend: 0x0, symName: __ZN14llm_build_jaisD1Ev, symObjAddr: 0x66A60, symBinAddr: 0xC7580, symSize: 0x10 }
  - { offset: 0x4B36CE, size: 0x8, addend: 0x0, symName: __ZN14llm_build_jaisD0Ev, symObjAddr: 0x66A70, symBinAddr: 0xC7590, symSize: 0x10 }
  - { offset: 0x4B36FA, size: 0x8, addend: 0x0, symName: __ZN18llm_build_nemotronD1Ev, symObjAddr: 0x67100, symBinAddr: 0xC7C20, symSize: 0x10 }
  - { offset: 0x4B3726, size: 0x8, addend: 0x0, symName: __ZN18llm_build_nemotronD0Ev, symObjAddr: 0x67110, symBinAddr: 0xC7C30, symSize: 0x10 }
  - { offset: 0x4B3752, size: 0x8, addend: 0x0, symName: __ZN16llm_build_exaoneD1Ev, symObjAddr: 0x67840, symBinAddr: 0xC8360, symSize: 0x10 }
  - { offset: 0x4B377E, size: 0x8, addend: 0x0, symName: __ZN16llm_build_exaoneD0Ev, symObjAddr: 0x67850, symBinAddr: 0xC8370, symSize: 0x10 }
  - { offset: 0x4B37AA, size: 0x8, addend: 0x0, symName: __ZN17llm_build_exaone4ILb1EED1Ev, symObjAddr: 0x67F70, symBinAddr: 0xC8A90, symSize: 0x10 }
  - { offset: 0x4B37D6, size: 0x8, addend: 0x0, symName: __ZN17llm_build_exaone4ILb1EED0Ev, symObjAddr: 0x67F80, symBinAddr: 0xC8AA0, symSize: 0x10 }
  - { offset: 0x4B3802, size: 0x8, addend: 0x0, symName: __ZN17llm_build_exaone4ILb0EED1Ev, symObjAddr: 0x686A0, symBinAddr: 0xC91C0, symSize: 0x10 }
  - { offset: 0x4B382E, size: 0x8, addend: 0x0, symName: __ZN17llm_build_exaone4ILb0EED0Ev, symObjAddr: 0x686B0, symBinAddr: 0xC91D0, symSize: 0x10 }
  - { offset: 0x4B3891, size: 0x8, addend: 0x0, symName: __ZNK20llm_build_rwkv6_base20build_rwkv6_time_mixEP18llm_graph_input_rsP11ggml_tensorS3_RK12llama_ubatchi, symObjAddr: 0x68D70, symBinAddr: 0xC9890, symSize: 0xD20 }
  - { offset: 0x4B46A9, size: 0x8, addend: 0x0, symName: __ZNK20llm_build_rwkv6_base23build_rwkv6_channel_mixEPK11llama_layerP11ggml_tensorS4_8llm_arch, symObjAddr: 0x69A90, symBinAddr: 0xCA5B0, symSize: 0x130 }
  - { offset: 0x4B48E2, size: 0x8, addend: 0x0, symName: __ZN15llm_build_rwkv6D1Ev, symObjAddr: 0x69BC0, symBinAddr: 0xCA6E0, symSize: 0x10 }
  - { offset: 0x4B490E, size: 0x8, addend: 0x0, symName: __ZN15llm_build_rwkv6D0Ev, symObjAddr: 0x69BD0, symBinAddr: 0xCA6F0, symSize: 0x10 }
  - { offset: 0x4B493A, size: 0x8, addend: 0x0, symName: __ZN20llm_build_rwkv6qwen2D1Ev, symObjAddr: 0x6A0A0, symBinAddr: 0xCABC0, symSize: 0x10 }
  - { offset: 0x4B4966, size: 0x8, addend: 0x0, symName: __ZN20llm_build_rwkv6qwen2D0Ev, symObjAddr: 0x6A0B0, symBinAddr: 0xCABD0, symSize: 0x10 }
  - { offset: 0x4B4A3A, size: 0x8, addend: 0x0, symName: __ZNK20llm_build_rwkv7_base20build_rwkv7_time_mixEP18llm_graph_input_rsP11ggml_tensorS3_RS3_RK12llama_ubatchi, symObjAddr: 0x6A750, symBinAddr: 0xCB270, symSize: 0xAB0 }
  - { offset: 0x4B5726, size: 0x8, addend: 0x0, symName: __ZN15llm_build_rwkv7D1Ev, symObjAddr: 0x6B200, symBinAddr: 0xCBD20, symSize: 0x10 }
  - { offset: 0x4B5752, size: 0x8, addend: 0x0, symName: __ZN15llm_build_rwkv7D0Ev, symObjAddr: 0x6B210, symBinAddr: 0xCBD30, symSize: 0x10 }
  - { offset: 0x4B577E, size: 0x8, addend: 0x0, symName: __ZN16llm_build_arwkv7D1Ev, symObjAddr: 0x6B700, symBinAddr: 0xCC220, symSize: 0x10 }
  - { offset: 0x4B57AA, size: 0x8, addend: 0x0, symName: __ZN16llm_build_arwkv7D0Ev, symObjAddr: 0x6B710, symBinAddr: 0xCC230, symSize: 0x10 }
  - { offset: 0x4B57D6, size: 0x8, addend: 0x0, symName: __ZN17llm_build_granite15build_layer_ffnEP11ggml_tensorS1_RK11llama_modeli, symObjAddr: 0x6BEE0, symBinAddr: 0xCCA00, symSize: 0x320 }
  - { offset: 0x4B5950, size: 0x8, addend: 0x0, symName: __ZN17llm_build_granite21build_attention_layerEP11ggml_tensorS1_P31llm_graph_input_attn_kv_unifiedRK11llama_modelxi, symObjAddr: 0x6BA80, symBinAddr: 0xCC5A0, symSize: 0x460 }
  - { offset: 0x4B5C38, size: 0x8, addend: 0x0, symName: __ZN17llm_build_graniteD1Ev, symObjAddr: 0x6C200, symBinAddr: 0xCCD20, symSize: 0x10 }
  - { offset: 0x4B5C64, size: 0x8, addend: 0x0, symName: __ZN17llm_build_graniteD0Ev, symObjAddr: 0x6C210, symBinAddr: 0xCCD30, symSize: 0x10 }
  - { offset: 0x4B5C90, size: 0x8, addend: 0x0, symName: __ZN24llm_build_granite_hybrid15build_layer_ffnEP11ggml_tensorS1_RK11llama_modeli, symObjAddr: 0x6C940, symBinAddr: 0xCD460, symSize: 0x320 }
  - { offset: 0x4B5E0A, size: 0x8, addend: 0x0, symName: __ZN24llm_build_granite_hybrid21build_attention_layerEP11ggml_tensorS1_P31llm_graph_input_attn_kv_unifiedRK11llama_modelxi, symObjAddr: 0x6C4E0, symBinAddr: 0xCD000, symSize: 0x460 }
  - { offset: 0x4B60F2, size: 0x8, addend: 0x0, symName: __ZN24llm_build_granite_hybridD1Ev, symObjAddr: 0x6CC60, symBinAddr: 0xCD780, symSize: 0x10 }
  - { offset: 0x4B611E, size: 0x8, addend: 0x0, symName: __ZN24llm_build_granite_hybridD0Ev, symObjAddr: 0x6CC70, symBinAddr: 0xCD790, symSize: 0x10 }
  - { offset: 0x4B616C, size: 0x8, addend: 0x0, symName: __ZN19llm_build_chameleonD1Ev, symObjAddr: 0x6D560, symBinAddr: 0xCE080, symSize: 0x10 }
  - { offset: 0x4B6198, size: 0x8, addend: 0x0, symName: __ZN19llm_build_chameleonD0Ev, symObjAddr: 0x6D570, symBinAddr: 0xCE090, symSize: 0x10 }
  - { offset: 0x4B6239, size: 0x8, addend: 0x0, symName: __ZN26llm_build_wavtokenizer_decD1Ev, symObjAddr: 0x6DBD0, symBinAddr: 0xCE6F0, symSize: 0x10 }
  - { offset: 0x4B6265, size: 0x8, addend: 0x0, symName: __ZN26llm_build_wavtokenizer_decD0Ev, symObjAddr: 0x6DBE0, symBinAddr: 0xCE700, symSize: 0x10 }
  - { offset: 0x4B6291, size: 0x8, addend: 0x0, symName: __ZN13llm_build_plmD1Ev, symObjAddr: 0x6E560, symBinAddr: 0xCF080, symSize: 0x10 }
  - { offset: 0x4B62BD, size: 0x8, addend: 0x0, symName: __ZN13llm_build_plmD0Ev, symObjAddr: 0x6E570, symBinAddr: 0xCF090, symSize: 0x10 }
  - { offset: 0x4B62E9, size: 0x8, addend: 0x0, symName: __ZN20llm_build_bailingmoeD1Ev, symObjAddr: 0x6ECE0, symBinAddr: 0xCF800, symSize: 0x10 }
  - { offset: 0x4B6315, size: 0x8, addend: 0x0, symName: __ZN20llm_build_bailingmoeD0Ev, symObjAddr: 0x6ECF0, symBinAddr: 0xCF810, symSize: 0x10 }
  - { offset: 0x4B6341, size: 0x8, addend: 0x0, symName: __ZN15llm_build_dots1D1Ev, symObjAddr: 0x6F480, symBinAddr: 0xCFFA0, symSize: 0x10 }
  - { offset: 0x4B636D, size: 0x8, addend: 0x0, symName: __ZN15llm_build_dots1D0Ev, symObjAddr: 0x6F490, symBinAddr: 0xCFFB0, symSize: 0x10 }
  - { offset: 0x4B6399, size: 0x8, addend: 0x0, symName: __ZN15llm_build_arceeD1Ev, symObjAddr: 0x6FBF0, symBinAddr: 0xD0710, symSize: 0x10 }
  - { offset: 0x4B63C5, size: 0x8, addend: 0x0, symName: __ZN15llm_build_arceeD0Ev, symObjAddr: 0x6FC00, symBinAddr: 0xD0720, symSize: 0x10 }
  - { offset: 0x4B63F1, size: 0x8, addend: 0x0, symName: __ZN18llm_build_ernie4_5D1Ev, symObjAddr: 0x70290, symBinAddr: 0xD0DB0, symSize: 0x10 }
  - { offset: 0x4B641D, size: 0x8, addend: 0x0, symName: __ZN18llm_build_ernie4_5D0Ev, symObjAddr: 0x702A0, symBinAddr: 0xD0DC0, symSize: 0x10 }
  - { offset: 0x4B6449, size: 0x8, addend: 0x0, symName: __ZN22llm_build_ernie4_5_moeD1Ev, symObjAddr: 0x70B60, symBinAddr: 0xD1680, symSize: 0x10 }
  - { offset: 0x4B6475, size: 0x8, addend: 0x0, symName: __ZN22llm_build_ernie4_5_moeD0Ev, symObjAddr: 0x70B70, symBinAddr: 0xD1690, symSize: 0x10 }
  - { offset: 0x4B64A1, size: 0x8, addend: 0x0, symName: __ZN21llm_build_hunyuan_moeD1Ev, symObjAddr: 0x713D0, symBinAddr: 0xD1EF0, symSize: 0x10 }
  - { offset: 0x4B64CD, size: 0x8, addend: 0x0, symName: __ZN21llm_build_hunyuan_moeD0Ev, symObjAddr: 0x713E0, symBinAddr: 0xD1F00, symSize: 0x10 }
  - { offset: 0x4B64F9, size: 0x8, addend: 0x0, symName: __ZN23llm_build_hunyuan_denseD1Ev, symObjAddr: 0x71B90, symBinAddr: 0xD26B0, symSize: 0x10 }
  - { offset: 0x4B6525, size: 0x8, addend: 0x0, symName: __ZN23llm_build_hunyuan_denseD0Ev, symObjAddr: 0x71BA0, symBinAddr: 0xD26C0, symSize: 0x10 }
  - { offset: 0x4B6551, size: 0x8, addend: 0x0, symName: __ZN17llm_build_smollm3D1Ev, symObjAddr: 0x722E0, symBinAddr: 0xD2E00, symSize: 0x10 }
  - { offset: 0x4B657D, size: 0x8, addend: 0x0, symName: __ZN17llm_build_smollm3D0Ev, symObjAddr: 0x722F0, symBinAddr: 0xD2E10, symSize: 0x10 }
  - { offset: 0x4B65A9, size: 0x8, addend: 0x0, symName: __ZN25llm_build_openai_moe_iswaD1Ev, symObjAddr: 0x72990, symBinAddr: 0xD34B0, symSize: 0x10 }
  - { offset: 0x4B65D5, size: 0x8, addend: 0x0, symName: __ZN25llm_build_openai_moe_iswaD0Ev, symObjAddr: 0x729A0, symBinAddr: 0xD34C0, symSize: 0x10 }
  - { offset: 0x4B6601, size: 0x8, addend: 0x0, symName: __ZN19llm_build_falcon_h1D1Ev, symObjAddr: 0x73010, symBinAddr: 0xD3B30, symSize: 0x10 }
  - { offset: 0x4B662D, size: 0x8, addend: 0x0, symName: __ZN19llm_build_falcon_h1D0Ev, symObjAddr: 0x73020, symBinAddr: 0xD3B40, symSize: 0x10 }
  - { offset: 0x4B6659, size: 0x8, addend: 0x0, symName: __ZNK14llm_build_lfm218build_feed_forwardEP11ggml_tensori, symObjAddr: 0x73C90, symBinAddr: 0xD47B0, symSize: 0x180 }
  - { offset: 0x4B673D, size: 0x8, addend: 0x0, symName: __ZN14llm_build_lfm221build_shortconv_blockEP11ggml_tensorP18llm_graph_input_rsi, symObjAddr: 0x732A0, symBinAddr: 0xD3DC0, symSize: 0x680 }
  - { offset: 0x4B6F07, size: 0x8, addend: 0x0, symName: __ZNK14llm_build_lfm216build_attn_blockEP11ggml_tensorS1_P31llm_graph_input_attn_kv_unifiedi, symObjAddr: 0x73920, symBinAddr: 0xD4440, symSize: 0x370 }
  - { offset: 0x4B7146, size: 0x8, addend: 0x0, symName: __ZN14llm_build_lfm2D1Ev, symObjAddr: 0x73E10, symBinAddr: 0xD4930, symSize: 0x10 }
  - { offset: 0x4B7172, size: 0x8, addend: 0x0, symName: __ZN14llm_build_lfm2D0Ev, symObjAddr: 0x73E20, symBinAddr: 0xD4940, symSize: 0x10 }
  - { offset: 0x4B719E, size: 0x8, addend: 0x0, symName: __ZN22llm_build_smallthinkerILb1EED1Ev, symObjAddr: 0x74470, symBinAddr: 0xD4F90, symSize: 0x10 }
  - { offset: 0x4B71CA, size: 0x8, addend: 0x0, symName: __ZN22llm_build_smallthinkerILb1EED0Ev, symObjAddr: 0x74480, symBinAddr: 0xD4FA0, symSize: 0x10 }
  - { offset: 0x4B71F6, size: 0x8, addend: 0x0, symName: __ZN22llm_build_smallthinkerILb0EED1Ev, symObjAddr: 0x74AD0, symBinAddr: 0xD55F0, symSize: 0x10 }
  - { offset: 0x4B7222, size: 0x8, addend: 0x0, symName: __ZN22llm_build_smallthinkerILb0EED0Ev, symObjAddr: 0x74AE0, symBinAddr: 0xD5600, symSize: 0x10 }
  - { offset: 0x4B72D7, size: 0x8, addend: 0x0, symName: __GLOBAL__sub_I_llama_model.cpp, symObjAddr: 0x79D70, symBinAddr: 0xD58A0, symSize: 0x91 }
  - { offset: 0x4B97CE, size: 0x8, addend: 0x0, symName: __ZL25llama_model_quantize_implRKNSt3__112basic_stringIcNS_11char_traitsIcEENS_9allocatorIcEEEES7_PK27llama_model_quantize_params, symObjAddr: 0x260, symBinAddr: 0xD5BA0, symSize: 0x7420 }
  - { offset: 0x4F3450, size: 0x8, addend: 0x0, symName: '__ZNSt3__111__introsortINS_17_ClassicAlgPolicyERZL25llama_model_quantize_implRKNS_12basic_stringIcNS_11char_traitsIcEENS_9allocatorIcEEEES9_PK27llama_model_quantize_paramsE3$_0PPKN18llama_model_loader19llama_tensor_weightELb0EEEvT1_SK_T0_NS_15iterator_traitsISK_E15difference_typeEb', symObjAddr: 0x142B0, symBinAddr: 0xDD910, symSize: 0x910 }
  - { offset: 0x4F407C, size: 0x8, addend: 0x0, symName: '__ZNSt3__127__insertion_sort_incompleteB8ne190102INS_17_ClassicAlgPolicyERZL25llama_model_quantize_implRKNS_12basic_stringIcNS_11char_traitsIcEENS_9allocatorIcEEEES9_PK27llama_model_quantize_paramsE3$_0PPKN18llama_model_loader19llama_tensor_weightEEEbT1_SK_T0_', symObjAddr: 0x14D70, symBinAddr: 0xDE3D0, symSize: 0x1F0 }
  - { offset: 0x50A8D4, size: 0x8, addend: 0x0, symName: '__ZNSt3__17__sort3B8ne190102INS_17_ClassicAlgPolicyERZL25llama_model_quantize_implRKNS_12basic_stringIcNS_11char_traitsIcEENS_9allocatorIcEEEES9_PK27llama_model_quantize_paramsE3$_0PPKN18llama_model_loader19llama_tensor_weightEEEjT1_SK_SK_T0_', symObjAddr: 0x14CD0, symBinAddr: 0xDE330, symSize: 0xA0 }
  - { offset: 0x50AC2F, size: 0x8, addend: 0x0, symName: '__ZNSt3__124__sort5_maybe_branchlessB8ne190102INS_17_ClassicAlgPolicyERZL25llama_model_quantize_implRKNS_12basic_stringIcNS_11char_traitsIcEENS_9allocatorIcEEEES9_PK27llama_model_quantize_paramsE3$_0PPKN18llama_model_loader19llama_tensor_weightELi0EEEvT1_SK_SK_SK_SK_T0_', symObjAddr: 0x14BC0, symBinAddr: 0xDE220, symSize: 0x110 }
  - { offset: 0x50B7AD, size: 0x8, addend: 0x0, symName: '__ZNSt3__114__thread_proxyB8ne190102INS_5tupleIJNS_10unique_ptrINS_15__thread_structENS_14default_deleteIS3_EEEEZL28llama_tensor_dequantize_implP11ggml_tensorRNS_6vectorI7no_initIfENS_9allocatorISB_EEEERNS9_INS_6threadENSC_ISG_EEEEmiE3$_09ggml_typePhPfmEEEEEPvSP_', symObjAddr: 0x19670, symBinAddr: 0xDECC0, symSize: 0xB0 }
  - { offset: 0x50BC03, size: 0x8, addend: 0x0, symName: '__ZNSt3__114__thread_proxyB8ne190102INS_5tupleIJNS_10unique_ptrINS_15__thread_structENS_14default_deleteIS3_EEEEZL26llama_tensor_quantize_impl9ggml_typePKfPvxxxS9_RNS_6vectorINS_6threadENS_9allocatorISC_EEEEiE3$_0EEEEESA_SA_', symObjAddr: 0x198B0, symBinAddr: 0xDEEC0, symSize: 0x80 }
  - { offset: 0x51070A, size: 0x8, addend: 0x0, symName: _llama_model_quantize_default_params, symObjAddr: 0x0, symBinAddr: 0xD5940, symSize: 0x40 }
  - { offset: 0x5109F6, size: 0x8, addend: 0x0, symName: _llama_model_quantize, symObjAddr: 0x40, symBinAddr: 0xD5980, symSize: 0x220 }
  - { offset: 0x518CE6, size: 0x8, addend: 0x0, symName: __ZNSt3__16vectorIiNS_9allocatorIiEEE18__assign_with_sizeB8ne190102IPiS5_EEvT_T0_l, symObjAddr: 0x8050, symBinAddr: 0xDD7B0, symSize: 0x150 }
  - { offset: 0x51A452, size: 0x8, addend: 0x0, symName: '__ZZL25llama_model_quantize_implRKNSt3__112basic_stringIcNS_11char_traitsIcEENS_9allocatorIcEEEES7_PK27llama_model_quantize_paramsENK3$_2clEi', symObjAddr: 0x7770, symBinAddr: 0xDCFC0, symSize: 0x460 }
  - { offset: 0x51B38B, size: 0x8, addend: 0x0, symName: '__ZZL25llama_model_quantize_implRKNSt3__112basic_stringIcNS_11char_traitsIcEENS_9allocatorIcEEEES7_PK27llama_model_quantize_paramsENK3$_1clEv', symObjAddr: 0x7BD0, symBinAddr: 0xDD420, symSize: 0x250 }
  - { offset: 0x51BBF0, size: 0x8, addend: 0x0, symName: __ZNKSt3__112__hash_tableINS_17__hash_value_typeINS_12basic_stringIcNS_11char_traitsIcEENS_9allocatorIcEEEENS_6vectorIfNS5_IfEEEEEENS_22__unordered_map_hasherIS7_SB_NS_4hashIS7_EENS_8equal_toIS7_EELb1EEENS_21__unordered_map_equalIS7_SB_SG_SE_Lb1EEENS5_ISB_EEE4findIS7_EENS_21__hash_const_iteratorIPNS_11__hash_nodeISB_PvEEEERKT_, symObjAddr: 0x18E00, symBinAddr: 0xDE900, symSize: 0x290 }
  - { offset: 0x51BEEE, size: 0x8, addend: 0x0, symName: __ZNSt3__16vectorI7no_initIfENS_9allocatorIS2_EEE8__appendEm, symObjAddr: 0x19540, symBinAddr: 0xDEB90, symSize: 0x120 }
  - { offset: 0x51C5E5, size: 0x8, addend: 0x0, symName: '__ZZL21llama_tensor_get_typeR19quantize_state_impl9ggml_typePK11ggml_tensor11llama_ftypeENK3$_1clEiiPKc', symObjAddr: 0x15190, symBinAddr: 0xDE7D0, symSize: 0x130 }
  - { offset: 0x51C8A0, size: 0x8, addend: 0x0, symName: __ZNSt3__16__treeINS_12__value_typeIiNS_12basic_stringIcNS_11char_traitsIcEENS_9allocatorIcEEEEEENS_19__map_value_compareIiS8_NS_4lessIiEELb1EEENS5_IS8_EEE7destroyEPNS_11__tree_nodeIS8_PvEE, symObjAddr: 0x19980, symBinAddr: 0xDEF90, symSize: 0x50 }
  - { offset: 0x51CB75, size: 0x8, addend: 0x0, symName: __ZN18llama_model_loaderD2Ev, symObjAddr: 0x199D0, symBinAddr: 0xDEFE0, symSize: 0x1F0 }
  - { offset: 0x51D903, size: 0x8, addend: 0x0, symName: __ZNKSt3__16vectorINS_6threadENS_9allocatorIS1_EEE20__throw_length_errorB8ne190102Ev, symObjAddr: 0x14F60, symBinAddr: 0xDE5C0, symSize: 0x10 }
  - { offset: 0x51D92D, size: 0x8, addend: 0x0, symName: __ZNSt3__114__split_bufferINS_6threadERNS_9allocatorIS1_EEED1Ev, symObjAddr: 0x14F70, symBinAddr: 0xDE5D0, symSize: 0x50 }
  - { offset: 0x51D968, size: 0x8, addend: 0x0, symName: __ZNKSt3__16vectorIPKN18llama_model_loader19llama_tensor_weightENS_9allocatorIS4_EEE20__throw_length_errorB8ne190102Ev, symObjAddr: 0x8270, symBinAddr: 0xDD900, symSize: 0x10 }
  - { offset: 0x51D9B5, size: 0x8, addend: 0x0, symName: '__ZZL21llama_tensor_get_typeR19quantize_state_impl9ggml_typePK11ggml_tensor11llama_ftypeENK3$_1clEiiPKc', symObjAddr: 0x15190, symBinAddr: 0xDE7D0, symSize: 0x130 }
  - { offset: 0x51D9C0, size: 0x8, addend: 0x0, symName: __ZNSt3__128__exception_guard_exceptionsINS_6vectorINS_10unique_ptrI12gguf_context20gguf_context_deleterEENS_9allocatorIS5_EEE16__destroy_vectorEED1B8ne190102Ev, symObjAddr: 0x14FC0, symBinAddr: 0xDE620, symSize: 0x80 }
  - { offset: 0x51DB8B, size: 0x8, addend: 0x0, symName: '__ZNSt3__110unique_ptrINS_5tupleIJNS0_INS_15__thread_structENS_14default_deleteIS2_EEEEZL28llama_tensor_dequantize_implP11ggml_tensorRNS_6vectorI7no_initIfENS_9allocatorISA_EEEERNS8_INS_6threadENSB_ISF_EEEEmiE3$_09ggml_typePhPfmEEENS3_ISN_EEED1B8ne190102Ev', symObjAddr: 0x19720, symBinAddr: 0xDED70, symSize: 0x50 }
  - { offset: 0x51DD86, size: 0x8, addend: 0x0, symName: __ZNSt3__114__split_bufferINS_6threadERNS_9allocatorIS1_EEED1Ev, symObjAddr: 0x14F70, symBinAddr: 0xDE5D0, symSize: 0x50 }
  - { offset: 0x51DFA4, size: 0x8, addend: 0x0, symName: '__ZNSt3__110unique_ptrINS_5tupleIJNS0_INS_15__thread_structENS_14default_deleteIS2_EEEEZL26llama_tensor_quantize_impl9ggml_typePKfPvxxxS8_RNS_6vectorINS_6threadENS_9allocatorISB_EEEEiE3$_0EEENS3_ISH_EEED1B8ne190102Ev', symObjAddr: 0x19930, symBinAddr: 0xDEF40, symSize: 0x50 }
  - { offset: 0x51E14E, size: 0x8, addend: 0x0, symName: __ZNSt3__114basic_ofstreamIcNS_11char_traitsIcEEED1Ev, symObjAddr: 0x7E70, symBinAddr: 0xDD670, symSize: 0x50 }
  - { offset: 0x51E196, size: 0x8, addend: 0x0, symName: __ZNSt3__16vectorINS_10unique_ptrI12gguf_context20gguf_context_deleterEENS_9allocatorIS4_EEED1B8ne190102Ev, symObjAddr: 0x7EC0, symBinAddr: 0xDD6C0, symSize: 0x80 }
  - { offset: 0x51E351, size: 0x8, addend: 0x0, symName: __ZNSt3__16vectorINS_6threadENS_9allocatorIS1_EEED1B8ne190102Ev, symObjAddr: 0x7F40, symBinAddr: 0xDD740, symSize: 0x70 }
  - { offset: 0x51EA79, size: 0x8, addend: 0x0, symName: __ZNSt3__114basic_ofstreamIcNS_11char_traitsIcEEEC1ERKNS_12basic_stringIcS2_NS_9allocatorIcEEEEj, symObjAddr: 0x15040, symBinAddr: 0xDE6A0, symSize: 0x130 }
  - { offset: 0x53CC95, size: 0x8, addend: 0x0, symName: __ZNKSt3__16vectorI7no_initIfENS_9allocatorIS2_EEE20__throw_length_errorB8ne190102Ev, symObjAddr: 0x19660, symBinAddr: 0xDECB0, symSize: 0x10 }
  - { offset: 0x53CCBF, size: 0x8, addend: 0x0, symName: '__ZNSt3__114__thread_proxyB8ne190102INS_5tupleIJNS_10unique_ptrINS_15__thread_structENS_14default_deleteIS3_EEEEZL28llama_tensor_dequantize_implP11ggml_tensorRNS_6vectorI7no_initIfENS_9allocatorISB_EEEERNS9_INS_6threadENSC_ISG_EEEEmiE3$_09ggml_typePhPfmEEEEEPvSP_', symObjAddr: 0x19670, symBinAddr: 0xDECC0, symSize: 0xB0 }
  - { offset: 0x53CF24, size: 0x8, addend: 0x0, symName: '__ZZL26llama_tensor_quantize_impl9ggml_typePKfPvxxxS1_RNSt3__16vectorINS3_6threadENS3_9allocatorIS5_EEEEiENK3$_0clEv', symObjAddr: 0x197B0, symBinAddr: 0xDEDC0, symSize: 0x100 }
  - { offset: 0x53FBE6, size: 0x8, addend: 0x0, symName: __ZL21llama_sampler_chain_i, symObjAddr: 0x20060, symBinAddr: 0x2943A8, symSize: 0x0 }
  - { offset: 0x53FD26, size: 0x8, addend: 0x0, symName: __ZL22llama_sampler_greedy_i, symObjAddr: 0x20090, symBinAddr: 0x2943D8, symSize: 0x0 }
  - { offset: 0x53FD34, size: 0x8, addend: 0x0, symName: __ZL12get_rng_seedj, symObjAddr: 0x7D0, symBinAddr: 0xDF9A0, symSize: 0x130 }
  - { offset: 0x53FD60, size: 0x8, addend: 0x0, symName: __ZZL12get_rng_seedjE10is_rd_prng, symObjAddr: 0x21FD60, symBinAddr: 0x309428, symSize: 0x0 }
  - { offset: 0x5400F9, size: 0x8, addend: 0x0, symName: __ZL20llama_sampler_dist_i, symObjAddr: 0x200C0, symBinAddr: 0x294408, symSize: 0x0 }
  - { offset: 0x540114, size: 0x8, addend: 0x0, symName: __ZL23llama_sampler_softmax_i, symObjAddr: 0x200F0, symBinAddr: 0x294438, symSize: 0x0 }
  - { offset: 0x54012F, size: 0x8, addend: 0x0, symName: __ZL21llama_sampler_top_k_i, symObjAddr: 0x20120, symBinAddr: 0x294468, symSize: 0x0 }
  - { offset: 0x54014A, size: 0x8, addend: 0x0, symName: __ZL21llama_sampler_top_p_i, symObjAddr: 0x20150, symBinAddr: 0x294498, symSize: 0x0 }
  - { offset: 0x540165, size: 0x8, addend: 0x0, symName: __ZL21llama_sampler_min_p_i, symObjAddr: 0x20180, symBinAddr: 0x2944C8, symSize: 0x0 }
  - { offset: 0x540180, size: 0x8, addend: 0x0, symName: __ZL23llama_sampler_typical_i, symObjAddr: 0x201B0, symBinAddr: 0x2944F8, symSize: 0x0 }
  - { offset: 0x553531, size: 0x8, addend: 0x0, symName: '__ZNSt3__111__introsortINS_17_ClassicAlgPolicyERZL26llama_sampler_softmax_implP22llama_token_data_arrayE3$_0P16llama_token_dataLb0EEEvT1_S8_T0_NS_15iterator_traitsIS8_E15difference_typeEb', symObjAddr: 0x3870, symBinAddr: 0xE29E0, symSize: 0xFC0 }
  - { offset: 0x555001, size: 0x8, addend: 0x0, symName: '__ZNSt3__127__insertion_sort_incompleteB8ne190102INS_17_ClassicAlgPolicyERZL26llama_sampler_softmax_implP22llama_token_data_arrayE3$_0P16llama_token_dataEEbT1_S8_T0_', symObjAddr: 0x4830, symBinAddr: 0xE39A0, symSize: 0x4C0 }
  - { offset: 0x55A2DC, size: 0x8, addend: 0x0, symName: '__ZNSt3__111__introsortINS_17_ClassicAlgPolicyERZL24llama_sampler_top_k_implP22llama_token_data_arrayiE3$_0P16llama_token_dataLb0EEEvT1_S8_T0_NS_15iterator_traitsIS8_E15difference_typeEb', symObjAddr: 0x61A0, symBinAddr: 0xE5240, symSize: 0xD60 }
  - { offset: 0x55BB02, size: 0x8, addend: 0x0, symName: '__ZNSt3__127__insertion_sort_incompleteB8ne190102INS_17_ClassicAlgPolicyERZL24llama_sampler_top_k_implP22llama_token_data_arrayiE3$_0P16llama_token_dataEEbT1_S8_T0_', symObjAddr: 0x6F00, symBinAddr: 0xE5FA0, symSize: 0x4C0 }
  - { offset: 0x55C501, size: 0x8, addend: 0x0, symName: '__ZNSt3__111__introsortINS_17_ClassicAlgPolicyERZL25llama_sampler_min_p_applyP13llama_samplerP22llama_token_data_arrayE3$_0P16llama_token_dataLb0EEEvT1_SA_T0_NS_15iterator_traitsISA_E15difference_typeEb', symObjAddr: 0x7D80, symBinAddr: 0xE6E20, symSize: 0xFC0 }
  - { offset: 0x55DF8D, size: 0x8, addend: 0x0, symName: '__ZNSt3__127__insertion_sort_incompleteB8ne190102INS_17_ClassicAlgPolicyERZL25llama_sampler_min_p_applyP13llama_samplerP22llama_token_data_arrayE3$_0P16llama_token_dataEEbT1_SA_T0_', symObjAddr: 0x8D40, symBinAddr: 0xE7DE0, symSize: 0x4C0 }
  - { offset: 0x5609DC, size: 0x8, addend: 0x0, symName: '__ZNSt3__111__introsortINS_17_ClassicAlgPolicyERZL27llama_sampler_typical_applyP13llama_samplerP22llama_token_data_arrayE3$_0PmLb0EEEvT1_S9_T0_NS_15iterator_traitsIS9_E15difference_typeEb', symObjAddr: 0x9E40, symBinAddr: 0xE8ED0, symSize: 0xAF0 }
  - { offset: 0x5625E6, size: 0x8, addend: 0x0, symName: '__ZNSt3__127__insertion_sort_incompleteB8ne190102INS_17_ClassicAlgPolicyERZL27llama_sampler_typical_applyP13llama_samplerP22llama_token_data_arrayE3$_0PmEEbT1_S9_T0_', symObjAddr: 0xAA80, symBinAddr: 0xE9B10, symSize: 0x320 }
  - { offset: 0x56B3D7, size: 0x8, addend: 0x0, symName: __ZNSt3__113regex_replaceB8ne190102INS_20back_insert_iteratorINS_12basic_stringIcNS_11char_traitsIcEENS_9allocatorIcEEEEEEPKcNS_12regex_traitsIcEEcEET_SD_T0_SE_RKNS_11basic_regexIT2_T1_EEPKSG_NS_15regex_constants15match_flag_typeE, symObjAddr: 0x16490, symBinAddr: 0xEC2E0, symSize: 0x300 }
  - { offset: 0x56DD7A, size: 0x8, addend: 0x0, symName: '__ZNSt3__17__sort4B8ne190102INS_17_ClassicAlgPolicyERZL26llama_sampler_softmax_implP22llama_token_data_arrayE3$_0P16llama_token_dataEEvT1_S8_S8_S8_T0_', symObjAddr: 0x4CF0, symBinAddr: 0xE3E60, symSize: 0x190 }
  - { offset: 0x56EB40, size: 0x8, addend: 0x0, symName: '__ZNSt3__119__partial_sort_implB8ne190102INS_17_ClassicAlgPolicyERZL24llama_sampler_top_k_implP22llama_token_data_arrayiE3$_0P16llama_token_dataS7_EET1_S8_S8_T2_OT0_', symObjAddr: 0x5D00, symBinAddr: 0xE4DB0, symSize: 0x470 }
  - { offset: 0x56F69A, size: 0x8, addend: 0x0, symName: '__ZNSt3__17__sort4B8ne190102INS_17_ClassicAlgPolicyERZL24llama_sampler_top_k_implP22llama_token_data_arrayiE3$_0P16llama_token_dataEEvT1_S8_S8_S8_T0_', symObjAddr: 0x73C0, symBinAddr: 0xE6460, symSize: 0x190 }
  - { offset: 0x5704C7, size: 0x8, addend: 0x0, symName: '__ZNSt3__17__sort4B8ne190102INS_17_ClassicAlgPolicyERZL25llama_sampler_min_p_applyP13llama_samplerP22llama_token_data_arrayE3$_0P16llama_token_dataEEvT1_SA_SA_SA_T0_', symObjAddr: 0x9200, symBinAddr: 0xE82A0, symSize: 0x190 }
  - { offset: 0x5717E8, size: 0x8, addend: 0x0, symName: '__ZNSt3__124__sort5_maybe_branchlessB8ne190102INS_17_ClassicAlgPolicyERZL27llama_sampler_typical_applyP13llama_samplerP22llama_token_data_arrayE3$_0PmLi0EEEvT1_S9_S9_S9_S9_T0_', symObjAddr: 0xA930, symBinAddr: 0xE99C0, symSize: 0x150 }
  - { offset: 0x5769C6, size: 0x8, addend: 0x0, symName: __ZL20llama_sampler_temp_i, symObjAddr: 0x201E0, symBinAddr: 0x294528, symSize: 0x0 }
  - { offset: 0x5769E1, size: 0x8, addend: 0x0, symName: __ZL24llama_sampler_temp_ext_i, symObjAddr: 0x20210, symBinAddr: 0x294558, symSize: 0x0 }
  - { offset: 0x5769FC, size: 0x8, addend: 0x0, symName: __ZL19llama_sampler_xtc_i, symObjAddr: 0x20240, symBinAddr: 0x294588, symSize: 0x0 }
  - { offset: 0x576A17, size: 0x8, addend: 0x0, symName: __ZL24llama_sampler_mirostat_i, symObjAddr: 0x20270, symBinAddr: 0x2945B8, symSize: 0x0 }
  - { offset: 0x576A32, size: 0x8, addend: 0x0, symName: __ZL27llama_sampler_mirostat_v2_i, symObjAddr: 0x202A0, symBinAddr: 0x2945E8, symSize: 0x0 }
  - { offset: 0x576A40, size: 0x8, addend: 0x0, symName: __ZL31llama_sampler_init_grammar_implPK11llama_vocabPKcS3_bPS3_mPKimS4_m, symObjAddr: 0xE10, symBinAddr: 0xDFFE0, symSize: 0x630 }
  - { offset: 0x576A61, size: 0x8, addend: 0x0, symName: __ZZL31llama_sampler_init_grammar_implPK11llama_vocabPKcS3_bPS3_mPKimS4_mE13special_chars, symObjAddr: 0x21FD70, symBinAddr: 0x309438, symSize: 0x0 }
  - { offset: 0x578886, size: 0x8, addend: 0x0, symName: __ZL23llama_sampler_grammar_i, symObjAddr: 0x203C0, symBinAddr: 0x294708, symSize: 0x0 }
  - { offset: 0x5788A1, size: 0x8, addend: 0x0, symName: __ZL25llama_sampler_penalties_i, symObjAddr: 0x202D0, symBinAddr: 0x294618, symSize: 0x0 }
  - { offset: 0x5788C1, size: 0x8, addend: 0x0, symName: __ZL27llama_sampler_top_n_sigma_i, symObjAddr: 0x20300, symBinAddr: 0x294648, symSize: 0x0 }
  - { offset: 0x5788DC, size: 0x8, addend: 0x0, symName: __ZL19llama_sampler_dry_i, symObjAddr: 0x20330, symBinAddr: 0x294678, symSize: 0x0 }
  - { offset: 0x5788F7, size: 0x8, addend: 0x0, symName: __ZL26llama_sampler_logit_bias_i, symObjAddr: 0x20360, symBinAddr: 0x2946A8, symSize: 0x0 }
  - { offset: 0x578912, size: 0x8, addend: 0x0, symName: __ZL22llama_sampler_infill_i, symObjAddr: 0x20390, symBinAddr: 0x2946D8, symSize: 0x0 }
  - { offset: 0x579936, size: 0x8, addend: 0x0, symName: __ZL17llama_sample_distP22llama_token_data_arrayRNSt3__123mersenne_twister_engineIjLm32ELm624ELm397ELm31ELj2567483615ELm11ELj4294967295ELm7ELj2636928640ELm15ELj4022730752ELm18ELj1812433253EEE, symObjAddr: 0x3630, symBinAddr: 0xE27A0, symSize: 0x240 }
  - { offset: 0x57BAA1, size: 0x8, addend: 0x0, symName: _llama_sampler_init, symObjAddr: 0x0, symBinAddr: 0xDF1D0, symSize: 0x30 }
  - { offset: 0x57BAC8, size: 0x8, addend: 0x0, symName: _llama_sampler_name, symObjAddr: 0x30, symBinAddr: 0xDF200, symSize: 0x20 }
  - { offset: 0x57BAFF, size: 0x8, addend: 0x0, symName: _llama_sampler_accept, symObjAddr: 0x50, symBinAddr: 0xDF220, symSize: 0x20 }
  - { offset: 0x57BB2E, size: 0x8, addend: 0x0, symName: _llama_sampler_apply, symObjAddr: 0x70, symBinAddr: 0xDF240, symSize: 0x40 }
  - { offset: 0x57BB90, size: 0x8, addend: 0x0, symName: _llama_sampler_reset, symObjAddr: 0xB0, symBinAddr: 0xDF280, symSize: 0x20 }
  - { offset: 0x57BBDF, size: 0x8, addend: 0x0, symName: _llama_sampler_clone, symObjAddr: 0xD0, symBinAddr: 0xDF2A0, symSize: 0x60 }
  - { offset: 0x57BC42, size: 0x8, addend: 0x0, symName: _llama_sampler_free, symObjAddr: 0x130, symBinAddr: 0xDF300, symSize: 0x30 }
  - { offset: 0x57C107, size: 0x8, addend: 0x0, symName: _llama_sampler_sample, symObjAddr: 0x160, symBinAddr: 0xDF330, symSize: 0x350 }
  - { offset: 0x57CAA3, size: 0x8, addend: 0x0, symName: __ZNKSt3__16vectorI16llama_token_dataNS_9allocatorIS1_EEE20__throw_length_errorB8ne190102Ev, symObjAddr: 0x6180, symBinAddr: 0xE5220, symSize: 0x10 }
  - { offset: 0x57CACD, size: 0x8, addend: 0x0, symName: __ZNKSt3__16vectorIP16llama_token_dataNS_9allocatorIS2_EEE20__throw_length_errorB8ne190102Ev, symObjAddr: 0x6190, symBinAddr: 0xE5230, symSize: 0x10 }
  - { offset: 0x57CAD8, size: 0x8, addend: 0x0, symName: _llama_sampler_chain_init, symObjAddr: 0x4B0, symBinAddr: 0xDF680, symSize: 0x50 }
  - { offset: 0x57CE51, size: 0x8, addend: 0x0, symName: _llama_sampler_chain_add, symObjAddr: 0x500, symBinAddr: 0xDF6D0, symSize: 0x120 }
  - { offset: 0x57D1F6, size: 0x8, addend: 0x0, symName: __ZNKSt3__16vectorIP13llama_samplerNS_9allocatorIS2_EEE20__throw_length_errorB8ne190102Ev, symObjAddr: 0x1EB80, symBinAddr: 0xF1BE0, symSize: 0x10 }
  - { offset: 0x57D22B, size: 0x8, addend: 0x0, symName: _llama_sampler_chain_get, symObjAddr: 0x620, symBinAddr: 0xDF7F0, symSize: 0x30 }
  - { offset: 0x57D3C8, size: 0x8, addend: 0x0, symName: _llama_sampler_chain_remove, symObjAddr: 0x650, symBinAddr: 0xDF820, symSize: 0x70 }
  - { offset: 0x57D616, size: 0x8, addend: 0x0, symName: _llama_sampler_chain_n, symObjAddr: 0x6C0, symBinAddr: 0xDF890, symSize: 0x20 }
  - { offset: 0x57D670, size: 0x8, addend: 0x0, symName: _llama_sampler_init_greedy, symObjAddr: 0x6E0, symBinAddr: 0xDF8B0, symSize: 0x30 }
  - { offset: 0x57D756, size: 0x8, addend: 0x0, symName: _llama_sampler_init_dist, symObjAddr: 0x710, symBinAddr: 0xDF8E0, symSize: 0xC0 }
  - { offset: 0x57DA62, size: 0x8, addend: 0x0, symName: __ZNSt3__113random_deviceC1B8ne190102Ev, symObjAddr: 0x3150, symBinAddr: 0xE22C0, symSize: 0x60 }
  - { offset: 0x57DDAA, size: 0x8, addend: 0x0, symName: _llama_sampler_init_softmax, symObjAddr: 0x900, symBinAddr: 0xDFAD0, symSize: 0x30 }
  - { offset: 0x57DDEC, size: 0x8, addend: 0x0, symName: _llama_sampler_init_top_k, symObjAddr: 0x930, symBinAddr: 0xDFB00, symSize: 0x40 }
  - { offset: 0x57DE30, size: 0x8, addend: 0x0, symName: _llama_sampler_init_top_p, symObjAddr: 0x970, symBinAddr: 0xDFB40, symSize: 0x50 }
  - { offset: 0x57DE7D, size: 0x8, addend: 0x0, symName: _llama_sampler_init_min_p, symObjAddr: 0x9C0, symBinAddr: 0xDFB90, symSize: 0x50 }
  - { offset: 0x57DECA, size: 0x8, addend: 0x0, symName: _llama_sampler_init_typical, symObjAddr: 0xA10, symBinAddr: 0xDFBE0, symSize: 0x50 }
  - { offset: 0x57DF17, size: 0x8, addend: 0x0, symName: _llama_sampler_init_temp, symObjAddr: 0xA60, symBinAddr: 0xDFC30, symSize: 0x40 }
  - { offset: 0x57DF5B, size: 0x8, addend: 0x0, symName: _llama_sampler_init_temp_ext, symObjAddr: 0xAA0, symBinAddr: 0xDFC70, symSize: 0x70 }
  - { offset: 0x57DFB1, size: 0x8, addend: 0x0, symName: _llama_sampler_init_xtc, symObjAddr: 0xB10, symBinAddr: 0xDFCE0, symSize: 0xF0 }
  - { offset: 0x57E0D3, size: 0x8, addend: 0x0, symName: _llama_sampler_init_mirostat, symObjAddr: 0xC00, symBinAddr: 0xDFDD0, symSize: 0x100 }
  - { offset: 0x57E1FE, size: 0x8, addend: 0x0, symName: _llama_sampler_init_mirostat_v2, symObjAddr: 0xD00, symBinAddr: 0xDFED0, symSize: 0xE0 }
  - { offset: 0x57E317, size: 0x8, addend: 0x0, symName: _llama_sampler_init_grammar, symObjAddr: 0xDE0, symBinAddr: 0xDFFB0, symSize: 0x30 }
  - { offset: 0x57E902, size: 0x8, addend: 0x0, symName: _llama_sampler_init_grammar_lazy, symObjAddr: 0x1440, symBinAddr: 0xE0610, symSize: 0x40 }
  - { offset: 0x57E9C4, size: 0x8, addend: 0x0, symName: _llama_sampler_init_grammar_lazy_patterns, symObjAddr: 0x1480, symBinAddr: 0xE0650, symSize: 0x30 }
  - { offset: 0x57EE5C, size: 0x8, addend: 0x0, symName: _llama_sampler_init_penalties, symObjAddr: 0x14B0, symBinAddr: 0xE0680, symSize: 0xF0 }
  - { offset: 0x57F231, size: 0x8, addend: 0x0, symName: _llama_sampler_init_top_n_sigma, symObjAddr: 0x15A0, symBinAddr: 0xE0770, symSize: 0x40 }
  - { offset: 0x580A19, size: 0x8, addend: 0x0, symName: _llama_sampler_init_dry, symObjAddr: 0x15E0, symBinAddr: 0xE07B0, symSize: 0xED0 }
  - { offset: 0x58427A, size: 0x8, addend: 0x0, symName: __ZNSt3__112__hash_tableINS_17__hash_value_typeIiNS_6vectorIiNS_9allocatorIiEEEEEENS_22__unordered_map_hasherIiS6_NS_4hashIiEENS_8equal_toIiEELb1EEENS_21__unordered_map_equalIiS6_SB_S9_Lb1EEENS3_IS6_EEE27__node_insert_multi_prepareEmRS6_, symObjAddr: 0x1B4F0, symBinAddr: 0xEE550, symSize: 0x370 }
  - { offset: 0x584576, size: 0x8, addend: 0x0, symName: __ZNSt3__112__hash_tableINS_17__hash_value_typeIiNS_6vectorIiNS_9allocatorIiEEEEEENS_22__unordered_map_hasherIiS6_NS_4hashIiEENS_8equal_toIiEELb1EEENS_21__unordered_map_equalIiS6_SB_S9_Lb1EEENS3_IS6_EEE19__node_insert_multiEPNS_11__hash_nodeIS6_PvEE, symObjAddr: 0x1B310, symBinAddr: 0xEE370, symSize: 0x190 }
  - { offset: 0x584789, size: 0x8, addend: 0x0, symName: __ZNKSt3__16vectorI16llama_token_dataNS_9allocatorIS1_EEE20__throw_length_errorB8ne190102Ev, symObjAddr: 0x6180, symBinAddr: 0xE5220, symSize: 0x10 }
  - { offset: 0x584930, size: 0x8, addend: 0x0, symName: __ZNSt3__118unordered_multimapIiNS_6vectorIiNS_9allocatorIiEEEENS_4hashIiEENS_8equal_toIiEENS2_INS_4pairIKiS4_EEEEED1B8ne190102Ev, symObjAddr: 0x2500, symBinAddr: 0xE1680, symSize: 0x70 }
  - { offset: 0x584D80, size: 0x8, addend: 0x0, symName: __ZNSt3__110unique_ptrINS_11__hash_nodeINS_17__hash_value_typeIiNS_6vectorIiNS_9allocatorIiEEEEEEPvEENS_22__hash_node_destructorINS4_IS9_EEEEED1B8ne190102Ev, symObjAddr: 0x1B4A0, symBinAddr: 0xEE500, symSize: 0x50 }
  - { offset: 0x5854CF, size: 0x8, addend: 0x0, symName: __Z30llama_sampler_init_dry_testingiffiiRKNSt3__16vectorINS0_IiNS_9allocatorIiEEEENS1_IS3_EEEE, symObjAddr: 0x2570, symBinAddr: 0xE16F0, symSize: 0x320 }
  - { offset: 0x5866A7, size: 0x8, addend: 0x0, symName: _llama_sampler_init_logit_bias, symObjAddr: 0x2890, symBinAddr: 0xE1A10, symSize: 0xE0 }
  - { offset: 0x586B60, size: 0x8, addend: 0x0, symName: __ZNKSt3__16vectorI16llama_logit_biasNS_9allocatorIS1_EEE20__throw_length_errorB8ne190102Ev, symObjAddr: 0x1DF00, symBinAddr: 0xF0F60, symSize: 0x10 }
  - { offset: 0x586B8A, size: 0x8, addend: 0x0, symName: __ZL25llama_sampler_infill_namePK13llama_sampler, symObjAddr: 0x1DF10, symBinAddr: 0xF0F70, symSize: 0x10 }
  - { offset: 0x586DB4, size: 0x8, addend: 0x0, symName: _llama_sampler_init_infill, symObjAddr: 0x2970, symBinAddr: 0xE1AF0, symSize: 0xF0 }
  - { offset: 0x587361, size: 0x8, addend: 0x0, symName: _llama_sampler_get_seed, symObjAddr: 0x2A60, symBinAddr: 0xE1BE0, symSize: 0x90 }
  - { offset: 0x5874F5, size: 0x8, addend: 0x0, symName: _llama_perf_sampler, symObjAddr: 0x2AF0, symBinAddr: 0xE1C70, symSize: 0x60 }
  - { offset: 0x5875ED, size: 0x8, addend: 0x0, symName: _llama_perf_sampler_print, symObjAddr: 0x2B50, symBinAddr: 0xE1CD0, symSize: 0x90 }
  - { offset: 0x5876D2, size: 0x8, addend: 0x0, symName: _llama_perf_sampler_reset, symObjAddr: 0x2BE0, symBinAddr: 0xE1D60, symSize: 0x50 }
  - { offset: 0x58771F, size: 0x8, addend: 0x0, symName: __ZL24llama_sampler_chain_namePK13llama_sampler, symObjAddr: 0x2C30, symBinAddr: 0xE1DB0, symSize: 0x10 }
  - { offset: 0x587798, size: 0x8, addend: 0x0, symName: __ZL26llama_sampler_chain_acceptP13llama_sampleri, symObjAddr: 0x2C40, symBinAddr: 0xE1DC0, symSize: 0x80 }
  - { offset: 0x587903, size: 0x8, addend: 0x0, symName: __ZL25llama_sampler_chain_applyP13llama_samplerP22llama_token_data_array, symObjAddr: 0x2CC0, symBinAddr: 0xE1E40, symSize: 0xB0 }
  - { offset: 0x587A72, size: 0x8, addend: 0x0, symName: __ZL25llama_sampler_chain_resetP13llama_sampler, symObjAddr: 0x2D70, symBinAddr: 0xE1EF0, symSize: 0x60 }
  - { offset: 0x587C42, size: 0x8, addend: 0x0, symName: __ZL25llama_sampler_chain_clonePK13llama_sampler, symObjAddr: 0x2DD0, symBinAddr: 0xE1F50, symSize: 0x210 }
  - { offset: 0x5882CC, size: 0x8, addend: 0x0, symName: __ZL24llama_sampler_chain_freeP13llama_sampler, symObjAddr: 0x2FE0, symBinAddr: 0xE2160, symSize: 0x90 }
  - { offset: 0x588540, size: 0x8, addend: 0x0, symName: __ZL25llama_sampler_greedy_namePK13llama_sampler, symObjAddr: 0x3080, symBinAddr: 0xE21F0, symSize: 0x10 }
  - { offset: 0x588569, size: 0x8, addend: 0x0, symName: __ZL26llama_sampler_greedy_applyP13llama_samplerP22llama_token_data_array, symObjAddr: 0x3090, symBinAddr: 0xE2200, symSize: 0xC0 }
  - { offset: 0x5885B3, size: 0x8, addend: 0x0, symName: __ZL23llama_sampler_dist_namePK13llama_sampler, symObjAddr: 0x31B0, symBinAddr: 0xE2320, symSize: 0x10 }
  - { offset: 0x58865B, size: 0x8, addend: 0x0, symName: __ZL24llama_sampler_dist_applyP13llama_samplerP22llama_token_data_array, symObjAddr: 0x31C0, symBinAddr: 0xE2330, symSize: 0x2D0 }
  - { offset: 0x5887D4, size: 0x8, addend: 0x0, symName: __ZL24llama_sampler_dist_resetP13llama_sampler, symObjAddr: 0x3490, symBinAddr: 0xE2600, symSize: 0x90 }
  - { offset: 0x5887E7, size: 0x8, addend: 0x0, symName: __ZL24llama_sampler_dist_resetP13llama_sampler, symObjAddr: 0x3490, symBinAddr: 0xE2600, symSize: 0x90 }
  - { offset: 0x5888AF, size: 0x8, addend: 0x0, symName: __ZL24llama_sampler_dist_clonePK13llama_sampler, symObjAddr: 0x3520, symBinAddr: 0xE2690, symSize: 0xF0 }
  - { offset: 0x588A09, size: 0x8, addend: 0x0, symName: __ZL23llama_sampler_dist_freeP13llama_sampler, symObjAddr: 0x3610, symBinAddr: 0xE2780, symSize: 0x20 }
  - { offset: 0x5890DD, size: 0x8, addend: 0x0, symName: __ZNSt3__121discrete_distributionIiE10param_type6__initEv, symObjAddr: 0x4E80, symBinAddr: 0xE3FF0, symSize: 0x1E0 }
  - { offset: 0x5897D5, size: 0x8, addend: 0x0, symName: __ZNSt3__121discrete_distributionIiEclINS_23mersenne_twister_engineIjLm32ELm624ELm397ELm31ELj2567483615ELm11ELj4294967295ELm7ELj2636928640ELm15ELj4022730752ELm18ELj1812433253EEEEEiRT_RKNS1_10param_typeE, symObjAddr: 0x51F0, symBinAddr: 0xE42A0, symSize: 0x1D0 }
  - { offset: 0x589A92, size: 0x8, addend: 0x0, symName: __ZNKSt3__16vectorIdNS_9allocatorIdEEE20__throw_length_errorB8ne190102Ev, symObjAddr: 0x5060, symBinAddr: 0xE41D0, symSize: 0x10 }
  - { offset: 0x589DAB, size: 0x8, addend: 0x0, symName: __ZNSt3__16vectorIdNS_9allocatorIdEEE13shrink_to_fitEv, symObjAddr: 0x5130, symBinAddr: 0xE41E0, symSize: 0xC0 }
  - { offset: 0x58A280, size: 0x8, addend: 0x0, symName: __ZL26llama_sampler_softmax_namePK13llama_sampler, symObjAddr: 0x53C0, symBinAddr: 0xE4470, symSize: 0x10 }
  - { offset: 0x58A2A9, size: 0x8, addend: 0x0, symName: __ZL27llama_sampler_softmax_applyP13llama_samplerP22llama_token_data_array, symObjAddr: 0x53D0, symBinAddr: 0xE4480, symSize: 0x290 }
  - { offset: 0x58A3FE, size: 0x8, addend: 0x0, symName: __ZL24llama_sampler_top_k_namePK13llama_sampler, symObjAddr: 0x5660, symBinAddr: 0xE4710, symSize: 0x10 }
  - { offset: 0x58A427, size: 0x8, addend: 0x0, symName: __ZL25llama_sampler_top_k_applyP13llama_samplerP22llama_token_data_array, symObjAddr: 0x5670, symBinAddr: 0xE4720, symSize: 0x20 }
  - { offset: 0x58A489, size: 0x8, addend: 0x0, symName: __ZL24llama_sampler_top_k_implP22llama_token_data_arrayi, symObjAddr: 0x56F0, symBinAddr: 0xE47A0, symSize: 0x610 }
  - { offset: 0x58BB86, size: 0x8, addend: 0x0, symName: __ZL25llama_sampler_top_k_clonePK13llama_sampler, symObjAddr: 0x5690, symBinAddr: 0xE4740, symSize: 0x40 }
  - { offset: 0x58BC09, size: 0x8, addend: 0x0, symName: __ZL24llama_sampler_top_k_freeP13llama_sampler, symObjAddr: 0x56D0, symBinAddr: 0xE4780, symSize: 0x20 }
  - { offset: 0x58C267, size: 0x8, addend: 0x0, symName: __ZNKSt3__16vectorIP16llama_token_dataNS_9allocatorIS2_EEE20__throw_length_errorB8ne190102Ev, symObjAddr: 0x6190, symBinAddr: 0xE5230, symSize: 0x10 }
  - { offset: 0x58C291, size: 0x8, addend: 0x0, symName: '__ZNSt3__111__introsortINS_17_ClassicAlgPolicyERZL24llama_sampler_top_k_implP22llama_token_data_arrayiE3$_0P16llama_token_dataLb0EEEvT1_S8_T0_NS_15iterator_traitsIS8_E15difference_typeEb', symObjAddr: 0x61A0, symBinAddr: 0xE5240, symSize: 0xD60 }
  - { offset: 0x58C2DB, size: 0x8, addend: 0x0, symName: __ZL24llama_sampler_top_p_namePK13llama_sampler, symObjAddr: 0x7550, symBinAddr: 0xE65F0, symSize: 0x10 }
  - { offset: 0x58C304, size: 0x8, addend: 0x0, symName: __ZL25llama_sampler_top_p_applyP13llama_samplerP22llama_token_data_array, symObjAddr: 0x7560, symBinAddr: 0xE6600, symSize: 0x320 }
  - { offset: 0x58C4D6, size: 0x8, addend: 0x0, symName: __ZL25llama_sampler_top_p_clonePK13llama_sampler, symObjAddr: 0x7880, symBinAddr: 0xE6920, symSize: 0x60 }
  - { offset: 0x58C562, size: 0x8, addend: 0x0, symName: __ZL24llama_sampler_top_p_freeP13llama_sampler, symObjAddr: 0x78E0, symBinAddr: 0xE6980, symSize: 0x20 }
  - { offset: 0x58C58E, size: 0x8, addend: 0x0, symName: __ZL24llama_sampler_min_p_namePK13llama_sampler, symObjAddr: 0x7900, symBinAddr: 0xE69A0, symSize: 0x10 }
  - { offset: 0x58C73D, size: 0x8, addend: 0x0, symName: __ZL25llama_sampler_min_p_applyP13llama_samplerP22llama_token_data_array, symObjAddr: 0x7910, symBinAddr: 0xE69B0, symSize: 0x3F0 }
  - { offset: 0x58D0B7, size: 0x8, addend: 0x0, symName: __ZL25llama_sampler_min_p_clonePK13llama_sampler, symObjAddr: 0x7D00, symBinAddr: 0xE6DA0, symSize: 0x60 }
  - { offset: 0x58D143, size: 0x8, addend: 0x0, symName: __ZL24llama_sampler_min_p_freeP13llama_sampler, symObjAddr: 0x7D60, symBinAddr: 0xE6E00, symSize: 0x20 }
  - { offset: 0x58D1B0, size: 0x8, addend: 0x0, symName: __ZL26llama_sampler_typical_namePK13llama_sampler, symObjAddr: 0x9390, symBinAddr: 0xE8430, symSize: 0x10 }
  - { offset: 0x58D704, size: 0x8, addend: 0x0, symName: __ZL27llama_sampler_typical_applyP13llama_samplerP22llama_token_data_array, symObjAddr: 0x93A0, symBinAddr: 0xE8440, symSize: 0xA00 }
  - { offset: 0x58EF6D, size: 0x8, addend: 0x0, symName: __ZNKSt3__16vectorImNS_9allocatorImEEE20__throw_length_errorB8ne190102Ev, symObjAddr: 0x9E30, symBinAddr: 0xE8EC0, symSize: 0x10 }
  - { offset: 0x58EF78, size: 0x8, addend: 0x0, symName: __ZNKSt3__16vectorImNS_9allocatorImEEE20__throw_length_errorB8ne190102Ev, symObjAddr: 0x9E30, symBinAddr: 0xE8EC0, symSize: 0x10 }
  - { offset: 0x58EFA2, size: 0x8, addend: 0x0, symName: '__ZNSt3__111__introsortINS_17_ClassicAlgPolicyERZL27llama_sampler_typical_applyP13llama_samplerP22llama_token_data_arrayE3$_0PmLb0EEEvT1_S9_T0_NS_15iterator_traitsIS9_E15difference_typeEb', symObjAddr: 0x9E40, symBinAddr: 0xE8ED0, symSize: 0xAF0 }
  - { offset: 0x58EFD4, size: 0x8, addend: 0x0, symName: __ZL27llama_sampler_typical_clonePK13llama_sampler, symObjAddr: 0x9DA0, symBinAddr: 0xE8E40, symSize: 0x60 }
  - { offset: 0x58F060, size: 0x8, addend: 0x0, symName: __ZL26llama_sampler_typical_freeP13llama_sampler, symObjAddr: 0x9E00, symBinAddr: 0xE8EA0, symSize: 0x20 }
  - { offset: 0x58F14D, size: 0x8, addend: 0x0, symName: __ZL23llama_sampler_temp_namePK13llama_sampler, symObjAddr: 0xADA0, symBinAddr: 0xE9E30, symSize: 0x10 }
  - { offset: 0x58F1CC, size: 0x8, addend: 0x0, symName: __ZL24llama_sampler_temp_applyP13llama_samplerP22llama_token_data_array, symObjAddr: 0xADB0, symBinAddr: 0xE9E40, symSize: 0x260 }
  - { offset: 0x58F280, size: 0x8, addend: 0x0, symName: __ZL24llama_sampler_temp_clonePK13llama_sampler, symObjAddr: 0xB010, symBinAddr: 0xEA0A0, symSize: 0x50 }
  - { offset: 0x58F305, size: 0x8, addend: 0x0, symName: __ZL23llama_sampler_temp_freeP13llama_sampler, symObjAddr: 0xB060, symBinAddr: 0xEA0F0, symSize: 0x20 }
  - { offset: 0x58F331, size: 0x8, addend: 0x0, symName: __ZL27llama_sampler_temp_ext_namePK13llama_sampler, symObjAddr: 0xB080, symBinAddr: 0xEA110, symSize: 0x10 }
  - { offset: 0x58F35A, size: 0x8, addend: 0x0, symName: __ZL28llama_sampler_temp_ext_applyP13llama_samplerP22llama_token_data_array, symObjAddr: 0xB090, symBinAddr: 0xEA120, symSize: 0xB00 }
  - { offset: 0x58F6A6, size: 0x8, addend: 0x0, symName: __ZL28llama_sampler_temp_ext_clonePK13llama_sampler, symObjAddr: 0xBB90, symBinAddr: 0xEAC20, symSize: 0x60 }
  - { offset: 0x58F72B, size: 0x8, addend: 0x0, symName: __ZL27llama_sampler_temp_ext_freeP13llama_sampler, symObjAddr: 0xBBF0, symBinAddr: 0xEAC80, symSize: 0x20 }
  - { offset: 0x58F757, size: 0x8, addend: 0x0, symName: __ZL22llama_sampler_xtc_namePK13llama_sampler, symObjAddr: 0xBC10, symBinAddr: 0xEACA0, symSize: 0x10 }
  - { offset: 0x58F897, size: 0x8, addend: 0x0, symName: __ZL22llama_sample_xtc_applyP13llama_samplerP22llama_token_data_array, symObjAddr: 0xBC20, symBinAddr: 0xEACB0, symSize: 0x3F0 }
  - { offset: 0x58FB59, size: 0x8, addend: 0x0, symName: __ZL23llama_sampler_xtc_resetP13llama_sampler, symObjAddr: 0xC010, symBinAddr: 0xEB0A0, symSize: 0x90 }
  - { offset: 0x58FC45, size: 0x8, addend: 0x0, symName: __ZL23llama_sampler_xtc_clonePK13llama_sampler, symObjAddr: 0xC0A0, symBinAddr: 0xEB130, symSize: 0x110 }
  - { offset: 0x58FDA6, size: 0x8, addend: 0x0, symName: __ZL22llama_sampler_xtc_freeP13llama_sampler, symObjAddr: 0xC1B0, symBinAddr: 0xEB240, symSize: 0x20 }
  - { offset: 0x58FDD2, size: 0x8, addend: 0x0, symName: __ZL27llama_sampler_mirostat_namePK13llama_sampler, symObjAddr: 0xC1D0, symBinAddr: 0xEB260, symSize: 0x10 }
  - { offset: 0x58FDFB, size: 0x8, addend: 0x0, symName: __ZL28llama_sampler_mirostat_applyP13llama_samplerP22llama_token_data_array, symObjAddr: 0xC1E0, symBinAddr: 0xEB270, symSize: 0x6D0 }
  - { offset: 0x590176, size: 0x8, addend: 0x0, symName: __ZL28llama_sampler_mirostat_resetP13llama_sampler, symObjAddr: 0xC8B0, symBinAddr: 0xEB940, symSize: 0x90 }
  - { offset: 0x59026E, size: 0x8, addend: 0x0, symName: __ZL28llama_sampler_mirostat_clonePK13llama_sampler, symObjAddr: 0xC940, symBinAddr: 0xEB9D0, symSize: 0x120 }
  - { offset: 0x5903DC, size: 0x8, addend: 0x0, symName: __ZL27llama_sampler_mirostat_freeP13llama_sampler, symObjAddr: 0xCA60, symBinAddr: 0xEBAF0, symSize: 0x20 }
  - { offset: 0x590408, size: 0x8, addend: 0x0, symName: __ZL30llama_sampler_mirostat_v2_namePK13llama_sampler, symObjAddr: 0xCA80, symBinAddr: 0xEBB10, symSize: 0x10 }
  - { offset: 0x590431, size: 0x8, addend: 0x0, symName: __ZL31llama_sampler_mirostat_v2_applyP13llama_samplerP22llama_token_data_array, symObjAddr: 0xCA90, symBinAddr: 0xEBB20, symSize: 0x5F0 }
  - { offset: 0x5907CE, size: 0x8, addend: 0x0, symName: __ZL31llama_sampler_mirostat_v2_resetP13llama_sampler, symObjAddr: 0xD080, symBinAddr: 0xEC110, symSize: 0x90 }
  - { offset: 0x5908AE, size: 0x8, addend: 0x0, symName: __ZL31llama_sampler_mirostat_v2_clonePK13llama_sampler, symObjAddr: 0xD110, symBinAddr: 0xEC1A0, symSize: 0x120 }
  - { offset: 0x590A0B, size: 0x8, addend: 0x0, symName: __ZL30llama_sampler_mirostat_v2_freeP13llama_sampler, symObjAddr: 0xD230, symBinAddr: 0xEC2C0, symSize: 0x20 }
  - { offset: 0x5A1767, size: 0x8, addend: 0x0, symName: __ZNKSt3__113match_resultsIPKcNS_9allocatorINS_9sub_matchIS2_EEEEE6formatINS_20back_insert_iteratorINS_12basic_stringIcNS_11char_traitsIcEENS3_IcEEEEEEEET_SG_S2_S2_NS_15regex_constants15match_flag_typeE, symObjAddr: 0x16790, symBinAddr: 0xEC5E0, symSize: 0x2F0 }
  - { offset: 0x5A1E00, size: 0x8, addend: 0x0, symName: __ZNSt3__114regex_iteratorIPKccNS_12regex_traitsIcEEEppEv, symObjAddr: 0x16A80, symBinAddr: 0xEC8D0, symSize: 0xF0 }
  - { offset: 0x5A827D, size: 0x8, addend: 0x0, symName: __ZL26llama_sampler_grammar_namePK13llama_sampler, symObjAddr: 0x195D0, symBinAddr: 0xEC9C0, symSize: 0x10 }
  - { offset: 0x5A82A6, size: 0x8, addend: 0x0, symName: __ZL33llama_sampler_grammar_accept_implP13llama_sampleri, symObjAddr: 0x195E0, symBinAddr: 0xEC9D0, symSize: 0x20 }
  - { offset: 0x5A831A, size: 0x8, addend: 0x0, symName: __ZL27llama_sampler_grammar_applyP13llama_samplerP22llama_token_data_array, symObjAddr: 0x19600, symBinAddr: 0xEC9F0, symSize: 0x20 }
  - { offset: 0x5A882A, size: 0x8, addend: 0x0, symName: __ZL27llama_sampler_grammar_resetP13llama_sampler, symObjAddr: 0x19620, symBinAddr: 0xECA10, symSize: 0x290 }
  - { offset: 0x5A93AD, size: 0x8, addend: 0x0, symName: __ZL28llama_sampler_penalties_namePK13llama_sampler, symObjAddr: 0x199B0, symBinAddr: 0xECD90, symSize: 0x10 }
  - { offset: 0x5A9477, size: 0x8, addend: 0x0, symName: __ZL27llama_sampler_grammar_clonePK13llama_sampler, symObjAddr: 0x198B0, symBinAddr: 0xECCA0, symSize: 0xA0 }
  - { offset: 0x5A966B, size: 0x8, addend: 0x0, symName: __ZL26llama_sampler_grammar_freeP13llama_sampler, symObjAddr: 0x19950, symBinAddr: 0xECD40, symSize: 0x50 }
  - { offset: 0x5A9939, size: 0x8, addend: 0x0, symName: __ZL28llama_sampler_penalties_namePK13llama_sampler, symObjAddr: 0x199B0, symBinAddr: 0xECD90, symSize: 0x10 }
  - { offset: 0x5A99FA, size: 0x8, addend: 0x0, symName: __ZL30llama_sampler_penalties_acceptP13llama_sampleri, symObjAddr: 0x199C0, symBinAddr: 0xECDA0, symSize: 0x1B0 }
  - { offset: 0x5A9C3C, size: 0x8, addend: 0x0, symName: __ZNSt3__112__hash_tableINS_17__hash_value_typeIiiEENS_22__unordered_map_hasherIiS2_NS_4hashIiEENS_8equal_toIiEELb1EEENS_21__unordered_map_equalIiS2_S7_S5_Lb1EEENS_9allocatorIS2_EEE25__emplace_unique_key_argsIiJRKNS_21piecewise_construct_tENS_5tupleIJRKiEEENSI_IJEEEEEENS_4pairINS_15__hash_iteratorIPNS_11__hash_nodeIS2_PvEEEEbEERKT_DpOT0_, symObjAddr: 0x1A090, symBinAddr: 0xED470, symSize: 0x4A0 }
  - { offset: 0x5AA3BD, size: 0x8, addend: 0x0, symName: __ZNSt3__112__hash_tableINS_17__hash_value_typeIiiEENS_22__unordered_map_hasherIiS2_NS_4hashIiEENS_8equal_toIiEELb1EEENS_21__unordered_map_equalIiS2_S7_S5_Lb1EEENS_9allocatorIS2_EEE14__erase_uniqueIiEEmRKT_, symObjAddr: 0x1A760, symBinAddr: 0xED910, symSize: 0x1A0 }
  - { offset: 0x5AA437, size: 0x8, addend: 0x0, symName: __ZNSt3__112__hash_tableINS_17__hash_value_typeIiiEENS_22__unordered_map_hasherIiS2_NS_4hashIiEENS_8equal_toIiEELb1EEENS_21__unordered_map_equalIiS2_S7_S5_Lb1EEENS_9allocatorIS2_EEE14__erase_uniqueIiEEmRKT_, symObjAddr: 0x1A760, symBinAddr: 0xED910, symSize: 0x1A0 }
  - { offset: 0x5AA453, size: 0x8, addend: 0x0, symName: __ZNSt3__112__hash_tableINS_17__hash_value_typeIiiEENS_22__unordered_map_hasherIiS2_NS_4hashIiEENS_8equal_toIiEELb1EEENS_21__unordered_map_equalIiS2_S7_S5_Lb1EEENS_9allocatorIS2_EEE14__erase_uniqueIiEEmRKT_, symObjAddr: 0x1A760, symBinAddr: 0xED910, symSize: 0x1A0 }
  - { offset: 0x5AA7D5, size: 0x8, addend: 0x0, symName: __ZL29llama_sampler_penalties_applyP13llama_samplerP22llama_token_data_array, symObjAddr: 0x19B70, symBinAddr: 0xECF50, symSize: 0x280 }
  - { offset: 0x5AAA04, size: 0x8, addend: 0x0, symName: __ZL29llama_sampler_penalties_resetP13llama_sampler, symObjAddr: 0x19DF0, symBinAddr: 0xED1D0, symSize: 0xF0 }
  - { offset: 0x5AAD21, size: 0x8, addend: 0x0, symName: __ZL29llama_sampler_penalties_clonePK13llama_sampler, symObjAddr: 0x19EE0, symBinAddr: 0xED2C0, symSize: 0x140 }
  - { offset: 0x5AB8EB, size: 0x8, addend: 0x0, symName: __ZL28llama_sampler_penalties_freeP13llama_sampler, symObjAddr: 0x1A020, symBinAddr: 0xED400, symSize: 0x70 }
  - { offset: 0x5AC573, size: 0x8, addend: 0x0, symName: __ZNSt3__112__hash_tableINS_17__hash_value_typeIiiEENS_22__unordered_map_hasherIiS2_NS_4hashIiEENS_8equal_toIiEELb1EEENS_21__unordered_map_equalIiS2_S7_S5_Lb1EEENS_9allocatorIS2_EEE6removeENS_21__hash_const_iteratorIPNS_11__hash_nodeIS2_PvEEEE, symObjAddr: 0x1A900, symBinAddr: 0xEDAB0, symSize: 0x1F0 }
  - { offset: 0x5ACA0D, size: 0x8, addend: 0x0, symName: __ZL30llama_sampler_top_n_sigma_namePK13llama_sampler, symObjAddr: 0x1AC40, symBinAddr: 0xEDCA0, symSize: 0x10 }
  - { offset: 0x5ACA36, size: 0x8, addend: 0x0, symName: __ZL31llama_sampler_top_n_sigma_applyP13llama_samplerP22llama_token_data_array, symObjAddr: 0x1AC50, symBinAddr: 0xEDCB0, symSize: 0x650 }
  - { offset: 0x5ACCA1, size: 0x8, addend: 0x0, symName: __ZL31llama_sampler_top_n_sigma_clonePK13llama_sampler, symObjAddr: 0x1B2A0, symBinAddr: 0xEE300, symSize: 0x50 }
  - { offset: 0x5ACD26, size: 0x8, addend: 0x0, symName: __ZL30llama_sampler_top_n_sigma_freeP13llama_sampler, symObjAddr: 0x1B2F0, symBinAddr: 0xEE350, symSize: 0x20 }
  - { offset: 0x5ACE86, size: 0x8, addend: 0x0, symName: __ZNSt3__112__hash_tableINS_17__hash_value_typeIiNS_6vectorIiNS_9allocatorIiEEEEEENS_22__unordered_map_hasherIiS6_NS_4hashIiEENS_8equal_toIiEELb1EEENS_21__unordered_map_equalIiS6_SB_S9_Lb1EEENS3_IS6_EEE11__do_rehashILb0EEEvm, symObjAddr: 0x1B860, symBinAddr: 0xEE8C0, symSize: 0x260 }
  - { offset: 0x5AD3C8, size: 0x8, addend: 0x0, symName: __ZL22llama_sampler_dry_namePK13llama_sampler, symObjAddr: 0x1BAC0, symBinAddr: 0xEEB20, symSize: 0x10 }
  - { offset: 0x5AD3F1, size: 0x8, addend: 0x0, symName: __ZL24llama_sampler_dry_acceptP13llama_sampleri, symObjAddr: 0x1BAD0, symBinAddr: 0xEEB30, symSize: 0x100 }
  - { offset: 0x5AD4BF, size: 0x8, addend: 0x0, symName: __ZL23llama_sampler_dry_applyP13llama_samplerP22llama_token_data_array, symObjAddr: 0x1BBD0, symBinAddr: 0xEEC30, symSize: 0xEF0 }
  - { offset: 0x5AE48A, size: 0x8, addend: 0x0, symName: __ZNSt3__16vectorIiNS_9allocatorIiEEE6assignEmRKi, symObjAddr: 0x1CD30, symBinAddr: 0xEFD90, symSize: 0x250 }
  - { offset: 0x5AEA22, size: 0x8, addend: 0x0, symName: __ZL23llama_sampler_dry_resetP13llama_sampler, symObjAddr: 0x1CAC0, symBinAddr: 0xEFB20, symSize: 0x100 }
  - { offset: 0x5AEDE8, size: 0x8, addend: 0x0, symName: __ZL23llama_sampler_dry_clonePK13llama_sampler, symObjAddr: 0x1CBC0, symBinAddr: 0xEFC20, symSize: 0x140 }
  - { offset: 0x5AF14B, size: 0x8, addend: 0x0, symName: __ZNSt3__112__hash_tableINS_17__hash_value_typeIiNS_6vectorIiNS_9allocatorIiEEEEEENS_22__unordered_map_hasherIiS6_NS_4hashIiEENS_8equal_toIiEELb1EEENS_21__unordered_map_equalIiS6_SB_S9_Lb1EEENS3_IS6_EEE14__assign_multiINS_21__hash_const_iteratorIPNS_11__hash_nodeIS6_PvEEEEEEvT_SO_, symObjAddr: 0x1CF80, symBinAddr: 0xEFFE0, symSize: 0x1D0 }
  - { offset: 0x5AF7CD, size: 0x8, addend: 0x0, symName: __ZNSt3__112__hash_tableINS_17__hash_value_typeIiiEENS_22__unordered_map_hasherIiS2_NS_4hashIiEENS_8equal_toIiEELb1EEENS_21__unordered_map_equalIiS2_S7_S5_Lb1EEENS_9allocatorIS2_EEE14__assign_multiINS_21__hash_const_iteratorIPNS_11__hash_nodeIS2_PvEEEEEEvT_SL_, symObjAddr: 0x1D290, symBinAddr: 0xF02F0, symSize: 0x1B0 }
  - { offset: 0x5AFF5C, size: 0x8, addend: 0x0, symName: __ZL22llama_sampler_dry_freeP13llama_sampler, symObjAddr: 0x1CD00, symBinAddr: 0xEFD60, symSize: 0x30 }
  - { offset: 0x5AFFB9, size: 0x8, addend: 0x0, symName: __ZN17llama_sampler_dryD2Ev, symObjAddr: 0x1DBA0, symBinAddr: 0xF0C00, symSize: 0xD0 }
  - { offset: 0x5B0BE2, size: 0x8, addend: 0x0, symName: __ZNSt3__112__hash_tableINS_17__hash_value_typeIiNS_6vectorIiNS_9allocatorIiEEEEEENS_22__unordered_map_hasherIiS6_NS_4hashIiEENS_8equal_toIiEELb1EEENS_21__unordered_map_equalIiS6_SB_S9_Lb1EEENS3_IS6_EEE16__construct_nodeIJRKNS_4pairIKiS5_EEEEENS_10unique_ptrINS_11__hash_nodeIS6_PvEENS_22__hash_node_destructorINS3_ISQ_EEEEEEDpOT_, symObjAddr: 0x1D1A0, symBinAddr: 0xF0200, symSize: 0xF0 }
  - { offset: 0x5B12C2, size: 0x8, addend: 0x0, symName: __ZNSt3__112__hash_tableINS_17__hash_value_typeIiNS_6vectorIiNS_9allocatorIiEEEEEENS_22__unordered_map_hasherIiS6_NS_4hashIiEENS_8equal_toIiEELb1EEENS_21__unordered_map_equalIiS6_SB_S9_Lb1EEENS3_IS6_EEE17__deallocate_nodeEPNS_16__hash_node_baseIPNS_11__hash_nodeIS6_PvEEEE, symObjAddr: 0x1D150, symBinAddr: 0xF01B0, symSize: 0x50 }
  - { offset: 0x5B18B5, size: 0x8, addend: 0x0, symName: __ZNSt3__112__hash_tableINS_17__hash_value_typeIiiEENS_22__unordered_map_hasherIiS2_NS_4hashIiEENS_8equal_toIiEELb1EEENS_21__unordered_map_equalIiS2_S7_S5_Lb1EEENS_9allocatorIS2_EEE19__node_insert_multiEPNS_11__hash_nodeIS2_PvEE, symObjAddr: 0x1D440, symBinAddr: 0xF04A0, symSize: 0x190 }
  - { offset: 0x5B1B0E, size: 0x8, addend: 0x0, symName: __ZNSt3__112__hash_tableINS_17__hash_value_typeIiiEENS_22__unordered_map_hasherIiS2_NS_4hashIiEENS_8equal_toIiEELb1EEENS_21__unordered_map_equalIiS2_S7_S5_Lb1EEENS_9allocatorIS2_EEE27__node_insert_multi_prepareEmRS2_, symObjAddr: 0x1D5D0, symBinAddr: 0xF0630, symSize: 0x370 }
  - { offset: 0x5B1E76, size: 0x8, addend: 0x0, symName: __ZNSt3__112__hash_tableINS_17__hash_value_typeIiiEENS_22__unordered_map_hasherIiS2_NS_4hashIiEENS_8equal_toIiEELb1EEENS_21__unordered_map_equalIiS2_S7_S5_Lb1EEENS_9allocatorIS2_EEE11__do_rehashILb0EEEvm, symObjAddr: 0x1D940, symBinAddr: 0xF09A0, symSize: 0x260 }
  - { offset: 0x5B233A, size: 0x8, addend: 0x0, symName: __ZL29llama_sampler_logit_bias_namePK13llama_sampler, symObjAddr: 0x1DC70, symBinAddr: 0xF0CD0, symSize: 0x10 }
  - { offset: 0x5B2674, size: 0x8, addend: 0x0, symName: __ZL30llama_sampler_logit_bias_applyP13llama_samplerP22llama_token_data_array, symObjAddr: 0x1DC80, symBinAddr: 0xF0CE0, symSize: 0x210 }
  - { offset: 0x5B2CC5, size: 0x8, addend: 0x0, symName: __ZL30llama_sampler_logit_bias_clonePK13llama_sampler, symObjAddr: 0x1DE90, symBinAddr: 0xF0EF0, symSize: 0x20 }
  - { offset: 0x5B2DA5, size: 0x8, addend: 0x0, symName: __ZL29llama_sampler_logit_bias_freeP13llama_sampler, symObjAddr: 0x1DEB0, symBinAddr: 0xF0F10, symSize: 0x50 }
  - { offset: 0x5B3097, size: 0x8, addend: 0x0, symName: __ZL25llama_sampler_infill_namePK13llama_sampler, symObjAddr: 0x1DF10, symBinAddr: 0xF0F70, symSize: 0x10 }
  - { offset: 0x5B31D6, size: 0x8, addend: 0x0, symName: __ZL26llama_sampler_infill_applyP13llama_samplerP22llama_token_data_array, symObjAddr: 0x1DF20, symBinAddr: 0xF0F80, symSize: 0xBF0 }
  - { offset: 0x5B3AB0, size: 0x8, addend: 0x0, symName: __ZL26llama_sampler_infill_clonePK13llama_sampler, symObjAddr: 0x1EB10, symBinAddr: 0xF1B70, symSize: 0x20 }
  - { offset: 0x5B3AC3, size: 0x8, addend: 0x0, symName: __ZL26llama_sampler_infill_clonePK13llama_sampler, symObjAddr: 0x1EB10, symBinAddr: 0xF1B70, symSize: 0x20 }
  - { offset: 0x5B3B50, size: 0x8, addend: 0x0, symName: __ZL25llama_sampler_infill_freeP13llama_sampler, symObjAddr: 0x1EB30, symBinAddr: 0xF1B90, symSize: 0x50 }
  - { offset: 0x5DF00E, size: 0x8, addend: 0x0, symName: '__ZNSt3__111__introsortINS_17_ClassicAlgPolicyERZN11llama_vocab4impl4loadER18llama_model_loaderRK6LLM_KVE3$_0PiLb0EEEvT1_SC_T0_NS_15iterator_traitsISC_E15difference_typeEb', symObjAddr: 0x148B0, symBinAddr: 0x1052D0, symSize: 0x1090 }
  - { offset: 0x5E0A4F, size: 0x8, addend: 0x0, symName: '__ZNSt3__127__insertion_sort_incompleteB8ne190102INS_17_ClassicAlgPolicyERZN11llama_vocab4impl4loadER18llama_model_loaderRK6LLM_KVE3$_0PiEEbT1_SC_T0_', symObjAddr: 0x15CD0, symBinAddr: 0x1066F0, symSize: 0x2B0 }
  - { offset: 0x5E4E1E, size: 0x8, addend: 0x0, symName: __ZNSt3__111__introsortINS_17_ClassicAlgPolicyERZN20llm_tokenizer_plamo25buildERK11llama_vocabEUlRKNS_12basic_stringIcNS_11char_traitsIcEENS_9allocatorIcEEEESD_E_PSB_Lb0EEEvT1_SH_T0_NS_15iterator_traitsISH_E15difference_typeEb, symObjAddr: 0x1A440, symBinAddr: 0x10AA90, symSize: 0x4C0 }
  - { offset: 0x5E577D, size: 0x8, addend: 0x0, symName: __ZNSt3__126__insertion_sort_unguardedB8ne190102INS_17_ClassicAlgPolicyERZN20llm_tokenizer_plamo25buildERK11llama_vocabEUlRKNS_12basic_stringIcNS_11char_traitsIcEENS_9allocatorIcEEEESD_E_PSB_EEvT1_SH_T0_, symObjAddr: 0x1AEA0, symBinAddr: 0x10B4F0, symSize: 0x130 }
  - { offset: 0x5E5C07, size: 0x8, addend: 0x0, symName: __ZNSt3__111__sift_downB8ne190102INS_17_ClassicAlgPolicyERZN20llm_tokenizer_plamo25buildERK11llama_vocabEUlRKNS_12basic_stringIcNS_11char_traitsIcEENS_9allocatorIcEEEESD_E_PSB_EEvT1_OT0_NS_15iterator_traitsISH_E15difference_typeESH_, symObjAddr: 0x1BAE0, symBinAddr: 0x10C130, symSize: 0x1C0 }
  - { offset: 0x5E611D, size: 0x8, addend: 0x0, symName: __ZNSt3__131__partition_with_equals_on_leftB8ne190102INS_17_ClassicAlgPolicyEPNS_12basic_stringIcNS_11char_traitsIcEENS_9allocatorIcEEEERZN20llm_tokenizer_plamo25buildERK11llama_vocabEUlRKS7_SE_E_EET0_SH_SH_T1_, symObjAddr: 0x1B160, symBinAddr: 0x10B7B0, symSize: 0x1E0 }
  - { offset: 0x5E670D, size: 0x8, addend: 0x0, symName: __ZNSt3__132__partition_with_equals_on_rightB8ne190102INS_17_ClassicAlgPolicyEPNS_12basic_stringIcNS_11char_traitsIcEENS_9allocatorIcEEEERZN20llm_tokenizer_plamo25buildERK11llama_vocabEUlRKS7_SE_E_EENS_4pairIT0_bEESI_SI_T1_, symObjAddr: 0x1B340, symBinAddr: 0x10B990, symSize: 0x1E0 }
  - { offset: 0x5E6CF3, size: 0x8, addend: 0x0, symName: __ZNSt3__127__insertion_sort_incompleteB8ne190102INS_17_ClassicAlgPolicyERZN20llm_tokenizer_plamo25buildERK11llama_vocabEUlRKNS_12basic_stringIcNS_11char_traitsIcEENS_9allocatorIcEEEESD_E_PSB_EEbT1_SH_T0_, symObjAddr: 0x1B520, symBinAddr: 0x10BB70, symSize: 0x390 }
  - { offset: 0x5E9757, size: 0x8, addend: 0x0, symName: __ZNSt3__18pop_heapB8ne190102INS_11__wrap_iterIP14llm_bigram_spmEENS2_10comparatorEEEvT_S6_T0_, symObjAddr: 0xFA70, symBinAddr: 0x1012F0, symSize: 0x1F0 }
  - { offset: 0x5E9D68, size: 0x8, addend: 0x0, symName: __ZNSt3__110__pop_heapB8ne190102INS_17_ClassicAlgPolicyEN14llm_bigram_bpe10comparatorENS_11__wrap_iterIPS2_EEEEvT1_S7_RT0_NS_15iterator_traitsIS7_E15difference_typeE, symObjAddr: 0x10640, symBinAddr: 0x101EB0, symSize: 0x2A0 }
  - { offset: 0x5EA86F, size: 0x8, addend: 0x0, symName: __ZNSt3__1plB8ne190102IcNS_11char_traitsIcEENS_9allocatorIcEEEENS_12basic_stringIT_T0_T1_EERKS9_PKS6_, symObjAddr: 0xE0F0, symBinAddr: 0xFFBB0, symSize: 0x110 }
  - { offset: 0x5EB909, size: 0x8, addend: 0x0, symName: __ZNSt3__19__sift_upB8ne190102INS_17_ClassicAlgPolicyERN14llm_bigram_bpe10comparatorENS_11__wrap_iterIPS2_EEEEvT1_S8_OT0_NS_15iterator_traitsIS8_E15difference_typeE, symObjAddr: 0x104A0, symBinAddr: 0x101D10, symSize: 0x1A0 }
  - { offset: 0x5EDC8D, size: 0x8, addend: 0x0, symName: '__ZNSt3__17__sort3B8ne190102INS_17_ClassicAlgPolicyERZN11llama_vocab4impl4loadER18llama_model_loaderRK6LLM_KVE3$_0PiEEjT1_SC_SC_T0_', symObjAddr: 0x15B20, symBinAddr: 0x106540, symSize: 0x1B0 }
  - { offset: 0x5EE400, size: 0x8, addend: 0x0, symName: '__ZNSt3__124__sort5_maybe_branchlessB8ne190102INS_17_ClassicAlgPolicyERZN11llama_vocab4impl4loadER18llama_model_loaderRK6LLM_KVE3$_0PiLi0EEEvT1_SC_SC_SC_SC_T0_', symObjAddr: 0x15940, symBinAddr: 0x106360, symSize: 0x1E0 }
  - { offset: 0x5EEA94, size: 0x8, addend: 0x0, symName: '__ZNSt3__17__sort4B8ne190102INS_17_ClassicAlgPolicyERZN11llama_vocab4impl4loadER18llama_model_loaderRK6LLM_KVE3$_0PiEEvT1_SC_SC_SC_T0_', symObjAddr: 0x15F80, symBinAddr: 0x1069A0, symSize: 0x170 }
  - { offset: 0x5F09AC, size: 0x8, addend: 0x0, symName: __ZNSt3__17__sort3B8ne190102INS_17_ClassicAlgPolicyERZN20llm_tokenizer_plamo25buildERK11llama_vocabEUlRKNS_12basic_stringIcNS_11char_traitsIcEENS_9allocatorIcEEEESD_E_PSB_EEjT1_SH_SH_T0_, symObjAddr: 0x1AFD0, symBinAddr: 0x10B620, symSize: 0x190 }
  - { offset: 0x5F0E0B, size: 0x8, addend: 0x0, symName: __ZNSt3__17__sort5B8ne190102INS_17_ClassicAlgPolicyERZN20llm_tokenizer_plamo25buildERK11llama_vocabEUlRKNS_12basic_stringIcNS_11char_traitsIcEENS_9allocatorIcEEEESD_E_PSB_EEvT1_SH_SH_SH_SH_T0_, symObjAddr: 0x1B8B0, symBinAddr: 0x10BF00, symSize: 0x230 }
  - { offset: 0x5F1499, size: 0x8, addend: 0x0, symName: __ZNSt3__116__insertion_sortB8ne190102INS_17_ClassicAlgPolicyERZN20llm_tokenizer_plamo25buildERK11llama_vocabEUlRKNS_12basic_stringIcNS_11char_traitsIcEENS_9allocatorIcEEEESD_E_PSB_EEvT1_SH_T0_, symObjAddr: 0x1AD40, symBinAddr: 0x10B390, symSize: 0x160 }
  - { offset: 0x5F1930, size: 0x8, addend: 0x0, symName: __ZNSt3__110__pop_heapB8ne190102INS_17_ClassicAlgPolicyEZN20llm_tokenizer_plamo25buildERK11llama_vocabEUlRKNS_12basic_stringIcNS_11char_traitsIcEENS_9allocatorIcEEEESD_E_PSB_EEvT1_SG_RT0_NS_15iterator_traitsISG_E15difference_typeE, symObjAddr: 0x1BCA0, symBinAddr: 0x10C2F0, symSize: 0x200 }
  - { offset: 0x5F1EF4, size: 0x8, addend: 0x0, symName: __ZNSt3__19__sift_upB8ne190102INS_17_ClassicAlgPolicyERZN20llm_tokenizer_plamo25buildERK11llama_vocabEUlRKNS_12basic_stringIcNS_11char_traitsIcEENS_9allocatorIcEEEESD_E_PSB_EEvT1_SH_OT0_NS_15iterator_traitsISH_E15difference_typeE, symObjAddr: 0x1BEA0, symBinAddr: 0x10C4F0, symSize: 0x120 }
  - { offset: 0x5F555E, size: 0x8, addend: 0x0, symName: __ZNK11llama_vocab4impl14token_to_pieceEiPciib, symObjAddr: 0xB720, symBinAddr: 0xFD1E0, symSize: 0x5A0 }
  - { offset: 0x5F6454, size: 0x8, addend: 0x0, symName: __ZNK11llama_vocab13byte_to_tokenEh, symObjAddr: 0x5910, symBinAddr: 0xF7450, symSize: 0x3D0 }
  - { offset: 0x5FB176, size: 0x8, addend: 0x0, symName: __ZN11llama_vocab4impl4loadER18llama_model_loaderRK6LLM_KV, symObjAddr: 0x0, symBinAddr: 0xF1BF0, symSize: 0x5550 }
  - { offset: 0x60834A, size: 0x8, addend: 0x0, symName: __ZNSt3__16vectorIN11llama_vocab10token_dataENS_9allocatorIS2_EEE8__appendEm, symObjAddr: 0x13920, symBinAddr: 0x104710, symSize: 0x1B0 }
  - { offset: 0x608C77, size: 0x8, addend: 0x0, symName: __ZNSt3__16vectorIcNS_9allocatorIcEEE18__assign_with_sizeB8ne190102IPKcS6_EEvT_T0_l, symObjAddr: 0x143C0, symBinAddr: 0x1051B0, symSize: 0x120 }
  - { offset: 0x6098A4, size: 0x8, addend: 0x0, symName: __ZNSt3__112__hash_tableINS_17__hash_value_typeINS_4pairINS_12basic_stringIcNS_11char_traitsIcEENS_9allocatorIcEEEES8_EEiEENS_22__unordered_map_hasherIS9_SA_N11llama_vocab4impl9pair_hashENS_8equal_toIS9_EELb1EEENS_21__unordered_map_equalIS9_SA_SG_SE_Lb1EEENS6_ISA_EEE25__emplace_unique_key_argsIS9_JS9_RiEEENS2_INS_15__hash_iteratorIPNS_11__hash_nodeISA_PvEEEEbEERKT_DpOT0_, symObjAddr: 0x13AE0, symBinAddr: 0x1048D0, symSize: 0x560 }
  - { offset: 0x60A2CE, size: 0x8, addend: 0x0, symName: __ZNSt3__112__hash_tableINS_17__hash_value_typeINS_12basic_stringIcNS_11char_traitsIcEENS_9allocatorIcEEEEiEENS_22__unordered_map_hasherIS7_S8_NS_4hashIS7_EENS_8equal_toIS7_EELb1EEENS_21__unordered_map_equalIS7_S8_SD_SB_Lb1EEENS5_IS8_EEE25__emplace_unique_key_argsIS7_JRKNS_21piecewise_construct_tENS_5tupleIJRKS7_EEENSN_IJEEEEEENS_4pairINS_15__hash_iteratorIPNS_11__hash_nodeIS8_PvEEEEbEERKT_DpOT0_, symObjAddr: 0x129A0, symBinAddr: 0x103C40, symSize: 0x5C0 }
  - { offset: 0x60AD03, size: 0x8, addend: 0x0, symName: __ZN11llama_vocab4impl14init_tokenizerE16llama_vocab_type, symObjAddr: 0x56E0, symBinAddr: 0xF7220, symSize: 0x230 }
  - { offset: 0x60B269, size: 0x8, addend: 0x0, symName: __ZNK11llama_vocab4impl8tokenizeERKNSt3__112basic_stringIcNS1_11char_traitsIcEENS1_9allocatorIcEEEEbb, symObjAddr: 0x5CF0, symBinAddr: 0xF7820, symSize: 0x1DE0 }
  - { offset: 0x6127FB, size: 0x8, addend: 0x0, symName: __ZNK11llama_vocab4impl24token_to_piece_for_cacheEib, symObjAddr: 0x7BE0, symBinAddr: 0xF9710, symSize: 0x120 }
  - { offset: 0x612C7F, size: 0x8, addend: 0x0, symName: __ZNKSt3__112__hash_tableINS_17__hash_value_typeINS_12basic_stringIcNS_11char_traitsIcEENS_9allocatorIcEEEEiEENS_22__unordered_map_hasherIS7_S8_NS_4hashIS7_EENS_8equal_toIS7_EELb1EEENS_21__unordered_map_equalIS7_S8_SD_SB_Lb1EEENS5_IS8_EEE4findIS7_EENS_21__hash_const_iteratorIPNS_11__hash_nodeIS8_PvEEEERKT_, symObjAddr: 0x16100, symBinAddr: 0x106B20, symSize: 0x290 }
  - { offset: 0x612F7D, size: 0x8, addend: 0x0, symName: __ZNSt3__112__hash_tableINS_17__hash_value_typeINS_12basic_stringIcNS_11char_traitsIcEENS_9allocatorIcEEEEiEENS_22__unordered_map_hasherIS7_S8_NS_4hashIS7_EENS_8equal_toIS7_EELb1EEENS_21__unordered_map_equalIS7_S8_SD_SB_Lb1EEENS5_IS8_EEE4findIS7_EENS_15__hash_iteratorIPNS_11__hash_nodeIS8_PvEEEERKT_, symObjAddr: 0x13690, symBinAddr: 0x104480, symSize: 0x290 }
  - { offset: 0x613293, size: 0x8, addend: 0x0, symName: __ZNSt3__16vectorI10llm_symbolNS_9allocatorIS1_EEE18__assign_with_sizeB8ne190102IPS1_S6_EEvT_T0_l, symObjAddr: 0x108F0, symBinAddr: 0x102150, symSize: 0x160 }
  - { offset: 0x6132B6, size: 0x8, addend: 0x0, symName: __ZNSt3__16__treeINS_12__value_typeINS_12basic_stringIcNS_11char_traitsIcEENS_9allocatorIcEEEENS_4pairIiiEEEENS_19__map_value_compareIS7_SA_NS_4lessIS7_EELb1EEENS5_ISA_EEE7destroyEPNS_11__tree_nodeISA_PvEE, symObjAddr: 0xFD80, symBinAddr: 0x1015F0, symSize: 0x50 }
  - { offset: 0x6132C1, size: 0x8, addend: 0x0, symName: __ZNKSt3__16vectorIN11llama_vocab10token_dataENS_9allocatorIS2_EEE20__throw_out_of_rangeB8ne190102Ev, symObjAddr: 0x160F0, symBinAddr: 0x106B10, symSize: 0x10 }
  - { offset: 0x6132EB, size: 0x8, addend: 0x0, symName: __ZNKSt3__112__hash_tableINS_17__hash_value_typeINS_12basic_stringIcNS_11char_traitsIcEENS_9allocatorIcEEEEiEENS_22__unordered_map_hasherIS7_S8_NS_4hashIS7_EENS_8equal_toIS7_EELb1EEENS_21__unordered_map_equalIS7_S8_SD_SB_Lb1EEENS5_IS8_EEE4findIS7_EENS_21__hash_const_iteratorIPNS_11__hash_nodeIS8_PvEEEERKT_, symObjAddr: 0x16100, symBinAddr: 0x106B20, symSize: 0x290 }
  - { offset: 0x6137B4, size: 0x8, addend: 0x0, symName: __ZNKSt3__112basic_stringIcNS_11char_traitsIcEENS_9allocatorIcEEE6substrB8ne190102Emm, symObjAddr: 0x55C0, symBinAddr: 0xF7140, symSize: 0xE0 }
  - { offset: 0x613E7E, size: 0x8, addend: 0x0, symName: __ZN18llm_tokenizer_rwkvC2ERK11llama_vocab, symObjAddr: 0x17D90, symBinAddr: 0x1087B0, symSize: 0x150 }
  - { offset: 0x614454, size: 0x8, addend: 0x0, symName: __ZN17llm_tokenizer_ugmC2ERK11llama_vocabRKNSt3__16vectorIcNS3_9allocatorIcEEEE, symObjAddr: 0x177F0, symBinAddr: 0x108210, symSize: 0x2E0 }
  - { offset: 0x614F52, size: 0x8, addend: 0x0, symName: __ZN17llm_tokenizer_bpeC2ERK11llama_vocab, symObjAddr: 0x163B0, symBinAddr: 0x106DD0, symSize: 0xFA0 }
  - { offset: 0x61992D, size: 0x8, addend: 0x0, symName: __ZN20llm_tokenizer_plamo25buildERK11llama_vocab, symObjAddr: 0x17F40, symBinAddr: 0x108960, symSize: 0x15E0 }
  - { offset: 0x6200FF, size: 0x8, addend: 0x0, symName: __ZNSt3__113unordered_mapIxiNS_4hashIxEENS_8equal_toIxEENS_9allocatorINS_4pairIKxiEEEEED1B8ne190102Ev, symObjAddr: 0x19520, symBinAddr: 0x109F40, symSize: 0x50 }
  - { offset: 0x621926, size: 0x8, addend: 0x0, symName: __ZNK11llama_vocab4impl22tokenizer_st_partitionERNSt3__112forward_listI23fragment_buffer_variantNS1_9allocatorIS3_EEEEb, symObjAddr: 0x82B0, symBinAddr: 0xF9D70, symSize: 0x790 }
  - { offset: 0x6233C5, size: 0x8, addend: 0x0, symName: __ZN26llm_tokenizer_rwkv_session8tokenizeERKNSt3__112basic_stringIcNS0_11char_traitsIcEENS0_9allocatorIcEEEERNS0_6vectorIiNS4_IiEEEE, symObjAddr: 0xB340, symBinAddr: 0xFCE00, symSize: 0x380 }
  - { offset: 0x62407B, size: 0x8, addend: 0x0, symName: __ZNK25llm_tokenizer_bpe_session10append_bosERNSt3__16vectorIiNS0_9allocatorIiEEEE, symObjAddr: 0x8EE0, symBinAddr: 0xFA9A0, symSize: 0x160 }
  - { offset: 0x6244EE, size: 0x8, addend: 0x0, symName: __ZNK25llm_tokenizer_bpe_session10append_eosERNSt3__16vectorIiNS0_9allocatorIiEEEE, symObjAddr: 0xA210, symBinAddr: 0xFBCD0, symSize: 0x160 }
  - { offset: 0x624961, size: 0x8, addend: 0x0, symName: __ZN25llm_tokenizer_bpe_session8tokenizeERKNSt3__112basic_stringIcNS0_11char_traitsIcEENS0_9allocatorIcEEEERNS0_6vectorIiNS4_IiEEEE, symObjAddr: 0x9040, symBinAddr: 0xFAB00, symSize: 0x11D0 }
  - { offset: 0x628C50, size: 0x8, addend: 0x0, symName: __ZNK20llm_tokenizer_plamo26encodeERKNSt3__112basic_stringIcNS0_11char_traitsIcEENS0_9allocatorIcEEEE, symObjAddr: 0x11890, symBinAddr: 0x103010, symSize: 0xA80 }
  - { offset: 0x62B21A, size: 0x8, addend: 0x0, symName: __ZN25llm_tokenizer_wpm_session8tokenizeERKNSt3__112basic_stringIcNS0_11char_traitsIcEENS0_9allocatorIcEEEERNS0_6vectorIiNS4_IiEEEE, symObjAddr: 0xA410, symBinAddr: 0xFBED0, symSize: 0x730 }
  - { offset: 0x62CD04, size: 0x8, addend: 0x0, symName: __ZN25llm_tokenizer_ugm_session8tokenizeERKNSt3__112basic_stringIcNS0_11char_traitsIcEENS0_9allocatorIcEEEERNS0_6vectorIiNS4_IiEEEE, symObjAddr: 0xAB40, symBinAddr: 0xFC600, symSize: 0x800 }
  - { offset: 0x62E0DE, size: 0x8, addend: 0x0, symName: __ZNSt3__16vectorIiNS_9allocatorIiEEE9push_backB8ne190102ERKi, symObjAddr: 0x7AD0, symBinAddr: 0xF9600, symSize: 0x110 }
  - { offset: 0x62E511, size: 0x8, addend: 0x0, symName: __ZN25llm_tokenizer_spm_session8tokenizeERKNSt3__112basic_stringIcNS0_11char_traitsIcEENS0_9allocatorIcEEEERNS0_6vectorIiNS4_IiEEEE, symObjAddr: 0x8AE0, symBinAddr: 0xFA5A0, symSize: 0x3B0 }
  - { offset: 0x62EC99, size: 0x8, addend: 0x0, symName: __ZNSt3__16__treeINS_12__value_typeINS_12basic_stringIcNS_11char_traitsIcEENS_9allocatorIcEEEENS_4pairIiiEEEENS_19__map_value_compareIS7_SA_NS_4lessIS7_EELb1EEENS5_ISA_EEE7destroyEPNS_11__tree_nodeISA_PvEE, symObjAddr: 0xFD80, symBinAddr: 0x1015F0, symSize: 0x50 }
  - { offset: 0x62EF70, size: 0x8, addend: 0x0, symName: __ZN25llm_tokenizer_spm_sessionD1Ev, symObjAddr: 0x8E90, symBinAddr: 0xFA950, symSize: 0x50 }
  - { offset: 0x62F300, size: 0x8, addend: 0x0, symName: __ZN25llm_tokenizer_bpe_sessionD1Ev, symObjAddr: 0xA370, symBinAddr: 0xFBE30, symSize: 0xA0 }
  - { offset: 0x62F8E0, size: 0x8, addend: 0x0, symName: __ZNSt3__112forward_listI23fragment_buffer_variantNS_9allocatorIS1_EEED1Ev, symObjAddr: 0xB6C0, symBinAddr: 0xFD180, symSize: 0x60 }
  - { offset: 0x62FC9F, size: 0x8, addend: 0x0, symName: __ZNK11llama_vocab4impl8get_typeEv, symObjAddr: 0x7D70, symBinAddr: 0xF9830, symSize: 0x10 }
  - { offset: 0x62FCBF, size: 0x8, addend: 0x0, symName: __ZNK11llama_vocab4impl9type_nameEv, symObjAddr: 0x7D80, symBinAddr: 0xF9840, symSize: 0x110 }
  - { offset: 0x630358, size: 0x8, addend: 0x0, symName: __ZNK11llama_vocab4impl9is_normalEi, symObjAddr: 0x7E90, symBinAddr: 0xF9950, symSize: 0x50 }
  - { offset: 0x6303BF, size: 0x8, addend: 0x0, symName: __ZNK11llama_vocab4impl10is_unknownEi, symObjAddr: 0x7EE0, symBinAddr: 0xF99A0, symSize: 0x50 }
  - { offset: 0x630426, size: 0x8, addend: 0x0, symName: __ZNK11llama_vocab4impl10is_controlEi, symObjAddr: 0x7F30, symBinAddr: 0xF99F0, symSize: 0x50 }
  - { offset: 0x63048D, size: 0x8, addend: 0x0, symName: __ZNK11llama_vocab4impl7is_byteEi, symObjAddr: 0x7F80, symBinAddr: 0xF9A40, symSize: 0x50 }
  - { offset: 0x6304F4, size: 0x8, addend: 0x0, symName: __ZNK11llama_vocab4impl15is_user_definedEi, symObjAddr: 0x7FD0, symBinAddr: 0xF9A90, symSize: 0x50 }
  - { offset: 0x63055B, size: 0x8, addend: 0x0, symName: __ZNK11llama_vocab4impl9is_unusedEi, symObjAddr: 0x8020, symBinAddr: 0xF9AE0, symSize: 0x50 }
  - { offset: 0x6305C2, size: 0x8, addend: 0x0, symName: __ZNK11llama_vocab4impl6is_eogEi, symObjAddr: 0x8070, symBinAddr: 0xF9B30, symSize: 0x40 }
  - { offset: 0x630699, size: 0x8, addend: 0x0, symName: __ZNK11llama_vocab4impl13token_to_byteEi, symObjAddr: 0x80B0, symBinAddr: 0xF9B70, symSize: 0x1A0 }
  - { offset: 0x630AB2, size: 0x8, addend: 0x0, symName: __ZNK11llama_vocab4impl14token_get_attrEi, symObjAddr: 0x8250, symBinAddr: 0xF9D10, symSize: 0x60 }
  - { offset: 0x63118A, size: 0x8, addend: 0x0, symName: __ZNK11llama_vocab14get_token_dataEi, symObjAddr: 0x8A40, symBinAddr: 0xFA500, symSize: 0x60 }
  - { offset: 0x63121F, size: 0x8, addend: 0x0, symName: __ZNK11llama_vocab14token_to_pieceEiPciib, symObjAddr: 0x8AA0, symBinAddr: 0xFA560, symSize: 0x10 }
  - { offset: 0x63122A, size: 0x8, addend: 0x0, symName: __ZNK11llama_vocab14token_to_pieceEiPciib, symObjAddr: 0x8AA0, symBinAddr: 0xFA560, symSize: 0x10 }
  - { offset: 0x6312CA, size: 0x8, addend: 0x0, symName: __ZNSt3__112basic_stringIcNS_11char_traitsIcEENS_9allocatorIcEEEpLB8ne190102ERKS5_, symObjAddr: 0x8AB0, symBinAddr: 0xFA570, symSize: 0x30 }
  - { offset: 0x63170F, size: 0x8, addend: 0x0, symName: __ZN25llm_tokenizer_spm_session14try_add_bigramEii, symObjAddr: 0xECF0, symBinAddr: 0x1007B0, symSize: 0x240 }
  - { offset: 0x631F01, size: 0x8, addend: 0x0, symName: __ZN25llm_tokenizer_spm_session9resegmentER10llm_symbolRNSt3__16vectorIiNS2_9allocatorIiEEEE, symObjAddr: 0xEF30, symBinAddr: 0x1009F0, symSize: 0x460 }
  - { offset: 0x633186, size: 0x8, addend: 0x0, symName: __ZNKSt3__16vectorI10llm_symbolNS_9allocatorIS1_EEE20__throw_length_errorB8ne190102Ev, symObjAddr: 0xF390, symBinAddr: 0x100E50, symSize: 0x10 }
  - { offset: 0x633A0E, size: 0x8, addend: 0x0, symName: __ZN25llm_tokenizer_bpe_session14add_new_bigramEii, symObjAddr: 0xFDD0, symBinAddr: 0x101640, symSize: 0x430 }
  - { offset: 0x634EC7, size: 0x8, addend: 0x0, symName: __ZNSt3__16vectorI10llm_symbolNS_9allocatorIS1_EEE18__assign_with_sizeB8ne190102IPS1_S6_EEvT_T0_l, symObjAddr: 0x108F0, symBinAddr: 0x102150, symSize: 0x160 }
  - { offset: 0x635BC6, size: 0x8, addend: 0x0, symName: __ZN25llm_tokenizer_wpm_session10preprocessERKNSt3__112basic_stringIcNS0_11char_traitsIcEENS0_9allocatorIcEEEE, symObjAddr: 0x10A50, symBinAddr: 0x1022B0, symSize: 0x640 }
  - { offset: 0x638085, size: 0x8, addend: 0x0, symName: __ZN25llm_tokenizer_ugm_session9normalizeERKNSt3__112basic_stringIcNS0_11char_traitsIcEENS0_9allocatorIcEEEEPS6_, symObjAddr: 0x11170, symBinAddr: 0x1028F0, symSize: 0x3F0 }
  - { offset: 0x63889A, size: 0x8, addend: 0x0, symName: __ZNKSt3__16vectorIN25llm_tokenizer_ugm_session17best_tokenizationENS_9allocatorIS2_EEE20__throw_length_errorB8ne190102Ev, symObjAddr: 0x11880, symBinAddr: 0x103000, symSize: 0x10 }
  - { offset: 0x6388C4, size: 0x8, addend: 0x0, symName: __ZNK20llm_tokenizer_plamo26encodeERKNSt3__112basic_stringIcNS0_11char_traitsIcEENS0_9allocatorIcEEEE, symObjAddr: 0x11890, symBinAddr: 0x103010, symSize: 0xA80 }
  - { offset: 0x638AFC, size: 0x8, addend: 0x0, symName: __ZNK11llama_vocab7is_byteEi, symObjAddr: 0xC590, symBinAddr: 0xFE050, symSize: 0x50 }
  - { offset: 0x638B29, size: 0x8, addend: 0x0, symName: __ZNK11llama_vocab7is_byteEi, symObjAddr: 0xC590, symBinAddr: 0xFE050, symSize: 0x50 }
  - { offset: 0x638B97, size: 0x8, addend: 0x0, symName: __ZL25llama_unescape_rwkv_tokenRKNSt3__112basic_stringIcNS_11char_traitsIcEENS_9allocatorIcEEEE, symObjAddr: 0xC030, symBinAddr: 0xFDAF0, symSize: 0x560 }
  - { offset: 0x63A0A8, size: 0x8, addend: 0x0, symName: __ZL17llama_decode_textRKNSt3__112basic_stringIcNS_11char_traitsIcEENS_9allocatorIcEEEE, symObjAddr: 0xBDF0, symBinAddr: 0xFD8B0, symSize: 0x240 }
  - { offset: 0x63AD10, size: 0x8, addend: 0x0, symName: '__ZZNK11llama_vocab4impl14token_to_pieceEiPciibENK3$_0clEPKcm', symObjAddr: 0xBCC0, symBinAddr: 0xFD780, symSize: 0x90 }
  - { offset: 0x63AD71, size: 0x8, addend: 0x0, symName: __ZL25llama_unescape_whitespaceRNSt3__112basic_stringIcNS_11char_traitsIcEENS_9allocatorIcEEEE, symObjAddr: 0xBD50, symBinAddr: 0xFD810, symSize: 0xA0 }
  - { offset: 0x63B375, size: 0x8, addend: 0x0, symName: __ZNKSt3__16vectorINS_12basic_stringIcNS_11char_traitsIcEENS_9allocatorIcEEEENS4_IS6_EEE20__throw_out_of_rangeB8ne190102Ev, symObjAddr: 0x1CAD0, symBinAddr: 0x10D120, symSize: 0x10 }
  - { offset: 0x63B39F, size: 0x8, addend: 0x0, symName: __ZN11llama_vocab4implD2Ev, symObjAddr: 0x1CAE0, symBinAddr: 0x10D130, symSize: 0x210 }
  - { offset: 0x63B9F8, size: 0x8, addend: 0x0, symName: __ZNK11llama_vocab4impl14token_to_pieceEi, symObjAddr: 0xC5E0, symBinAddr: 0xFE0A0, symSize: 0x50 }
  - { offset: 0x63BA66, size: 0x8, addend: 0x0, symName: __ZNK11llama_vocab4impl10detokenizeEPKiiPcibb, symObjAddr: 0xC630, symBinAddr: 0xFE0F0, symSize: 0x440 }
  - { offset: 0x63BD79, size: 0x8, addend: 0x0, symName: __ZNK11llama_vocab4impl10print_infoEv, symObjAddr: 0xCA70, symBinAddr: 0xFE530, symSize: 0x7E0 }
  - { offset: 0x63D925, size: 0x8, addend: 0x0, symName: __ZNK11llama_vocab8n_tokensEv, symObjAddr: 0xD250, symBinAddr: 0xFED10, symSize: 0x20 }
  - { offset: 0x63DEB6, size: 0x8, addend: 0x0, symName: __ZN11llama_vocabC2Ev, symObjAddr: 0xD270, symBinAddr: 0xFED30, symSize: 0x110 }
  - { offset: 0x63E43C, size: 0x8, addend: 0x0, symName: __ZN11llama_vocabC1Ev, symObjAddr: 0xD380, symBinAddr: 0xFEE40, symSize: 0x110 }
  - { offset: 0x63EA6B, size: 0x8, addend: 0x0, symName: __ZN11llama_vocabD2Ev, symObjAddr: 0xD490, symBinAddr: 0xFEF50, symSize: 0x40 }
  - { offset: 0x63EB49, size: 0x8, addend: 0x0, symName: __ZN11llama_vocab4implD2Ev, symObjAddr: 0x1CAE0, symBinAddr: 0x10D130, symSize: 0x210 }
  - { offset: 0x6400C4, size: 0x8, addend: 0x0, symName: __ZN11llama_vocabD1Ev, symObjAddr: 0xD4D0, symBinAddr: 0xFEF90, symSize: 0x40 }
  - { offset: 0x6401CD, size: 0x8, addend: 0x0, symName: __ZN11llama_vocab4loadER18llama_model_loaderRK6LLM_KV, symObjAddr: 0xD510, symBinAddr: 0xFEFD0, symSize: 0x10 }
  - { offset: 0x64024F, size: 0x8, addend: 0x0, symName: __ZNK11llama_vocab19get_tokenizer_modelEv, symObjAddr: 0xD520, symBinAddr: 0xFEFE0, symSize: 0x40 }
  - { offset: 0x64027B, size: 0x8, addend: 0x0, symName: __ZNK11llama_vocab19get_tokenizer_modelEv, symObjAddr: 0xD520, symBinAddr: 0xFEFE0, symSize: 0x40 }
  - { offset: 0x64030A, size: 0x8, addend: 0x0, symName: __ZNK11llama_vocab17get_tokenizer_preEv, symObjAddr: 0xD560, symBinAddr: 0xFF020, symSize: 0x40 }
  - { offset: 0x640336, size: 0x8, addend: 0x0, symName: __ZNK11llama_vocab17get_tokenizer_preEv, symObjAddr: 0xD560, symBinAddr: 0xFF020, symSize: 0x40 }
  - { offset: 0x6403C5, size: 0x8, addend: 0x0, symName: __ZNK11llama_vocab8get_typeEv, symObjAddr: 0xD5A0, symBinAddr: 0xFF060, symSize: 0x10 }
  - { offset: 0x640402, size: 0x8, addend: 0x0, symName: __ZNK11llama_vocab12get_pre_typeEv, symObjAddr: 0xD5B0, symBinAddr: 0xFF070, symSize: 0x10 }
  - { offset: 0x64043F, size: 0x8, addend: 0x0, symName: __ZNK11llama_vocab13n_token_typesEv, symObjAddr: 0xD5C0, symBinAddr: 0xFF080, symSize: 0x10 }
  - { offset: 0x640484, size: 0x8, addend: 0x0, symName: __ZNK11llama_vocab9type_nameEv, symObjAddr: 0xD5D0, symBinAddr: 0xFF090, symSize: 0x110 }
  - { offset: 0x640B59, size: 0x8, addend: 0x0, symName: __ZNK11llama_vocab9is_normalEi, symObjAddr: 0xD6E0, symBinAddr: 0xFF1A0, symSize: 0x50 }
  - { offset: 0x640B86, size: 0x8, addend: 0x0, symName: __ZNK11llama_vocab9is_normalEi, symObjAddr: 0xD6E0, symBinAddr: 0xFF1A0, symSize: 0x50 }
  - { offset: 0x640C18, size: 0x8, addend: 0x0, symName: __ZNK11llama_vocab10is_unknownEi, symObjAddr: 0xD730, symBinAddr: 0xFF1F0, symSize: 0x50 }
  - { offset: 0x640C54, size: 0x8, addend: 0x0, symName: __ZNK11llama_vocab10is_unknownEi, symObjAddr: 0xD730, symBinAddr: 0xFF1F0, symSize: 0x50 }
  - { offset: 0x640CE6, size: 0x8, addend: 0x0, symName: __ZNK11llama_vocab10is_controlEi, symObjAddr: 0xD780, symBinAddr: 0xFF240, symSize: 0x50 }
  - { offset: 0x640D13, size: 0x8, addend: 0x0, symName: __ZNK11llama_vocab10is_controlEi, symObjAddr: 0xD780, symBinAddr: 0xFF240, symSize: 0x50 }
  - { offset: 0x640D81, size: 0x8, addend: 0x0, symName: __ZNK11llama_vocab15is_user_definedEi, symObjAddr: 0xD7D0, symBinAddr: 0xFF290, symSize: 0x50 }
  - { offset: 0x640DAE, size: 0x8, addend: 0x0, symName: __ZNK11llama_vocab15is_user_definedEi, symObjAddr: 0xD7D0, symBinAddr: 0xFF290, symSize: 0x50 }
  - { offset: 0x640E40, size: 0x8, addend: 0x0, symName: __ZNK11llama_vocab9is_unusedEi, symObjAddr: 0xD820, symBinAddr: 0xFF2E0, symSize: 0x50 }
  - { offset: 0x640E7C, size: 0x8, addend: 0x0, symName: __ZNK11llama_vocab9is_unusedEi, symObjAddr: 0xD820, symBinAddr: 0xFF2E0, symSize: 0x50 }
  - { offset: 0x640F0E, size: 0x8, addend: 0x0, symName: __ZNK11llama_vocab6is_eogEi, symObjAddr: 0xD870, symBinAddr: 0xFF330, symSize: 0x40 }
  - { offset: 0x640FD3, size: 0x8, addend: 0x0, symName: __ZNK11llama_vocab13token_to_byteEi, symObjAddr: 0xD8B0, symBinAddr: 0xFF370, symSize: 0x10 }
  - { offset: 0x64103F, size: 0x8, addend: 0x0, symName: __ZNK11llama_vocab13text_to_tokenERKNSt3__112basic_stringIcNS0_11char_traitsIcEENS0_9allocatorIcEEEE, symObjAddr: 0xD8C0, symBinAddr: 0xFF380, symSize: 0x50 }
  - { offset: 0x641118, size: 0x8, addend: 0x0, symName: __ZNK11llama_vocab14token_get_textEi, symObjAddr: 0xD910, symBinAddr: 0xFF3D0, symSize: 0x70 }
  - { offset: 0x641249, size: 0x8, addend: 0x0, symName: __ZNK11llama_vocab15token_get_scoreEi, symObjAddr: 0xD980, symBinAddr: 0xFF440, symSize: 0x70 }
  - { offset: 0x641254, size: 0x8, addend: 0x0, symName: __ZNK11llama_vocab15token_get_scoreEi, symObjAddr: 0xD980, symBinAddr: 0xFF440, symSize: 0x70 }
  - { offset: 0x6412F4, size: 0x8, addend: 0x0, symName: __ZNK11llama_vocab14token_get_attrEi, symObjAddr: 0xD9F0, symBinAddr: 0xFF4B0, symSize: 0x70 }
  - { offset: 0x6413AB, size: 0x8, addend: 0x0, symName: __ZNK11llama_vocab9token_bosEv, symObjAddr: 0xDA60, symBinAddr: 0xFF520, symSize: 0x10 }
  - { offset: 0x6413E8, size: 0x8, addend: 0x0, symName: __ZNK11llama_vocab9token_eosEv, symObjAddr: 0xDA70, symBinAddr: 0xFF530, symSize: 0x10 }
  - { offset: 0x641425, size: 0x8, addend: 0x0, symName: __ZNK11llama_vocab9token_eotEv, symObjAddr: 0xDA80, symBinAddr: 0xFF540, symSize: 0x10 }
  - { offset: 0x641462, size: 0x8, addend: 0x0, symName: __ZNK11llama_vocab9token_eomEv, symObjAddr: 0xDA90, symBinAddr: 0xFF550, symSize: 0x10 }
  - { offset: 0x6414A7, size: 0x8, addend: 0x0, symName: __ZNK11llama_vocab9token_unkEv, symObjAddr: 0xDAA0, symBinAddr: 0xFF560, symSize: 0x10 }
  - { offset: 0x6414E4, size: 0x8, addend: 0x0, symName: __ZNK11llama_vocab9token_sepEv, symObjAddr: 0xDAB0, symBinAddr: 0xFF570, symSize: 0x10 }
  - { offset: 0x641521, size: 0x8, addend: 0x0, symName: __ZNK11llama_vocab8token_nlEv, symObjAddr: 0xDAC0, symBinAddr: 0xFF580, symSize: 0x10 }
  - { offset: 0x64155E, size: 0x8, addend: 0x0, symName: __ZNK11llama_vocab9token_padEv, symObjAddr: 0xDAD0, symBinAddr: 0xFF590, symSize: 0x10 }
  - { offset: 0x64159B, size: 0x8, addend: 0x0, symName: __ZNK11llama_vocab12token_prefixEv, symObjAddr: 0xDAE0, symBinAddr: 0xFF5A0, symSize: 0x10 }
  - { offset: 0x6415E0, size: 0x8, addend: 0x0, symName: __ZNK11llama_vocab12token_middleEv, symObjAddr: 0xDAF0, symBinAddr: 0xFF5B0, symSize: 0x10 }
  - { offset: 0x641625, size: 0x8, addend: 0x0, symName: __ZNK11llama_vocab12token_suffixEv, symObjAddr: 0xDB00, symBinAddr: 0xFF5C0, symSize: 0x10 }
  - { offset: 0x64166A, size: 0x8, addend: 0x0, symName: __ZNK11llama_vocab13token_fim_preEv, symObjAddr: 0xDB10, symBinAddr: 0xFF5D0, symSize: 0x10 }
  - { offset: 0x6416A7, size: 0x8, addend: 0x0, symName: __ZNK11llama_vocab13token_fim_sufEv, symObjAddr: 0xDB20, symBinAddr: 0xFF5E0, symSize: 0x10 }
  - { offset: 0x6416E4, size: 0x8, addend: 0x0, symName: __ZNK11llama_vocab13token_fim_midEv, symObjAddr: 0xDB30, symBinAddr: 0xFF5F0, symSize: 0x10 }
  - { offset: 0x641721, size: 0x8, addend: 0x0, symName: __ZNK11llama_vocab13token_fim_padEv, symObjAddr: 0xDB40, symBinAddr: 0xFF600, symSize: 0x10 }
  - { offset: 0x64175E, size: 0x8, addend: 0x0, symName: __ZNK11llama_vocab13token_fim_repEv, symObjAddr: 0xDB50, symBinAddr: 0xFF610, symSize: 0x10 }
  - { offset: 0x64179B, size: 0x8, addend: 0x0, symName: __ZNK11llama_vocab13token_fim_sepEv, symObjAddr: 0xDB60, symBinAddr: 0xFF620, symSize: 0x10 }
  - { offset: 0x6417D8, size: 0x8, addend: 0x0, symName: __ZNK11llama_vocab10token_maskEv, symObjAddr: 0xDB70, symBinAddr: 0xFF630, symSize: 0x10 }
  - { offset: 0x641815, size: 0x8, addend: 0x0, symName: __ZNK11llama_vocab20get_add_space_prefixEv, symObjAddr: 0xDB80, symBinAddr: 0xFF640, symSize: 0x10 }
  - { offset: 0x64185A, size: 0x8, addend: 0x0, symName: __ZNK11llama_vocab11get_add_bosEv, symObjAddr: 0xDB90, symBinAddr: 0xFF650, symSize: 0x10 }
  - { offset: 0x641897, size: 0x8, addend: 0x0, symName: __ZNK11llama_vocab11get_add_eosEv, symObjAddr: 0xDBA0, symBinAddr: 0xFF660, symSize: 0x10 }
  - { offset: 0x6418D4, size: 0x8, addend: 0x0, symName: __ZNK11llama_vocab11get_add_sepEv, symObjAddr: 0xDBB0, symBinAddr: 0xFF670, symSize: 0x10 }
  - { offset: 0x641911, size: 0x8, addend: 0x0, symName: __ZNK11llama_vocab17get_ignore_mergesEv, symObjAddr: 0xDBC0, symBinAddr: 0xFF680, symSize: 0x10 }
  - { offset: 0x64194E, size: 0x8, addend: 0x0, symName: __ZNK11llama_vocab16get_clean_spacesEv, symObjAddr: 0xDBD0, symBinAddr: 0xFF690, symSize: 0x10 }
  - { offset: 0x641993, size: 0x8, addend: 0x0, symName: __ZNK11llama_vocab28get_remove_extra_whitespacesEv, symObjAddr: 0xDBE0, symBinAddr: 0xFF6A0, symSize: 0x10 }
  - { offset: 0x6419D8, size: 0x8, addend: 0x0, symName: __ZNK11llama_vocab22get_escape_whitespacesEv, symObjAddr: 0xDBF0, symBinAddr: 0xFF6B0, symSize: 0x10 }
  - { offset: 0x641A15, size: 0x8, addend: 0x0, symName: __ZNK11llama_vocab30get_treat_whitespace_as_suffixEv, symObjAddr: 0xDC00, symBinAddr: 0xFF6C0, symSize: 0x10 }
  - { offset: 0x641A52, size: 0x8, addend: 0x0, symName: __ZNK11llama_vocab13max_token_lenEv, symObjAddr: 0xDC10, symBinAddr: 0xFF6D0, symSize: 0x10 }
  - { offset: 0x641B3B, size: 0x8, addend: 0x0, symName: __ZNK11llama_vocab13find_bpe_rankERKNSt3__112basic_stringIcNS0_11char_traitsIcEENS0_9allocatorIcEEEES8_, symObjAddr: 0xDC20, symBinAddr: 0xFF6E0, symSize: 0x1F0 }
  - { offset: 0x642124, size: 0x8, addend: 0x0, symName: __ZNSt3__112__hash_tableINS_17__hash_value_typeINS_4pairINS_12basic_stringIcNS_11char_traitsIcEENS_9allocatorIcEEEES8_EEiEENS_22__unordered_map_hasherIS9_SA_N11llama_vocab4impl9pair_hashENS_8equal_toIS9_EELb1EEENS_21__unordered_map_equalIS9_SA_SG_SE_Lb1EEENS6_ISA_EEE4findIS9_EENS_15__hash_iteratorIPNS_11__hash_nodeISA_PvEEEERKT_, symObjAddr: 0x1CCF0, symBinAddr: 0x10D340, symSize: 0x1F0 }
  - { offset: 0x64248E, size: 0x8, addend: 0x0, symName: __ZNK11llama_vocab14get_bpe_mergesEv, symObjAddr: 0xDE10, symBinAddr: 0xFF8D0, symSize: 0x2E0 }
  - { offset: 0x6432EB, size: 0x8, addend: 0x0, symName: __ZNK11llama_vocab24get_precompiled_charsmapEv, symObjAddr: 0xE200, symBinAddr: 0xFFCC0, symSize: 0x90 }
  - { offset: 0x6437A0, size: 0x8, addend: 0x0, symName: __ZNK11llama_vocab8tokenizeEPKciPiibb, symObjAddr: 0xE290, symBinAddr: 0xFFD50, symSize: 0x250 }
  - { offset: 0x643F1F, size: 0x8, addend: 0x0, symName: __ZNK11llama_vocab8tokenizeERKNSt3__112basic_stringIcNS0_11char_traitsIcEENS0_9allocatorIcEEEEbb, symObjAddr: 0xE4E0, symBinAddr: 0xFFFA0, symSize: 0x20 }
  - { offset: 0x643FC7, size: 0x8, addend: 0x0, symName: __ZNK11llama_vocab14token_to_pieceEi, symObjAddr: 0xE500, symBinAddr: 0xFFFC0, symSize: 0x50 }
  - { offset: 0x644003, size: 0x8, addend: 0x0, symName: __ZNK11llama_vocab14token_to_pieceEi, symObjAddr: 0xE500, symBinAddr: 0xFFFC0, symSize: 0x50 }
  - { offset: 0x644081, size: 0x8, addend: 0x0, symName: __ZNK11llama_vocab10detokenizeEPKiiPcibb, symObjAddr: 0xE550, symBinAddr: 0x100010, symSize: 0x10 }
  - { offset: 0x64419E, size: 0x8, addend: 0x0, symName: __ZNK11llama_vocab10detokenizeERKNSt3__16vectorIiNS0_9allocatorIiEEEEb, symObjAddr: 0xE560, symBinAddr: 0x100020, symSize: 0x140 }
  - { offset: 0x644693, size: 0x8, addend: 0x0, symName: __ZNK11llama_vocab10print_infoEv, symObjAddr: 0xE6A0, symBinAddr: 0x100160, symSize: 0x10 }
  - { offset: 0x6446E8, size: 0x8, addend: 0x0, symName: _llama_vocab_n_tokens, symObjAddr: 0xE6B0, symBinAddr: 0x100170, symSize: 0x20 }
  - { offset: 0x644779, size: 0x8, addend: 0x0, symName: _llama_n_vocab, symObjAddr: 0xE6D0, symBinAddr: 0x100190, symSize: 0x20 }
  - { offset: 0x64481B, size: 0x8, addend: 0x0, symName: _llama_vocab_type, symObjAddr: 0xE6F0, symBinAddr: 0x1001B0, symSize: 0x10 }
  - { offset: 0x6448A5, size: 0x8, addend: 0x0, symName: _llama_vocab_get_text, symObjAddr: 0xE700, symBinAddr: 0x1001C0, symSize: 0x70 }
  - { offset: 0x6449F2, size: 0x8, addend: 0x0, symName: _llama_vocab_get_score, symObjAddr: 0xE770, symBinAddr: 0x100230, symSize: 0x70 }
  - { offset: 0x644A22, size: 0x8, addend: 0x0, symName: _llama_vocab_get_score, symObjAddr: 0xE770, symBinAddr: 0x100230, symSize: 0x70 }
  - { offset: 0x644B03, size: 0x8, addend: 0x0, symName: _llama_vocab_get_attr, symObjAddr: 0xE7E0, symBinAddr: 0x1002A0, symSize: 0x70 }
  - { offset: 0x644BFB, size: 0x8, addend: 0x0, symName: _llama_vocab_is_eog, symObjAddr: 0xE850, symBinAddr: 0x100310, symSize: 0x40 }
  - { offset: 0x644C20, size: 0x8, addend: 0x0, symName: _llama_vocab_is_eog, symObjAddr: 0xE850, symBinAddr: 0x100310, symSize: 0x40 }
  - { offset: 0x644D05, size: 0x8, addend: 0x0, symName: _llama_vocab_is_control, symObjAddr: 0xE890, symBinAddr: 0x100350, symSize: 0x50 }
  - { offset: 0x644D4D, size: 0x8, addend: 0x0, symName: _llama_vocab_is_control, symObjAddr: 0xE890, symBinAddr: 0x100350, symSize: 0x50 }
  - { offset: 0x644DBC, size: 0x8, addend: 0x0, symName: _llama_vocab_bos, symObjAddr: 0xE8E0, symBinAddr: 0x1003A0, symSize: 0x10 }
  - { offset: 0x644E12, size: 0x8, addend: 0x0, symName: _llama_vocab_eos, symObjAddr: 0xE8F0, symBinAddr: 0x1003B0, symSize: 0x10 }
  - { offset: 0x644E81, size: 0x8, addend: 0x0, symName: _llama_vocab_eot, symObjAddr: 0xE900, symBinAddr: 0x1003C0, symSize: 0x10 }
  - { offset: 0x644ED7, size: 0x8, addend: 0x0, symName: _llama_vocab_cls, symObjAddr: 0xE910, symBinAddr: 0x1003D0, symSize: 0x10 }
  - { offset: 0x644F55, size: 0x8, addend: 0x0, symName: _llama_vocab_sep, symObjAddr: 0xE920, symBinAddr: 0x1003E0, symSize: 0x10 }
  - { offset: 0x644FC4, size: 0x8, addend: 0x0, symName: _llama_vocab_nl, symObjAddr: 0xE930, symBinAddr: 0x1003F0, symSize: 0x10 }
  - { offset: 0x645033, size: 0x8, addend: 0x0, symName: _llama_vocab_pad, symObjAddr: 0xE940, symBinAddr: 0x100400, symSize: 0x10 }
  - { offset: 0x645089, size: 0x8, addend: 0x0, symName: _llama_vocab_get_add_bos, symObjAddr: 0xE950, symBinAddr: 0x100410, symSize: 0x10 }
  - { offset: 0x6450DF, size: 0x8, addend: 0x0, symName: _llama_vocab_get_add_eos, symObjAddr: 0xE960, symBinAddr: 0x100420, symSize: 0x10 }
  - { offset: 0x64514E, size: 0x8, addend: 0x0, symName: _llama_vocab_get_add_sep, symObjAddr: 0xE970, symBinAddr: 0x100430, symSize: 0x10 }
  - { offset: 0x6451CC, size: 0x8, addend: 0x0, symName: _llama_vocab_fim_pre, symObjAddr: 0xE980, symBinAddr: 0x100440, symSize: 0x10 }
  - { offset: 0x64523B, size: 0x8, addend: 0x0, symName: _llama_vocab_fim_suf, symObjAddr: 0xE990, symBinAddr: 0x100450, symSize: 0x10 }
  - { offset: 0x6452AA, size: 0x8, addend: 0x0, symName: _llama_vocab_fim_mid, symObjAddr: 0xE9A0, symBinAddr: 0x100460, symSize: 0x10 }
  - { offset: 0x645319, size: 0x8, addend: 0x0, symName: _llama_vocab_fim_pad, symObjAddr: 0xE9B0, symBinAddr: 0x100470, symSize: 0x10 }
  - { offset: 0x645388, size: 0x8, addend: 0x0, symName: _llama_vocab_fim_rep, symObjAddr: 0xE9C0, symBinAddr: 0x100480, symSize: 0x10 }
  - { offset: 0x6453F7, size: 0x8, addend: 0x0, symName: _llama_vocab_fim_sep, symObjAddr: 0xE9D0, symBinAddr: 0x100490, symSize: 0x10 }
  - { offset: 0x645466, size: 0x8, addend: 0x0, symName: _llama_vocab_mask, symObjAddr: 0xE9E0, symBinAddr: 0x1004A0, symSize: 0x10 }
  - { offset: 0x6454F2, size: 0x8, addend: 0x0, symName: _llama_token_get_text, symObjAddr: 0xE9F0, symBinAddr: 0x1004B0, symSize: 0x70 }
  - { offset: 0x645674, size: 0x8, addend: 0x0, symName: _llama_token_get_score, symObjAddr: 0xEA60, symBinAddr: 0x100520, symSize: 0x70 }
  - { offset: 0x6456A6, size: 0x8, addend: 0x0, symName: _llama_token_get_score, symObjAddr: 0xEA60, symBinAddr: 0x100520, symSize: 0x70 }
  - { offset: 0x6457BE, size: 0x8, addend: 0x0, symName: _llama_token_get_attr, symObjAddr: 0xEAD0, symBinAddr: 0x100590, symSize: 0x70 }
  - { offset: 0x6458ED, size: 0x8, addend: 0x0, symName: _llama_token_is_eog, symObjAddr: 0xEB40, symBinAddr: 0x100600, symSize: 0x40 }
  - { offset: 0x645929, size: 0x8, addend: 0x0, symName: _llama_token_is_eog, symObjAddr: 0xEB40, symBinAddr: 0x100600, symSize: 0x40 }
  - { offset: 0x64594C, size: 0x8, addend: 0x0, symName: _llama_token_is_eog, symObjAddr: 0xEB40, symBinAddr: 0x100600, symSize: 0x40 }
  - { offset: 0x645A34, size: 0x8, addend: 0x0, symName: _llama_token_is_control, symObjAddr: 0xEB80, symBinAddr: 0x100640, symSize: 0x50 }
  - { offset: 0x645AB0, size: 0x8, addend: 0x0, symName: _llama_token_is_control, symObjAddr: 0xEB80, symBinAddr: 0x100640, symSize: 0x50 }
  - { offset: 0x645B3B, size: 0x8, addend: 0x0, symName: _llama_token_bos, symObjAddr: 0xEBD0, symBinAddr: 0x100690, symSize: 0x10 }
  - { offset: 0x645BD8, size: 0x8, addend: 0x0, symName: _llama_token_eos, symObjAddr: 0xEBE0, symBinAddr: 0x1006A0, symSize: 0x10 }
  - { offset: 0x645C75, size: 0x8, addend: 0x0, symName: _llama_token_eot, symObjAddr: 0xEBF0, symBinAddr: 0x1006B0, symSize: 0x10 }
  - { offset: 0x645CF7, size: 0x8, addend: 0x0, symName: _llama_token_cls, symObjAddr: 0xEC00, symBinAddr: 0x1006C0, symSize: 0x10 }
  - { offset: 0x645D94, size: 0x8, addend: 0x0, symName: _llama_token_sep, symObjAddr: 0xEC10, symBinAddr: 0x1006D0, symSize: 0x10 }
  - { offset: 0x645E31, size: 0x8, addend: 0x0, symName: _llama_token_nl, symObjAddr: 0xEC20, symBinAddr: 0x1006E0, symSize: 0x10 }
  - { offset: 0x645ECE, size: 0x8, addend: 0x0, symName: _llama_token_pad, symObjAddr: 0xEC30, symBinAddr: 0x1006F0, symSize: 0x10 }
  - { offset: 0x645F6B, size: 0x8, addend: 0x0, symName: _llama_add_bos_token, symObjAddr: 0xEC40, symBinAddr: 0x100700, symSize: 0x10 }
  - { offset: 0x646008, size: 0x8, addend: 0x0, symName: _llama_add_eos_token, symObjAddr: 0xEC50, symBinAddr: 0x100710, symSize: 0x10 }
  - { offset: 0x6460A5, size: 0x8, addend: 0x0, symName: _llama_token_fim_pre, symObjAddr: 0xEC60, symBinAddr: 0x100720, symSize: 0x10 }
  - { offset: 0x646142, size: 0x8, addend: 0x0, symName: _llama_token_fim_suf, symObjAddr: 0xEC70, symBinAddr: 0x100730, symSize: 0x10 }
  - { offset: 0x6461DF, size: 0x8, addend: 0x0, symName: _llama_token_fim_mid, symObjAddr: 0xEC80, symBinAddr: 0x100740, symSize: 0x10 }
  - { offset: 0x64627C, size: 0x8, addend: 0x0, symName: _llama_token_fim_pad, symObjAddr: 0xEC90, symBinAddr: 0x100750, symSize: 0x10 }
  - { offset: 0x646319, size: 0x8, addend: 0x0, symName: _llama_token_fim_rep, symObjAddr: 0xECA0, symBinAddr: 0x100760, symSize: 0x10 }
  - { offset: 0x6463B6, size: 0x8, addend: 0x0, symName: _llama_token_fim_sep, symObjAddr: 0xECB0, symBinAddr: 0x100770, symSize: 0x10 }
  - { offset: 0x646438, size: 0x8, addend: 0x0, symName: _llama_tokenize, symObjAddr: 0xECC0, symBinAddr: 0x100780, symSize: 0x10 }
  - { offset: 0x6464FF, size: 0x8, addend: 0x0, symName: _llama_token_to_piece, symObjAddr: 0xECD0, symBinAddr: 0x100790, symSize: 0x10 }
  - { offset: 0x64661F, size: 0x8, addend: 0x0, symName: _llama_detokenize, symObjAddr: 0xECE0, symBinAddr: 0x1007A0, symSize: 0x10 }
  - { offset: 0x646796, size: 0x8, addend: 0x0, symName: __ZNSt3__114priority_queueI14llm_bigram_spmNS_6vectorIS1_NS_9allocatorIS1_EEEENS1_10comparatorEE4pushERKS1_, symObjAddr: 0xF460, symBinAddr: 0x100E60, symSize: 0x270 }
  - { offset: 0x646D31, size: 0x8, addend: 0x0, symName: __ZNSt3__16__treeINS_12__value_typeINS_12basic_stringIcNS_11char_traitsIcEENS_9allocatorIcEEEENS_4pairIiiEEEENS_19__map_value_compareIS7_SA_NS_4lessIS7_EELb1EEENS5_ISA_EEE25__emplace_unique_key_argsIS7_JRKNS_21piecewise_construct_tENS_5tupleIJRKS7_EEENSL_IJEEEEEENS8_INS_15__tree_iteratorISA_PNS_11__tree_nodeISA_PvEElEEbEERKT_DpOT0_, symObjAddr: 0xF6E0, symBinAddr: 0x1010E0, symSize: 0x1C0 }
  - { offset: 0x647571, size: 0x8, addend: 0x0, symName: __ZNSt3__16__treeINS_12__value_typeINS_12basic_stringIcNS_11char_traitsIcEENS_9allocatorIcEEEENS_4pairIiiEEEENS_19__map_value_compareIS7_SA_NS_4lessIS7_EELb1EEENS5_ISA_EEE4findIS7_EENS_15__tree_iteratorISA_PNS_11__tree_nodeISA_PvEElEERKT_, symObjAddr: 0xFC60, symBinAddr: 0x1014E0, symSize: 0x110 }
  - { offset: 0x647CC7, size: 0x8, addend: 0x0, symName: __ZNKSt3__16vectorI14llm_bigram_spmNS_9allocatorIS1_EEE20__throw_length_errorB8ne190102Ev, symObjAddr: 0xF6D0, symBinAddr: 0x1010D0, symSize: 0x10 }
  - { offset: 0x647CF1, size: 0x8, addend: 0x0, symName: __ZNSt3__16__treeINS_12__value_typeINS_12basic_stringIcNS_11char_traitsIcEENS_9allocatorIcEEEENS_4pairIiiEEEENS_19__map_value_compareIS7_SA_NS_4lessIS7_EELb1EEENS5_ISA_EEE25__emplace_unique_key_argsIS7_JRKNS_21piecewise_construct_tENS_5tupleIJRKS7_EEENSL_IJEEEEEENS8_INS_15__tree_iteratorISA_PNS_11__tree_nodeISA_PvEElEEbEERKT_DpOT0_, symObjAddr: 0xF6E0, symBinAddr: 0x1010E0, symSize: 0x1C0 }
  - { offset: 0x648335, size: 0x8, addend: 0x0, symName: __ZNSt3__110unique_ptrINS_11__tree_nodeINS_12__value_typeINS_12basic_stringIcNS_11char_traitsIcEENS_9allocatorIcEEEENS_4pairIiiEEEEPvEENS_22__tree_node_destructorINS6_ISD_EEEEED1B8ne190102Ev, symObjAddr: 0xF8A0, symBinAddr: 0x1012A0, symSize: 0x50 }
  - { offset: 0x6489CB, size: 0x8, addend: 0x0, symName: __ZNSt3__16vectorI14llm_bigram_bpeNS_9allocatorIS1_EEE21__push_back_slow_pathIRKS1_EEPS1_OT_, symObjAddr: 0x10200, symBinAddr: 0x101A70, symSize: 0x230 }
  - { offset: 0x649485, size: 0x8, addend: 0x0, symName: __ZNKSt3__16vectorI14llm_bigram_bpeNS_9allocatorIS1_EEE20__throw_length_errorB8ne190102Ev, symObjAddr: 0x10490, symBinAddr: 0x101D00, symSize: 0x10 }
  - { offset: 0x6494AF, size: 0x8, addend: 0x0, symName: __ZNSt3__19__sift_upB8ne190102INS_17_ClassicAlgPolicyERN14llm_bigram_bpe10comparatorENS_11__wrap_iterIPS2_EEEEvT1_S8_OT0_NS_15iterator_traitsIS8_E15difference_typeE, symObjAddr: 0x104A0, symBinAddr: 0x101D10, symSize: 0x1A0 }
  - { offset: 0x6494BA, size: 0x8, addend: 0x0, symName: __ZNSt3__114__split_bufferI14llm_bigram_bpeRNS_9allocatorIS1_EEED1Ev, symObjAddr: 0x10430, symBinAddr: 0x101CA0, symSize: 0x60 }
  - { offset: 0x64A122, size: 0x8, addend: 0x0, symName: __ZN25llm_tokenizer_ugm_session16normalize_prefixERKNSt3__112basic_stringIcNS0_11char_traitsIcEENS0_9allocatorIcEEEEm, symObjAddr: 0x11560, symBinAddr: 0x102CE0, symSize: 0x320 }
  - { offset: 0x64B01B, size: 0x8, addend: 0x0, symName: __ZNSt3__16vectorINS0_IiNS_9allocatorIiEEEENS1_IS3_EEEC2B8ne190102EmRKS3_, symObjAddr: 0x12390, symBinAddr: 0x103A90, symSize: 0x1A0 }
  - { offset: 0x64B6E4, size: 0x8, addend: 0x0, symName: __ZNSt3__16vectorINS0_IiNS_9allocatorIiEEEENS1_IS3_EEEC2B8ne190102EmRKS3_, symObjAddr: 0x12390, symBinAddr: 0x103A90, symSize: 0x1A0 }
  - { offset: 0x64BA0A, size: 0x8, addend: 0x0, symName: __ZNKSt3__16vectorINS0_IiNS_9allocatorIiEEEENS1_IS3_EEE20__throw_length_errorB8ne190102Ev, symObjAddr: 0x125A0, symBinAddr: 0x103C30, symSize: 0x10 }
  - { offset: 0x64CC16, size: 0x8, addend: 0x0, symName: __ZNSt3__112__hash_tableINS_17__hash_value_typeINS_12basic_stringIcNS_11char_traitsIcEENS_9allocatorIcEEEEiEENS_22__unordered_map_hasherIS7_S8_NS_4hashIS7_EENS_8equal_toIS7_EELb1EEENS_21__unordered_map_equalIS7_S8_SD_SB_Lb1EEENS5_IS8_EEE11__do_rehashILb1EEEvm, symObjAddr: 0x13460, symBinAddr: 0x104250, symSize: 0x230 }
  - { offset: 0x64D088, size: 0x8, addend: 0x0, symName: __ZNSt3__110unique_ptrINS_11__hash_nodeINS_17__hash_value_typeINS_12basic_stringIcNS_11char_traitsIcEENS_9allocatorIcEEEEiEEPvEENS_22__hash_node_destructorINS6_ISB_EEEEED1B8ne190102Ev, symObjAddr: 0x12F60, symBinAddr: 0x104200, symSize: 0x50 }
  - { offset: 0x64DC20, size: 0x8, addend: 0x0, symName: __ZNKSt3__16vectorIN11llama_vocab10token_dataENS_9allocatorIS2_EEE20__throw_length_errorB8ne190102Ev, symObjAddr: 0x13AD0, symBinAddr: 0x1048C0, symSize: 0x10 }
  - { offset: 0x64DC4A, size: 0x8, addend: 0x0, symName: __ZNSt3__112__hash_tableINS_17__hash_value_typeINS_4pairINS_12basic_stringIcNS_11char_traitsIcEENS_9allocatorIcEEEES8_EEiEENS_22__unordered_map_hasherIS9_SA_N11llama_vocab4impl9pair_hashENS_8equal_toIS9_EELb1EEENS_21__unordered_map_equalIS9_SA_SG_SE_Lb1EEENS6_ISA_EEE25__emplace_unique_key_argsIS9_JS9_RiEEENS2_INS_15__hash_iteratorIPNS_11__hash_nodeISA_PvEEEEbEERKT_DpOT0_, symObjAddr: 0x13AE0, symBinAddr: 0x1048D0, symSize: 0x560 }
  - { offset: 0x64E1E8, size: 0x8, addend: 0x0, symName: __ZNKSt3__18equal_toINS_4pairINS_12basic_stringIcNS_11char_traitsIcEENS_9allocatorIcEEEES7_EEEclB8ne190102ERKS8_SB_, symObjAddr: 0x14090, symBinAddr: 0x104E80, symSize: 0x100 }
  - { offset: 0x64E49B, size: 0x8, addend: 0x0, symName: __ZNSt3__112__hash_tableINS_17__hash_value_typeINS_4pairINS_12basic_stringIcNS_11char_traitsIcEENS_9allocatorIcEEEES8_EEiEENS_22__unordered_map_hasherIS9_SA_N11llama_vocab4impl9pair_hashENS_8equal_toIS9_EELb1EEENS_21__unordered_map_equalIS9_SA_SG_SE_Lb1EEENS6_ISA_EEE11__do_rehashILb1EEEvm, symObjAddr: 0x14190, symBinAddr: 0x104F80, symSize: 0x230 }
  - { offset: 0x64E90D, size: 0x8, addend: 0x0, symName: __ZNSt3__110unique_ptrINS_11__hash_nodeINS_17__hash_value_typeINS_4pairINS_12basic_stringIcNS_11char_traitsIcEENS_9allocatorIcEEEES9_EEiEEPvEENS_22__hash_node_destructorINS7_ISD_EEEEED1B8ne190102Ev, symObjAddr: 0x14040, symBinAddr: 0x104E30, symSize: 0x50 }
  - { offset: 0x64F205, size: 0x8, addend: 0x0, symName: __ZN17llm_tokenizer_spmD1Ev, symObjAddr: 0x16390, symBinAddr: 0x106DB0, symSize: 0x10 }
  - { offset: 0x64F230, size: 0x8, addend: 0x0, symName: __ZN17llm_tokenizer_spmD0Ev, symObjAddr: 0x163A0, symBinAddr: 0x106DC0, symSize: 0x10 }
  - { offset: 0x64F322, size: 0x8, addend: 0x0, symName: __ZNSt3__16vectorINS_12basic_stringIcNS_11char_traitsIcEENS_9allocatorIcEEEENS4_IS6_EEE18__assign_with_sizeB8ne190102IPKS6_SB_EEvT_T0_l, symObjAddr: 0x17450, symBinAddr: 0x107E70, symSize: 0x340 }
  - { offset: 0x65002E, size: 0x8, addend: 0x0, symName: __ZN17llm_tokenizer_bpeC2ERK11llama_vocab.cold.1, symObjAddr: 0x1CEE0, symBinAddr: 0x231320, symSize: 0x20 }
  - { offset: 0x650049, size: 0x8, addend: 0x0, symName: __ZN17llm_tokenizer_bpeC2ERK11llama_vocab.cold.1, symObjAddr: 0x1CEE0, symBinAddr: 0x231320, symSize: 0x20 }
  - { offset: 0x65005E, size: 0x8, addend: 0x0, symName: __ZN17llm_tokenizer_bpeC2ERK11llama_vocab.cold.1, symObjAddr: 0x1CEE0, symBinAddr: 0x231320, symSize: 0x20 }
  - { offset: 0x65011F, size: 0x8, addend: 0x0, symName: __ZN17llm_tokenizer_bpeC2ERK11llama_vocab.cold.2, symObjAddr: 0x1CF00, symBinAddr: 0x231340, symSize: 0x30 }
  - { offset: 0x650210, size: 0x8, addend: 0x0, symName: __ZN17llm_tokenizer_bpeC2ERK11llama_vocab.cold.4, symObjAddr: 0x1CF60, symBinAddr: 0x2313A0, symSize: 0x30 }
  - { offset: 0x650301, size: 0x8, addend: 0x0, symName: __ZN17llm_tokenizer_bpeC2ERK11llama_vocab.cold.3, symObjAddr: 0x1CF30, symBinAddr: 0x231370, symSize: 0x30 }
  - { offset: 0x65040F, size: 0x8, addend: 0x0, symName: __ZN17llm_tokenizer_bpeD1Ev, symObjAddr: 0x17350, symBinAddr: 0x107D70, symSize: 0x80 }
  - { offset: 0x6506E6, size: 0x8, addend: 0x0, symName: __ZN17llm_tokenizer_bpeD0Ev, symObjAddr: 0x173D0, symBinAddr: 0x107DF0, symSize: 0x80 }
  - { offset: 0x650B67, size: 0x8, addend: 0x0, symName: __ZNSt3__128__exception_guard_exceptionsINS_29_AllocatorDestroyRangeReverseINS_9allocatorINS_12basic_stringIcNS_11char_traitsIcEENS2_IcEEEEEEPS7_EEED1B8ne190102Ev, symObjAddr: 0x17790, symBinAddr: 0x1081B0, symSize: 0x40 }
  - { offset: 0x650B94, size: 0x8, addend: 0x0, symName: __ZNSt3__128__exception_guard_exceptionsINS_29_AllocatorDestroyRangeReverseINS_9allocatorINS_12basic_stringIcNS_11char_traitsIcEENS2_IcEEEEEEPS7_EEED1B8ne190102Ev, symObjAddr: 0x17790, symBinAddr: 0x1081B0, symSize: 0x40 }
  - { offset: 0x650D7D, size: 0x8, addend: 0x0, symName: __ZN17llm_tokenizer_wpmD1Ev, symObjAddr: 0x177D0, symBinAddr: 0x1081F0, symSize: 0x10 }
  - { offset: 0x650DA9, size: 0x8, addend: 0x0, symName: __ZN17llm_tokenizer_wpmD0Ev, symObjAddr: 0x177E0, symBinAddr: 0x108200, symSize: 0x10 }
  - { offset: 0x65104B, size: 0x8, addend: 0x0, symName: __ZN10naive_trie6insertEPKcmi, symObjAddr: 0x17AD0, symBinAddr: 0x1084F0, symSize: 0x1D0 }
  - { offset: 0x651C9A, size: 0x8, addend: 0x0, symName: __ZNSt3__16__treeINS_12__value_typeIc10naive_trieEENS_19__map_value_compareIcS3_NS_4lessIcEELb1EEENS_9allocatorIS3_EEE7destroyEPNS_11__tree_nodeIS3_PvEE, symObjAddr: 0x17D40, symBinAddr: 0x108760, symSize: 0x50 }
  - { offset: 0x652521, size: 0x8, addend: 0x0, symName: __ZN17llm_tokenizer_ugmD1Ev, symObjAddr: 0x17CA0, symBinAddr: 0x1086C0, symSize: 0x50 }
  - { offset: 0x65282F, size: 0x8, addend: 0x0, symName: __ZN17llm_tokenizer_ugmD0Ev, symObjAddr: 0x17CF0, symBinAddr: 0x108710, symSize: 0x50 }
  - { offset: 0x652C61, size: 0x8, addend: 0x0, symName: __ZN18llm_tokenizer_rwkvD1Ev, symObjAddr: 0x17EE0, symBinAddr: 0x108900, symSize: 0x20 }
  - { offset: 0x652D6A, size: 0x8, addend: 0x0, symName: __ZN18llm_tokenizer_rwkvD0Ev, symObjAddr: 0x17F00, symBinAddr: 0x108920, symSize: 0x40 }
  - { offset: 0x653FDD, size: 0x8, addend: 0x0, symName: __ZNSt3__112__hash_tableINS_17__hash_value_typeINS_12basic_stringIcNS_11char_traitsIcEENS_9allocatorIcEEEEfEENS_22__unordered_map_hasherIS7_S8_NS_4hashIS7_EENS_8equal_toIS7_EELb1EEENS_21__unordered_map_equalIS7_S8_SD_SB_Lb1EEENS5_IS8_EEE25__emplace_unique_key_argsIS7_JRKNS_21piecewise_construct_tENS_5tupleIJRKS7_EEENSN_IJEEEEEENS_4pairINS_15__hash_iteratorIPNS_11__hash_nodeIS8_PvEEEEbEERKT_DpOT0_, symObjAddr: 0x19970, symBinAddr: 0x109FC0, symSize: 0x5C0 }
  - { offset: 0x654A12, size: 0x8, addend: 0x0, symName: __ZNSt3__112__hash_tableINS_17__hash_value_typeINS_12basic_stringIcNS_11char_traitsIcEENS_9allocatorIcEEEEfEENS_22__unordered_map_hasherIS7_S8_NS_4hashIS7_EENS_8equal_toIS7_EELb1EEENS_21__unordered_map_equalIS7_S8_SD_SB_Lb1EEENS5_IS8_EEE4findIS7_EENS_15__hash_iteratorIPNS_11__hash_nodeIS8_PvEEEERKT_, symObjAddr: 0x1A1B0, symBinAddr: 0x10A800, symSize: 0x290 }
  - { offset: 0x654D10, size: 0x8, addend: 0x0, symName: __ZNSt3__112__hash_tableINS_17__hash_value_typeIxiEENS_22__unordered_map_hasherIxS2_NS_4hashIxEENS_8equal_toIxEELb1EEENS_21__unordered_map_equalIxS2_S7_S5_Lb1EEENS_9allocatorIS2_EEE25__emplace_unique_key_argsIxJRKNS_21piecewise_construct_tENS_5tupleIJRKxEEENSI_IJEEEEEENS_4pairINS_15__hash_iteratorIPNS_11__hash_nodeIS2_PvEEEEbEERKT_DpOT0_, symObjAddr: 0x1BFC0, symBinAddr: 0x10C610, symSize: 0x4A0 }
  - { offset: 0x655491, size: 0x8, addend: 0x0, symName: __ZNSt3__16vectorINS0_IiNS_9allocatorIiEEEENS1_IS3_EEE8__appendEmRKS3_, symObjAddr: 0x1C690, symBinAddr: 0x10CCE0, symSize: 0x2D0 }
  - { offset: 0x6562CA, size: 0x8, addend: 0x0, symName: __ZN20llm_tokenizer_plamo25buildERK11llama_vocab.cold.1, symObjAddr: 0x1CF90, symBinAddr: 0x2313D0, symSize: 0x4C }
  - { offset: 0x65663D, size: 0x8, addend: 0x0, symName: __ZN20llm_tokenizer_plamo2D1Ev, symObjAddr: 0x19570, symBinAddr: 0x109F90, symSize: 0x10 }
  - { offset: 0x656673, size: 0x8, addend: 0x0, symName: __ZN20llm_tokenizer_plamo2D2Ev, symObjAddr: 0x1C9C0, symBinAddr: 0x10D010, symSize: 0x110 }
  - { offset: 0x657008, size: 0x8, addend: 0x0, symName: __ZN20llm_tokenizer_plamo2D0Ev, symObjAddr: 0x19580, symBinAddr: 0x109FA0, symSize: 0x20 }
  - { offset: 0x65782A, size: 0x8, addend: 0x0, symName: __ZNSt3__112__hash_tableINS_17__hash_value_typeINS_12basic_stringIcNS_11char_traitsIcEENS_9allocatorIcEEEEfEENS_22__unordered_map_hasherIS7_S8_NS_4hashIS7_EENS_8equal_toIS7_EELb1EEENS_21__unordered_map_equalIS7_S8_SD_SB_Lb1EEENS5_IS8_EEE11__do_rehashILb1EEEvm, symObjAddr: 0x19F80, symBinAddr: 0x10A5D0, symSize: 0x230 }
  - { offset: 0x657C9C, size: 0x8, addend: 0x0, symName: __ZNSt3__110unique_ptrINS_11__hash_nodeINS_17__hash_value_typeINS_12basic_stringIcNS_11char_traitsIcEENS_9allocatorIcEEEEfEEPvEENS_22__hash_node_destructorINS6_ISB_EEEEED1B8ne190102Ev, symObjAddr: 0x19F30, symBinAddr: 0x10A580, symSize: 0x50 }
  - { offset: 0x658121, size: 0x8, addend: 0x0, symName: __ZZN20llm_tokenizer_plamo25buildERK11llama_vocabENKUlRKNSt3__112basic_stringIcNS3_11char_traitsIcEENS3_9allocatorIcEEEESB_E_clESB_SB_, symObjAddr: 0x1A900, symBinAddr: 0x10AF50, symSize: 0x440 }
  - { offset: 0x6593C1, size: 0x8, addend: 0x0, symName: __ZNSt3__112__hash_tableINS_17__hash_value_typeIxiEENS_22__unordered_map_hasherIxS2_NS_4hashIxEENS_8equal_toIxEELb1EEENS_21__unordered_map_equalIxS2_S7_S5_Lb1EEENS_9allocatorIS2_EEE11__do_rehashILb1EEEvm, symObjAddr: 0x1C460, symBinAddr: 0x10CAB0, symSize: 0x230 }
  - { offset: 0x659B92, size: 0x8, addend: 0x0, symName: __ZNSt3__114__split_bufferINS_6vectorIiNS_9allocatorIiEEEERNS2_IS4_EEED1Ev, symObjAddr: 0x1C960, symBinAddr: 0x10CFB0, symSize: 0x60 }
  - { offset: 0x65C05F, size: 0x8, addend: 0x0, symName: _llama_split_path, symObjAddr: 0x16E0, symBinAddr: 0x10EB10, symSize: 0x40 }
  - { offset: 0x65C120, size: 0x8, addend: 0x0, symName: _llama_print_system_info, symObjAddr: 0x1AE0, symBinAddr: 0x10EF10, symSize: 0x170 }
  - { offset: 0x65C148, size: 0x8, addend: 0x0, symName: __ZZ23llama_print_system_infoE1s, symObjAddr: 0xECFD8, symBinAddr: 0x309480, symSize: 0x0 }
  - { offset: 0x6731E3, size: 0x8, addend: 0x0, symName: _llama_sampler_chain_default_params, symObjAddr: 0x0, symBinAddr: 0x10D530, symSize: 0x10 }
  - { offset: 0x67320B, size: 0x8, addend: 0x0, symName: _llama_max_devices, symObjAddr: 0x10, symBinAddr: 0x10D540, symSize: 0x10 }
  - { offset: 0x673225, size: 0x8, addend: 0x0, symName: _llama_supports_mmap, symObjAddr: 0x20, symBinAddr: 0x10D550, symSize: 0x10 }
  - { offset: 0x67323F, size: 0x8, addend: 0x0, symName: _llama_supports_mlock, symObjAddr: 0x30, symBinAddr: 0x10D560, symSize: 0x10 }
  - { offset: 0x673266, size: 0x8, addend: 0x0, symName: _llama_supports_gpu_offload, symObjAddr: 0x40, symBinAddr: 0x10D570, symSize: 0x30 }
  - { offset: 0x6732E6, size: 0x8, addend: 0x0, symName: _llama_supports_rpc, symObjAddr: 0x70, symBinAddr: 0x10D5A0, symSize: 0x20 }
  - { offset: 0x673309, size: 0x8, addend: 0x0, symName: _llama_backend_init, symObjAddr: 0x90, symBinAddr: 0x10D5C0, symSize: 0x40 }
  - { offset: 0x67339E, size: 0x8, addend: 0x0, symName: _llama_numa_init, symObjAddr: 0xD0, symBinAddr: 0x10D600, symSize: 0x70 }
  - { offset: 0x67348C, size: 0x8, addend: 0x0, symName: _llama_backend_free, symObjAddr: 0x140, symBinAddr: 0x10D670, symSize: 0x10 }
  - { offset: 0x6734BA, size: 0x8, addend: 0x0, symName: _llama_time_us, symObjAddr: 0x150, symBinAddr: 0x10D680, symSize: 0x10 }
  - { offset: 0x6734F0, size: 0x8, addend: 0x0, symName: _llama_load_model_from_file, symObjAddr: 0x160, symBinAddr: 0x10D690, symSize: 0x10 }
  - { offset: 0x67353E, size: 0x8, addend: 0x0, symName: _llama_model_load_from_file, symObjAddr: 0x170, symBinAddr: 0x10D6A0, symSize: 0x180 }
  - { offset: 0x674203, size: 0x8, addend: 0x0, symName: __ZL31llama_model_load_from_file_implRKNSt3__112basic_stringIcNS_11char_traitsIcEENS_9allocatorIcEEEERNS_6vectorIS5_NS3_IS5_EEEE18llama_model_params, symObjAddr: 0x2F0, symBinAddr: 0x10D820, symSize: 0xC10 }
  - { offset: 0x679794, size: 0x8, addend: 0x0, symName: __ZNSt3__16vectorIP19ggml_backend_deviceNS_9allocatorIS2_EEE18__insert_with_sizeB8ne190102INS_11__wrap_iterIPS2_EES9_EES9_NS7_IPKS2_EET_T0_l, symObjAddr: 0x1DD0, symBinAddr: 0x10F130, symSize: 0x2E0 }
  - { offset: 0x67AA61, size: 0x8, addend: 0x0, symName: __ZNKSt3__16vectorIP19ggml_backend_deviceNS_9allocatorIS2_EEE20__throw_length_errorB8ne190102Ev, symObjAddr: 0x1CF0, symBinAddr: 0x10F120, symSize: 0x10 }
  - { offset: 0x67AF53, size: 0x8, addend: 0x0, symName: _llama_model_load_from_splits, symObjAddr: 0x1000, symBinAddr: 0x10E430, symSize: 0x300 }
  - { offset: 0x67BB68, size: 0x8, addend: 0x0, symName: __ZNSt3__16vectorIPK18llama_chat_messageNS_9allocatorIS3_EEE8__appendEm, symObjAddr: 0x2310, symBinAddr: 0x10F410, symSize: 0x150 }
  - { offset: 0x67BB73, size: 0x8, addend: 0x0, symName: _llama_model_save_to_file, symObjAddr: 0x1300, symBinAddr: 0x10E730, symSize: 0x130 }
  - { offset: 0x67C392, size: 0x8, addend: 0x0, symName: _llama_chat_apply_template, symObjAddr: 0x1430, symBinAddr: 0x10E860, symSize: 0x2B0 }
  - { offset: 0x67D042, size: 0x8, addend: 0x0, symName: __ZNSt3__16vectorIPK18llama_chat_messageNS_9allocatorIS3_EEE8__appendEm, symObjAddr: 0x2310, symBinAddr: 0x10F410, symSize: 0x150 }
  - { offset: 0x67D56B, size: 0x8, addend: 0x0, symName: _llama_split_prefix, symObjAddr: 0x1720, symBinAddr: 0x10EB50, symSize: 0x3C0 }
  - { offset: 0x67E25B, size: 0x8, addend: 0x0, symName: _llama_print_system_info.cold.1, symObjAddr: 0x2470, symBinAddr: 0x231420, symSize: 0x4F }
  - { offset: 0x67E347, size: 0x8, addend: 0x0, symName: '__ZZL31llama_model_load_from_file_implRKNSt3__112basic_stringIcNS_11char_traitsIcEENS_9allocatorIcEEEERNS_6vectorIS5_NS3_IS5_EEEE18llama_model_paramsEN3$_08__invokeEfPv', symObjAddr: 0x1C50, symBinAddr: 0x10F080, symSize: 0xA0 }
  - { offset: 0x67F7BE, size: 0x8, addend: 0x0, symName: __ZNKSt3__16vectorIPK18llama_chat_messageNS_9allocatorIS3_EEE20__throw_length_errorB8ne190102Ev, symObjAddr: 0x2460, symBinAddr: 0x10F560, symSize: 0x10 }
  - { offset: 0x67F7E8, size: 0x8, addend: 0x0, symName: _llama_print_system_info.cold.1, symObjAddr: 0x2470, symBinAddr: 0x231420, symSize: 0x4F }
  - { offset: 0x6817DE, size: 0x8, addend: 0x0, symName: _unicode_ranges_flags, symObjAddr: 0x10128, symBinAddr: 0x28E098, symSize: 0x0 }
  - { offset: 0x685124, size: 0x8, addend: 0x0, symName: _unicode_set_whitespace, symObjAddr: 0x2AAE0, symBinAddr: 0x309A40, symSize: 0x0 }
  - { offset: 0x6855CC, size: 0x8, addend: 0x0, symName: _unicode_map_lowercase, symObjAddr: 0x10138, symBinAddr: 0x28E0A8, symSize: 0x0 }
  - { offset: 0x6855FC, size: 0x8, addend: 0x0, symName: _unicode_map_uppercase, symObjAddr: 0x10148, symBinAddr: 0x28E0B8, symSize: 0x0 }
  - { offset: 0x685613, size: 0x8, addend: 0x0, symName: _unicode_ranges_nfd, symObjAddr: 0x10158, symBinAddr: 0x28E0C8, symSize: 0x0 }
  - { offset: 0x685854, size: 0x8, addend: 0x0, symName: __ZNSt3__113unordered_setIjNS_4hashIjEENS_8equal_toIjEENS_9allocatorIjEEED1B8ne190102Ev, symObjAddr: 0x0, symBinAddr: 0x10F570, symSize: 0x50 }
  - { offset: 0x685B22, size: 0x8, addend: 0x0, symName: __ZNSt3__112__hash_tableIjNS_4hashIjEENS_8equal_toIjEENS_9allocatorIjEEED1Ev, symObjAddr: 0x50, symBinAddr: 0x10F5C0, symSize: 0x50 }
  - { offset: 0x6860E2, size: 0x8, addend: 0x0, symName: __ZNSt3__112__hash_tableIjNS_4hashIjEENS_8equal_toIjEENS_9allocatorIjEEE25__emplace_unique_key_argsIjJRKjEEENS_4pairINS_15__hash_iteratorIPNS_11__hash_nodeIjPvEEEEbEERKT_DpOT0_, symObjAddr: 0xA0, symBinAddr: 0x10F610, symSize: 0x420 }
  - { offset: 0x6867AB, size: 0x8, addend: 0x0, symName: __ZNSt3__112__hash_tableIjNS_4hashIjEENS_8equal_toIjEENS_9allocatorIjEEE11__do_rehashILb1EEEvm, symObjAddr: 0x500, symBinAddr: 0x10FA30, symSize: 0x221 }
  - { offset: 0x686EF1, size: 0x8, addend: 0x0, symName: __GLOBAL__sub_I_unicode_data.cpp, symObjAddr: 0x750, symBinAddr: 0x10FC60, symSize: 0x2A3 }
  - { offset: 0x689294, size: 0x8, addend: 0x0, symName: __Z26unicode_cpt_flags_from_cptj, symObjAddr: 0x960, symBinAddr: 0x110860, symSize: 0xC0 }
  - { offset: 0x6892B5, size: 0x8, addend: 0x0, symName: __ZZ26unicode_cpt_flags_from_cptjE5undef, symObjAddr: 0x2F41A8, symBinAddr: 0x3094A0, symSize: 0x0 }
  - { offset: 0x6892CC, size: 0x8, addend: 0x0, symName: __ZZ26unicode_cpt_flags_from_cptjE9cpt_flags, symObjAddr: 0x2F41B8, symBinAddr: 0x3094B0, symSize: 0x0 }
  - { offset: 0x6BDC01, size: 0x8, addend: 0x0, symName: __ZNSt3__119__throw_range_errorB8ne190102EPKc, symObjAddr: 0x169E0, symBinAddr: 0x11A950, symSize: 0x50 }
  - { offset: 0x6C396F, size: 0x8, addend: 0x0, symName: __Z27unicode_cpt_flags_from_utf8RKNSt3__112basic_stringIcNS_11char_traitsIcEENS_9allocatorIcEEEE, symObjAddr: 0xC70, symBinAddr: 0x110B70, symSize: 0x70 }
  - { offset: 0x6C399B, size: 0x8, addend: 0x0, symName: __ZZ27unicode_cpt_flags_from_utf8RKNSt3__112basic_stringIcNS_11char_traitsIcEENS_9allocatorIcEEEEE5undef, symObjAddr: 0x2F41D8, symBinAddr: 0x3094D0, symSize: 0x0 }
  - { offset: 0x6C3A3B, size: 0x8, addend: 0x0, symName: __Z20unicode_byte_to_utf8h, symObjAddr: 0xCE0, symBinAddr: 0x110BE0, symSize: 0x1F0 }
  - { offset: 0x6C3A67, size: 0x8, addend: 0x0, symName: __ZZ20unicode_byte_to_utf8hE3map, symObjAddr: 0x2F41E8, symBinAddr: 0x3094E0, symSize: 0x0 }
  - { offset: 0x6C4269, size: 0x8, addend: 0x0, symName: __Z20unicode_utf8_to_byteRKNSt3__112basic_stringIcNS_11char_traitsIcEENS_9allocatorIcEEEE, symObjAddr: 0x16C0, symBinAddr: 0x1115C0, symSize: 0xA0 }
  - { offset: 0x6C4295, size: 0x8, addend: 0x0, symName: __ZZ20unicode_utf8_to_byteRKNSt3__112basic_stringIcNS_11char_traitsIcEENS_9allocatorIcEEEEE3map, symObjAddr: 0x2F4218, symBinAddr: 0x309510, symSize: 0x0 }
  - { offset: 0x6C4836, size: 0x8, addend: 0x0, symName: __Z19unicode_regex_splitRKNSt3__112basic_stringIcNS_11char_traitsIcEENS_9allocatorIcEEEERKNS_6vectorIS5_NS3_IS5_EEEE, symObjAddr: 0x1DA0, symBinAddr: 0x111CA0, symSize: 0x3530 }
  - { offset: 0x6C4862, size: 0x8, addend: 0x0, symName: __ZZ19unicode_regex_splitRKNSt3__112basic_stringIcNS_11char_traitsIcEENS_9allocatorIcEEEERKNS_6vectorIS5_NS3_IS5_EEEEE11k_ucat_enum, symObjAddr: 0x2F4248, symBinAddr: 0x309540, symSize: 0x0 }
  - { offset: 0x6C4879, size: 0x8, addend: 0x0, symName: __ZZ19unicode_regex_splitRKNSt3__112basic_stringIcNS_11char_traitsIcEENS_9allocatorIcEEEERKNS_6vectorIS5_NS3_IS5_EEEEE10k_ucat_cpt, symObjAddr: 0x2F4268, symBinAddr: 0x309560, symSize: 0x0 }
  - { offset: 0x6C4890, size: 0x8, addend: 0x0, symName: __ZZ19unicode_regex_splitRKNSt3__112basic_stringIcNS_11char_traitsIcEENS_9allocatorIcEEEERKNS_6vectorIS5_NS3_IS5_EEEEE10k_ucat_map, symObjAddr: 0x2F4288, symBinAddr: 0x309580, symSize: 0x0 }
  - { offset: 0x6D0DDD, size: 0x8, addend: 0x0, symName: __Z16unicode_len_utf8c, symObjAddr: 0x0, symBinAddr: 0x10FF10, symSize: 0x20 }
  - { offset: 0x6D0EA0, size: 0x8, addend: 0x0, symName: __Z21unicode_cpt_from_utf8RKNSt3__112basic_stringIcNS_11char_traitsIcEENS_9allocatorIcEEEERm, symObjAddr: 0x20, symBinAddr: 0x10FF30, symSize: 0x240 }
  - { offset: 0x6D1025, size: 0x8, addend: 0x0, symName: __ZNSt16invalid_argumentC1B8ne190102EPKc, symObjAddr: 0x260, symBinAddr: 0x110170, symSize: 0x30 }
  - { offset: 0x6D1256, size: 0x8, addend: 0x0, symName: __Z19unicode_cpt_to_utf8j, symObjAddr: 0x290, symBinAddr: 0x1101A0, symSize: 0x150 }
  - { offset: 0x6D1648, size: 0x8, addend: 0x0, symName: __Z26unicode_cpts_normalize_nfdRKNSt3__16vectorIjNS_9allocatorIjEEEE, symObjAddr: 0x3E0, symBinAddr: 0x1102F0, symSize: 0x200 }
  - { offset: 0x6D1CD7, size: 0x8, addend: 0x0, symName: __ZNSt3__16__treeINS_12__value_typeINS_12basic_stringIcNS_11char_traitsIcEENS_9allocatorIcEEEEiEENS_19__map_value_compareIS7_S8_NS_4lessIS7_EELb1EEENS5_IS8_EEE30__emplace_hint_unique_key_argsIS7_JRKNS_4pairIKS7_iEEEEENSG_INS_15__tree_iteratorIS8_PNS_11__tree_nodeIS8_PvEElEEbEENS_21__tree_const_iteratorIS8_SP_lEERKT_DpOT0_, symObjAddr: 0x23020, symBinAddr: 0x126F00, symSize: 0xF0 }
  - { offset: 0x6D200C, size: 0x8, addend: 0x0, symName: __Z22unicode_cpts_from_utf8RKNSt3__112basic_stringIcNS_11char_traitsIcEENS_9allocatorIcEEEE, symObjAddr: 0x5E0, symBinAddr: 0x1104F0, symSize: 0x250 }
  - { offset: 0x6D2822, size: 0x8, addend: 0x0, symName: __ZNSt3__16vectorIjNS_9allocatorIjEEE12emplace_backIJiEEERjDpOT_, symObjAddr: 0x830, symBinAddr: 0x110740, symSize: 0x120 }
  - { offset: 0x6D2D77, size: 0x8, addend: 0x0, symName: __Z26unicode_cpt_flags_from_cptj.cold.1, symObjAddr: 0x23D30, symBinAddr: 0x231470, symSize: 0x30 }
  - { offset: 0x6D2DC9, size: 0x8, addend: 0x0, symName: __ZL23unicode_cpt_flags_arrayv, symObjAddr: 0xA20, symBinAddr: 0x110920, symSize: 0x230 }
  - { offset: 0x6D3644, size: 0x8, addend: 0x0, symName: __ZNSt3__16vectorI17unicode_cpt_flagsNS_9allocatorIS1_EEED1B8ne190102Ev, symObjAddr: 0xC50, symBinAddr: 0x110B50, symSize: 0x20 }
  - { offset: 0x6D3790, size: 0x8, addend: 0x0, symName: __Z27unicode_cpt_flags_from_utf8RKNSt3__112basic_stringIcNS_11char_traitsIcEENS_9allocatorIcEEEE.cold.1, symObjAddr: 0x23D60, symBinAddr: 0x2314A0, symSize: 0x30 }
  - { offset: 0x6D3B63, size: 0x8, addend: 0x0, symName: __ZL24unicode_byte_to_utf8_mapv, symObjAddr: 0xED0, symBinAddr: 0x110DD0, symSize: 0x780 }
  - { offset: 0x6D49E6, size: 0x8, addend: 0x0, symName: __ZNSt3__112__hash_tableINS_17__hash_value_typeIhNS_12basic_stringIcNS_11char_traitsIcEENS_9allocatorIcEEEEEENS_22__unordered_map_hasherIhS8_NS_4hashIhEENS_8equal_toIhEELb1EEENS_21__unordered_map_equalIhS8_SD_SB_Lb1EEENS5_IS8_EEE25__emplace_unique_key_argsIhJRKNS_21piecewise_construct_tENS_5tupleIJOhEEENSN_IJEEEEEENS_4pairINS_15__hash_iteratorIPNS_11__hash_nodeIS8_PvEEEEbEERKT_DpOT0_, symObjAddr: 0x93C0, symBinAddr: 0x119190, symSize: 0x460 }
  - { offset: 0x6D51E2, size: 0x8, addend: 0x0, symName: __ZNSt3__113unordered_mapIhNS_12basic_stringIcNS_11char_traitsIcEENS_9allocatorIcEEEENS_4hashIhEENS_8equal_toIhEENS4_INS_4pairIKhS6_EEEEED1B8ne190102Ev, symObjAddr: 0x1650, symBinAddr: 0x111550, symSize: 0x70 }
  - { offset: 0x6D58C1, size: 0x8, addend: 0x0, symName: __ZNSt3__112__hash_tableINS_17__hash_value_typeINS_12basic_stringIcNS_11char_traitsIcEENS_9allocatorIcEEEEhEENS_22__unordered_map_hasherIS7_S8_NS_4hashIS7_EENS_8equal_toIS7_EELb1EEENS_21__unordered_map_equalIS7_S8_SD_SB_Lb1EEENS5_IS8_EEE4findIS7_EENS_15__hash_iteratorIPNS_11__hash_nodeIS8_PvEEEERKT_, symObjAddr: 0xA7A0, symBinAddr: 0x11A0C0, symSize: 0x290 }
  - { offset: 0x6D5BBF, size: 0x8, addend: 0x0, symName: __ZL24unicode_utf8_to_byte_mapv, symObjAddr: 0x1760, symBinAddr: 0x111660, symSize: 0x510 }
  - { offset: 0x6D6A5E, size: 0x8, addend: 0x0, symName: __ZNSt3__112__hash_tableINS_17__hash_value_typeINS_12basic_stringIcNS_11char_traitsIcEENS_9allocatorIcEEEEhEENS_22__unordered_map_hasherIS7_S8_NS_4hashIS7_EENS_8equal_toIS7_EELb1EEENS_21__unordered_map_equalIS7_S8_SD_SB_Lb1EEENS5_IS8_EEE25__emplace_unique_key_argsIS7_JRKNS_21piecewise_construct_tENS_5tupleIJOS7_EEENSN_IJEEEEEENS_4pairINS_15__hash_iteratorIPNS_11__hash_nodeIS8_PvEEEEbEERKT_DpOT0_, symObjAddr: 0x9AA0, symBinAddr: 0x119870, symSize: 0x5D0 }
  - { offset: 0x6D735B, size: 0x8, addend: 0x0, symName: __ZNSt3__113unordered_mapINS_12basic_stringIcNS_11char_traitsIcEENS_9allocatorIcEEEEhNS_4hashIS6_EENS_8equal_toIS6_EENS4_INS_4pairIKS6_hEEEEED1B8ne190102Ev, symObjAddr: 0x1C70, symBinAddr: 0x111B70, symSize: 0x70 }
  - { offset: 0x6D79D9, size: 0x8, addend: 0x0, symName: __Z15unicode_tolowerj, symObjAddr: 0x1CE0, symBinAddr: 0x111BE0, symSize: 0x60 }
  - { offset: 0x6D7B97, size: 0x8, addend: 0x0, symName: __Z18unicode_cpt_is_hanj, symObjAddr: 0x1D40, symBinAddr: 0x111C40, symSize: 0x60 }
  - { offset: 0x6DAF24, size: 0x8, addend: 0x0, symName: __ZL26unicode_regex_split_customRKNSt3__112basic_stringIcNS_11char_traitsIcEENS_9allocatorIcEEEES7_RKNS_6vectorImNS3_ImEEEE, symObjAddr: 0x57B0, symBinAddr: 0x1156B0, symSize: 0x39D0 }
  - { offset: 0x6E2564, size: 0x8, addend: 0x0, symName: __ZNKSt3__16__treeINS_12__value_typeINS_12basic_stringIcNS_11char_traitsIcEENS_9allocatorIcEEEEiEENS_19__map_value_compareIS7_S8_NS_4lessIS7_EELb1EEENS5_IS8_EEE4findIS7_EENS_21__tree_const_iteratorIS8_PNS_11__tree_nodeIS8_PvEElEERKT_, symObjAddr: 0x23C20, symBinAddr: 0x1278F0, symSize: 0x110 }
  - { offset: 0x6E28C8, size: 0x8, addend: 0x0, symName: __ZNKSt3__13mapINS_12basic_stringIcNS_11char_traitsIcEENS_9allocatorIcEEEEiNS_4lessIS6_EENS4_INS_4pairIKS6_iEEEEE2atERSA_, symObjAddr: 0x9180, symBinAddr: 0x119080, symSize: 0x110 }
  - { offset: 0x6E317E, size: 0x8, addend: 0x0, symName: __ZNSt3__115wstring_convertINS_12codecvt_utf8IwLm1114111ELNS_12codecvt_modeE0EEEwNS_9allocatorIwEENS4_IcEEE10from_bytesEPKcS9_, symObjAddr: 0x16460, symBinAddr: 0x11A3D0, symSize: 0x370 }
  - { offset: 0x6E3AF6, size: 0x8, addend: 0x0, symName: __Z19unicode_regex_splitRKNSt3__112basic_stringIcNS_11char_traitsIcEENS_9allocatorIcEEEERKNS_6vectorIS5_NS3_IS5_EEEE.cold.1, symObjAddr: 0x23D90, symBinAddr: 0x2314D0, symSize: 0x30 }
  - { offset: 0x6E3B5E, size: 0x8, addend: 0x0, symName: __ZNSt3__111basic_regexIwNS_12regex_traitsIwEEEC2B8ne190102INS_11char_traitsIwEENS_9allocatorIwEEEERKNS_12basic_stringIwT_T0_EENS_15regex_constants18syntax_option_typeE, symObjAddr: 0x16B60, symBinAddr: 0x11AAD0, symSize: 0xD0 }
  - { offset: 0x6E3D5B, size: 0x8, addend: 0x0, symName: __ZNKSt3__111basic_regexIwNS_12regex_traitsIwEEE8__searchINS_9allocatorINS_9sub_matchIPKwEEEEEEbS8_S8_RNS_13match_resultsIS8_T_EENS_15regex_constants15match_flag_typeE, symObjAddr: 0x203A0, symBinAddr: 0x124310, symSize: 0x340 }
  - { offset: 0x6E4305, size: 0x8, addend: 0x0, symName: __ZNSt3__16vectorINS_12basic_stringIcNS_11char_traitsIcEENS_9allocatorIcEEEENS4_IS6_EEE24__emplace_back_slow_pathIJRS6_EEEPS6_DpOT_, symObjAddr: 0x22E10, symBinAddr: 0x126D80, symSize: 0x180 }
  - { offset: 0x6E47E9, size: 0x8, addend: 0x0, symName: __ZNKSt3__16vectorINS_9sub_matchIPKwEENS_9allocatorIS4_EEE20__throw_length_errorB8ne190102Ev, symObjAddr: 0x19190, symBinAddr: 0x11D100, symSize: 0x10 }
  - { offset: 0x6E4813, size: 0x8, addend: 0x0, symName: __ZNSt3__17__stateIwED1Ev, symObjAddr: 0x191A0, symBinAddr: 0x11D110, symSize: 0x40 }
  - { offset: 0x6E4864, size: 0x8, addend: 0x0, symName: __ZNKSt3__112basic_stringIwNS_11char_traitsIwEENS_9allocatorIwEEE20__throw_length_errorB8ne190102Ev, symObjAddr: 0x16A30, symBinAddr: 0x11A9A0, symSize: 0x10 }
  - { offset: 0x6E488E, size: 0x8, addend: 0x0, symName: __ZNSt11range_errorC1B8ne190102EPKc, symObjAddr: 0x16A40, symBinAddr: 0x11A9B0, symSize: 0x30 }
  - { offset: 0x6E48D9, size: 0x8, addend: 0x0, symName: __ZNSt3__14pairIKNS_12basic_stringIcNS_11char_traitsIcEENS_9allocatorIcEEEEiEC1B8ne190102IRA6_KcN17unicode_cpt_flagsUt_ELi0EEEOT_OT0_, symObjAddr: 0x52D0, symBinAddr: 0x1151D0, symSize: 0xB0 }
  - { offset: 0x6E4C28, size: 0x8, addend: 0x0, symName: __ZNSt3__13mapINS_12basic_stringIcNS_11char_traitsIcEENS_9allocatorIcEEEEiNS_4lessIS6_EENS4_INS_4pairIKS6_iEEEEEC1B8ne190102ESt16initializer_listISB_ERKS8_, symObjAddr: 0x5380, symBinAddr: 0x115280, symSize: 0x70 }
